 selftrainedMatching

 Timestamp is 5c113d9f (Wed Dec 12 17:55:59 2018)

 Preferred load address is 0000000140000000

 Start         Length     Name                   Class
 0001:00000000 00000e24H .text$di                CODE
 0001:00000e30 0001ac94H .text$mn                CODE
 0001:0001bad0 000027d0H .text$x                 CODE
 0001:0001e2a0 00000579H .text$yd                CODE
 0002:00000000 00000c40H .idata$5                DATA
 0002:00000c40 00000008H .CRT$XCA                DATA
 0002:00000c48 00000008H .CRT$XCAA               DATA
 0002:00000c50 00000008H .CRT$XCL                DATA
 0002:00000c58 00000298H .CRT$XCU                DATA
 0002:00000ef0 00000008H .CRT$XCZ                DATA
 0002:00000ef8 00000008H .CRT$XIA                DATA
 0002:00000f00 00000008H .CRT$XIAA               DATA
 0002:00000f08 00000008H .CRT$XIC                DATA
 0002:00000f10 00000008H .CRT$XIY                DATA
 0002:00000f18 00000008H .CRT$XIZ                DATA
 0002:00000f20 0001b040H .rdata                  DATA
 0002:0001bf60 00000090H .rdata$debug            DATA
 0002:0001bff0 00002b74H .rdata$r                DATA
 0002:0001eb68 00000008H .rtc$IAA                DATA
 0002:0001eb70 00000008H .rtc$IZZ                DATA
 0002:0001eb78 00000008H .rtc$TAA                DATA
 0002:0001eb80 00000008H .rtc$TZZ                DATA
 0002:0001eb90 00006400H .xdata                  DATA
 0002:00024f90 00000534H .xdata$x                DATA
 0002:000254c4 00000000H .edata                  DATA
 0002:000254c4 000000c8H .idata$2                DATA
 0002:0002558c 00000014H .idata$3                DATA
 0002:000255a0 00000c40H .idata$4                DATA
 0002:000261e0 00004174H .idata$6                DATA
 0003:00000000 0000010cH .data                   DATA
 0003:00000110 000016f0H .data$r                 DATA
 0003:00001800 000009e0H .bss                    DATA
 0004:00000000 00002448H .pdata                  DATA
 0005:00000000 00000144H .rsrc$01                DATA
 0005:00000150 00006590H .rsrc$02                DATA

  Address         Publics by Value              Rva+Base               Lib:Object

 0000:00000000       __guard_fids_count         0000000000000000     <absolute>
 0000:00000000       ___safe_se_handler_table   0000000000000000     <absolute>
 0000:00000000       __guard_flags              0000000000000000     <absolute>
 0000:00000000       __guard_fids_table         0000000000000000     <absolute>
 0000:00000000       ___safe_se_handler_count   0000000000000000     <absolute>
 0000:00000000       __ImageBase                0000000140000000     <linker-defined>
 0001:00000e30       ??$enable_current_exception@U?$error_info_injector@Vsystem_error@system@boost@@@exception_detail@boost@@@boost@@YA?AV?$clone_impl@U?$error_info_injector@Vsystem_error@system@boost@@@exception_detail@boost@@@exception_detail@0@AEBU?$error_info_injector@Vsystem_error@system@boost@@@20@@Z 0000000140001e30 f i main.obj
 0001:00000e60       ??$enable_error_info@Vsystem_error@system@boost@@@boost@@YA?AU?$error_info_injector@Vsystem_error@system@boost@@@exception_detail@0@AEBVsystem_error@system@0@@Z 0000000140001e60 f i main.obj
 0001:00000eb0       ??0?$clone_impl@U?$error_info_injector@Vsystem_error@system@boost@@@exception_detail@boost@@@exception_detail@boost@@AEAA@AEBV012@Uclone_tag@012@@Z 0000000140001eb0 f i main.obj
 0001:00000f70       ??0?$clone_impl@U?$error_info_injector@Vsystem_error@system@boost@@@exception_detail@boost@@@exception_detail@boost@@QEAA@AEBU?$error_info_injector@Vsystem_error@system@boost@@@12@@Z 0000000140001f70 f i main.obj
 0001:00001030       ??0?$clone_impl@U?$error_info_injector@Vsystem_error@system@boost@@@exception_detail@boost@@@exception_detail@boost@@QEAA@AEBV012@@Z 0000000140002030 f i main.obj
 0001:000010c0       ??0?$error_info_injector@Vsystem_error@system@boost@@@exception_detail@boost@@QEAA@AEBU012@@Z 00000001400020c0 f i main.obj
 0001:00001150       ??0clone_base@exception_detail@boost@@QEAA@AEBV012@@Z 0000000140002150 f i main.obj
 0001:00001160       ??0exception@boost@@QEAA@AEBV01@@Z 0000000140002160 f i main.obj
 0001:000011c0       ??0runtime_error@std@@QEAA@AEBV01@@Z 00000001400021c0 f i main.obj
 0001:000011f0       ??0system_error@system@boost@@QEAA@AEBV012@@Z 00000001400021f0 f i main.obj
 0001:00001260       ??1?$basic_stringbuf@DU?$char_traits@D@std@@V?$allocator@D@2@@std@@UEAA@XZ 0000000140002260 f i main.obj
 0001:000012d0       ??1?$error_info_injector@Vsystem_error@system@boost@@@exception_detail@boost@@UEAA@XZ 00000001400022d0 f i main.obj
 0001:00001350       ??1?$refcount_ptr@Uerror_info_container@exception_detail@boost@@@exception_detail@boost@@QEAA@XZ 0000000140002350 f i main.obj
 0001:00001380       ?_Destroy@?$_Ref_count_del@XUnoop_deleter@socket_ops@detail@asio@boost@@@std@@EEAAXXZ 0000000140002380 f i udp_func.obj
 0001:00001380       ??3@YAXPEAX0@Z             0000000140002380 f i udp_func.obj
 0001:00001380       ??$destroy@PEAU?$_Tree_node@U?$pair@$$CBGG@std@@PEAX@std@@@?$_Wrap_alloc@V?$allocator@U?$_Tree_node@U?$pair@$$CBGG@std@@PEAX@std@@@std@@@std@@QEAAXPEAPEAU?$_Tree_node@U?$pair@$$CBGG@std@@PEAX@1@@Z 0000000140002380 f i festo_udp_func.obj
 0001:00001380       ??1?$service_id@Vwin_iocp_io_service@detail@asio@boost@@@detail@asio@boost@@QEAA@XZ 0000000140002380 f i main.obj
 0001:00001380       ?fork_service@service@io_service@asio@boost@@EEAAXW4fork_event@234@@Z 0000000140002380 f i udp_func.obj
 0001:00001380       ??1?$service_id@V?$datagram_socket_service@Vudp@ip@asio@boost@@@asio@boost@@@detail@asio@boost@@QEAA@XZ 0000000140002380 f i udp_func.obj
 0001:00001380       ??1?$service_id@Vstrand_service@detail@asio@boost@@@detail@asio@boost@@QEAA@XZ 0000000140002380 f i main.obj
 0001:00001380       ?apc_function@detail@asio@boost@@YAX_K@Z 0000000140002380 f i udp_func.obj
 0001:00001380       ??1?$service_id@V?$resolver_service@Vudp@ip@asio@boost@@@ip@asio@boost@@@detail@asio@boost@@QEAA@XZ 0000000140002380 f i udp_func.obj
 0001:00001380       ??1?$service_id@Vselect_reactor@detail@asio@boost@@@detail@asio@boost@@QEAA@XZ 0000000140002380 f i main.obj
 0001:00001390       ??1MainWindow@@UEAA@XZ     0000000140002390 f i main.obj
 0001:000013c0       ??1ProcessControl@@QEAA@XZ 00000001400023c0 f i main.obj
 0001:00001500       ??1clone_base@exception_detail@boost@@UEAA@XZ 0000000140002500 f i main.obj
 0001:00001510       ??1exception@boost@@MEAA@XZ 0000000140002510 f i main.obj
 0001:00001550       ??1runtime_error@std@@UEAA@XZ 0000000140002550 f i main.obj
 0001:00001560       ??1system_error@system@boost@@UEAA@XZ 0000000140002560 f i main.obj
 0001:000015b0       ??_D?$basic_ostringstream@DU?$char_traits@D@std@@V?$allocator@D@2@@std@@QEAAXXZ 00000001400025b0 f i main.obj
 0001:00001630       ??_D?$clone_impl@U?$error_info_injector@Vsystem_error@system@boost@@@exception_detail@boost@@@exception_detail@boost@@QEAAXXZ 0000000140002630 f i main.obj
 0001:0000168c       ??_E?$basic_ostringstream@DU?$char_traits@D@std@@V?$allocator@D@2@@std@@$4PPPPPPPM@A@EAAPEAXI@Z 000000014000268c f i main.obj
 0001:00001698       ??_E?$clone_impl@U?$error_info_injector@Vsystem_error@system@boost@@@exception_detail@boost@@@exception_detail@boost@@$4PPPPPPPM@IA@EAAPEAXI@Z 0000000140002698 f i main.obj
 0001:000016ac       ??_E?$clone_impl@U?$error_info_injector@Vsystem_error@system@boost@@@exception_detail@boost@@@exception_detail@boost@@WEI@EAAPEAXI@Z 00000001400026ac f i main.obj
 0001:000016b8       ??_E?$error_info_injector@Vsystem_error@system@boost@@@exception_detail@boost@@WEI@EAAPEAXI@Z 00000001400026b8 f i main.obj
 0001:000016d0       ??_G?$basic_ostringstream@DU?$char_traits@D@std@@V?$allocator@D@2@@std@@UEAAPEAXI@Z 00000001400026d0 f i main.obj
 0001:000016d0       ??_E?$basic_ostringstream@DU?$char_traits@D@std@@V?$allocator@D@2@@std@@UEAAPEAXI@Z 00000001400026d0 f i main.obj
 0001:00001710       ??_G?$basic_stringbuf@DU?$char_traits@D@std@@V?$allocator@D@2@@std@@UEAAPEAXI@Z 0000000140002710 f i main.obj
 0001:00001710       ??_E?$basic_stringbuf@DU?$char_traits@D@std@@V?$allocator@D@2@@std@@UEAAPEAXI@Z 0000000140002710 f i main.obj
 0001:00001740       ??_G?$clone_impl@U?$error_info_injector@Vsystem_error@system@boost@@@exception_detail@boost@@@exception_detail@boost@@UEAAPEAXI@Z 0000000140002740 f i main.obj
 0001:00001740       ??_E?$clone_impl@U?$error_info_injector@Vsystem_error@system@boost@@@exception_detail@boost@@@exception_detail@boost@@UEAAPEAXI@Z 0000000140002740 f i main.obj
 0001:000017c0       ??_E?$error_info_injector@Vsystem_error@system@boost@@@exception_detail@boost@@UEAAPEAXI@Z 00000001400027c0 f i main.obj
 0001:000017c0       ??_G?$error_info_injector@Vsystem_error@system@boost@@@exception_detail@boost@@UEAAPEAXI@Z 00000001400027c0 f i main.obj
 0001:000017f0       ??_G_Iostream_error_category@std@@UEAAPEAXI@Z 00000001400027f0 f i main.obj
 0001:000017f0       ??_E_Generic_error_category@std@@UEAAPEAXI@Z 00000001400027f0 f i main.obj
 0001:000017f0       ??_G_System_error_category@std@@UEAAPEAXI@Z 00000001400027f0 f i main.obj
 0001:000017f0       ??_G_Generic_error_category@std@@UEAAPEAXI@Z 00000001400027f0 f i main.obj
 0001:000017f0       ??_Eerror_category@std@@UEAAPEAXI@Z 00000001400027f0 f i main.obj
 0001:000017f0       ??_E_System_error_category@std@@UEAAPEAXI@Z 00000001400027f0 f i main.obj
 0001:000017f0       ??_Gerror_category@std@@UEAAPEAXI@Z 00000001400027f0 f i main.obj
 0001:000017f0       ??_E_Iostream_error_category@std@@UEAAPEAXI@Z 00000001400027f0 f i main.obj
 0001:00001820       ??_Eclone_base@exception_detail@boost@@UEAAPEAXI@Z 0000000140002820 f i main.obj
 0001:00001820       ??_Gclone_base@exception_detail@boost@@UEAAPEAXI@Z 0000000140002820 f i main.obj
 0001:00001850       ??_Emisc_category@detail@error@asio@boost@@UEAAPEAXI@Z 0000000140002850 f i main.obj
 0001:00001850       ??_Eerror_category@system@boost@@UEAAPEAXI@Z 0000000140002850 f i main.obj
 0001:00001850       ??_Gmisc_category@detail@error@asio@boost@@UEAAPEAXI@Z 0000000140002850 f i main.obj
 0001:00001850       ??_Gerror_category@system@boost@@UEAAPEAXI@Z 0000000140002850 f i main.obj
 0001:00001880       ??_Eruntime_error@std@@UEAAPEAXI@Z 0000000140002880 f i main.obj
 0001:00001880       ??_Gruntime_error@std@@UEAAPEAXI@Z 0000000140002880 f i main.obj
 0001:000018b0       ??_Esystem_error@system@boost@@UEAAPEAXI@Z 00000001400028b0 f i main.obj
 0001:000018b0       ??_Gsystem_error@system@boost@@UEAAPEAXI@Z 00000001400028b0 f i main.obj
 0001:00001920       ?_Copy@?$basic_string@DU?$char_traits@D@std@@V?$allocator@D@2@@std@@QEAAX_K0@Z 0000000140002920 f i main.obj
 0001:00001a30       ?append@?$basic_string@DU?$char_traits@D@std@@V?$allocator@D@2@@std@@QEAAAEAV12@AEBV12@_K1@Z 0000000140002a30 f i main.obj
 0001:00001b50       ?append@?$basic_string@DU?$char_traits@D@std@@V?$allocator@D@2@@std@@QEAAAEAV12@PEBD_K@Z 0000000140002b50 f i main.obj
 0001:00001ca0       ?assign@?$basic_string@DU?$char_traits@D@std@@V?$allocator@D@2@@std@@QEAAAEAV12@AEBV12@_K1@Z 0000000140002ca0 f i main.obj
 0001:00001dd0       ?assign@?$basic_string@DU?$char_traits@D@std@@V?$allocator@D@2@@std@@QEAAAEAV12@PEBD_K@Z 0000000140002dd0 f i main.obj
 0001:00001f00       ?clone@?$clone_impl@U?$error_info_injector@Vsystem_error@system@boost@@@exception_detail@boost@@@exception_detail@boost@@$0PPPPPPPM@A@EBAPEBVclone_base@23@XZ 0000000140002f00 f i main.obj
 0001:00001f10       ?clone@?$clone_impl@U?$error_info_injector@Vsystem_error@system@boost@@@exception_detail@boost@@@exception_detail@boost@@EEBAPEBVclone_base@23@XZ 0000000140002f10 f i main.obj
 0001:00001f80       ?copy_boost_exception@exception_detail@boost@@YAXPEAVexception@2@PEBV32@@Z 0000000140002f80 f i main.obj
 0001:00002050       ?default_error_condition@_System_error_category@std@@UEBA?AVerror_condition@2@H@Z 0000000140003050 f i main.obj
 0001:00002090       ?default_error_condition@error_category@system@boost@@UEBA?AVerror_condition@23@H@Z 0000000140003090 f i main.obj
 0001:00002090       ?default_error_condition@error_category@std@@UEBA?AVerror_condition@2@H@Z 0000000140003090 f i main.obj
 0001:000020a0       ?do_throw_error@detail@asio@boost@@YAXAEBVerror_code@system@3@PEBD@Z 00000001400030a0 f i main.obj
 0001:00002150       ?equivalent@error_category@system@boost@@UEBA_NAEBVerror_code@23@H@Z 0000000140003150 f i main.obj
 0001:00002150       ?equivalent@error_category@std@@UEBA_NAEBVerror_code@2@H@Z 0000000140003150 f i main.obj
 0001:00002170       ?equivalent@error_category@std@@UEBA_NHAEBVerror_condition@2@@Z 0000000140003170 f i main.obj
 0001:00002170       ?equivalent@error_category@system@boost@@UEBA_NHAEBVerror_condition@23@@Z 0000000140003170 f i main.obj
 0001:000021b0       ?erase@?$basic_string@DU?$char_traits@D@std@@V?$allocator@D@2@@std@@QEAAAEAV12@_K0@Z 00000001400031b0 f i main.obj
 0001:00002280       ?message@_Generic_error_category@std@@UEBA?AV?$basic_string@DU?$char_traits@D@std@@V?$allocator@D@2@@2@H@Z 0000000140003280 f i main.obj
 0001:000022f0       ?message@_Iostream_error_category@std@@UEBA?AV?$basic_string@DU?$char_traits@D@std@@V?$allocator@D@2@@2@H@Z 00000001400032f0 f i main.obj
 0001:00002340       ?message@_System_error_category@std@@UEBA?AV?$basic_string@DU?$char_traits@D@std@@V?$allocator@D@2@@2@H@Z 0000000140003340 f i main.obj
 0001:000023b0       ?message@error_code@system@boost@@QEBA?AV?$basic_string@DU?$char_traits@D@std@@V?$allocator@D@2@@std@@XZ 00000001400033b0 f i main.obj
 0001:000023e0       ?message@misc_category@detail@error@asio@boost@@UEBA?AV?$basic_string@DU?$char_traits@D@std@@V?$allocator@D@2@@std@@H@Z 00000001400033e0 f i main.obj
 0001:000024b0       ?name@_Generic_error_category@std@@UEBAPEBDXZ 00000001400034b0 f i main.obj
 0001:000024c0       ?name@_Iostream_error_category@std@@UEBAPEBDXZ 00000001400034c0 f i main.obj
 0001:000024d0       ?name@_System_error_category@std@@UEBAPEBDXZ 00000001400034d0 f i main.obj
 0001:000024e0       ?name@misc_category@detail@error@asio@boost@@UEBAPEBDXZ 00000001400034e0 f i main.obj
 0001:000024f0       ?overflow@?$basic_stringbuf@DU?$char_traits@D@std@@V?$allocator@D@2@@std@@MEAAHH@Z 00000001400034f0 f i main.obj
 0001:00002750       ?pbackfail@?$basic_stringbuf@DU?$char_traits@D@std@@V?$allocator@D@2@@std@@MEAAHH@Z 0000000140003750 f i main.obj
 0001:000027a0       ?post_deferred_completions@win_iocp_io_service@detail@asio@boost@@QEAAXAEAV?$op_queue@Vwin_iocp_operation@detail@asio@boost@@@234@@Z 00000001400037a0 f i main.obj
 0001:000028a0       ?rethrow@?$clone_impl@U?$error_info_injector@Vsystem_error@system@boost@@@exception_detail@boost@@@exception_detail@boost@@$0PPPPPPPM@A@EBAXXZ 00000001400038a0 f i main.obj
 0001:000028b0       ?rethrow@?$clone_impl@U?$error_info_injector@Vsystem_error@system@boost@@@exception_detail@boost@@@exception_detail@boost@@EEBAXXZ 00000001400038b0 f i main.obj
 0001:000029d0       ?seekoff@?$basic_stringbuf@DU?$char_traits@D@std@@V?$allocator@D@2@@std@@MEAA?AV?$fpos@H@2@_JHH@Z 00000001400039d0 f i main.obj
 0001:00002b60       ?seekpos@?$basic_stringbuf@DU?$char_traits@D@std@@V?$allocator@D@2@@std@@MEAA?AV?$fpos@H@2@V32@H@Z 0000000140003b60 f i main.obj
 0001:00002c70       ?underflow@?$basic_stringbuf@DU?$char_traits@D@std@@V?$allocator@D@2@@std@@MEAAHXZ 0000000140003c70 f i main.obj
 0001:00002cd0       ?what@system_error@system@boost@@UEBAPEBDXZ 0000000140003cd0 f i main.obj
 0001:00002dc0       main                       0000000140003dc0 f   main.obj
 0001:00003000       ??$?0Vwin_iocp_io_service@detail@asio@boost@@_K@service_registry@detail@asio@boost@@QEAA@AEAVio_service@23@PEAVwin_iocp_io_service@123@_K@Z 0000000140004000 f i udp_func.obj
 0001:000030d0       ??$?0Vwork_io_service_runner@resolver_service_base@detail@asio@boost@@@win_thread@detail@asio@boost@@QEAA@Vwork_io_service_runner@resolver_service_base@123@I@Z 00000001400040d0 f i udp_func.obj
 0001:00003140       ??$?6U?$char_traits@D@std@@@std@@YAAEAV?$basic_ostream@DU?$char_traits@D@std@@@0@AEAV10@PEBD@Z 0000000140004140 f i udp_func.obj
 0001:00003310       ??$_Resetp@V?$vector@V?$basic_resolver_entry@Vudp@ip@asio@boost@@@ip@asio@boost@@V?$allocator@V?$basic_resolver_entry@Vudp@ip@asio@boost@@@ip@asio@boost@@@std@@@std@@@?$shared_ptr@V?$vector@V?$basic_resolver_entry@Vudp@ip@asio@boost@@@ip@asio@boost@@V?$allocator@V?$basic_resolver_entry@Vudp@ip@asio@boost@@@ip@asio@boost@@@std@@@std@@@std@@AEAAXPEAV?$vector@V?$basic_resolver_entry@Vudp@ip@asio@boost@@@ip@asio@boost@@V?$allocator@V?$basic_resolver_entry@Vudp@ip@asio@boost@@@ip@asio@boost@@@std@@@1@@Z 0000000140004310 f i udp_func.obj
 0001:00003380       ??$_Resetp@XUnoop_deleter@socket_ops@detail@asio@boost@@@?$shared_ptr@X@std@@AEAAXPEAXUnoop_deleter@socket_ops@detail@asio@boost@@@Z 0000000140004380 f i udp_func.obj
 0001:000033e0       ??$_Uninit_move@PEAV?$basic_resolver_entry@Vudp@ip@asio@boost@@@ip@asio@boost@@PEAV1234@V?$allocator@V?$basic_resolver_entry@Vudp@ip@asio@boost@@@ip@asio@boost@@@std@@V1234@@std@@YAPEAV?$basic_resolver_entry@Vudp@ip@asio@boost@@@ip@asio@boost@@PEAV1234@00AEAU?$_Wrap_alloc@V?$allocator@V?$basic_resolver_entry@Vudp@ip@asio@boost@@@ip@asio@boost@@@std@@@0@0U_Nonscalar_ptr_iterator_tag@0@@Z 00000001400043e0 f i udp_func.obj
 0001:00003440       ??$create@V?$datagram_socket_service@Vudp@ip@asio@boost@@@asio@boost@@@service_registry@detail@asio@boost@@CAPEAVservice@io_service@23@AEAV523@@Z 0000000140004440 f i udp_func.obj
 0001:000034b0       ??$create@V?$resolver_service@Vudp@ip@asio@boost@@@ip@asio@boost@@@service_registry@detail@asio@boost@@CAPEAVservice@io_service@23@AEAV523@@Z 00000001400044b0 f i udp_func.obj
 0001:00003520       ??$destroy@V?$basic_resolver_entry@Vudp@ip@asio@boost@@@ip@asio@boost@@@?$_Wrap_alloc@V?$allocator@V?$basic_resolver_entry@Vudp@ip@asio@boost@@@ip@asio@boost@@@std@@@std@@QEAAXPEAV?$basic_resolver_entry@Vudp@ip@asio@boost@@@ip@asio@boost@@@Z 0000000140004520 f i udp_func.obj
 0001:00003580       ??$endl@DU?$char_traits@D@std@@@std@@YAAEAV?$basic_ostream@DU?$char_traits@D@std@@@0@AEAV10@@Z 0000000140004580 f i udp_func.obj
 0001:000035c0       ??$reset@XUnoop_deleter@socket_ops@detail@asio@boost@@@?$shared_ptr@X@std@@QEAAXPEAXUnoop_deleter@socket_ops@detail@asio@boost@@@Z 00000001400045c0 f i udp_func.obj
 0001:00003630       ??0?$basic_resolver_entry@Vudp@ip@asio@boost@@@ip@asio@boost@@QEAA@AEBV0123@@Z 0000000140004630 f i udp_func.obj
 0001:000036d0       ??0io_service@asio@boost@@QEAA@XZ 00000001400046d0 f i udp_func.obj
 0001:000037c0       ??0resolver_service_base@detail@asio@boost@@QEAA@AEAVio_service@23@@Z 00000001400047c0 f i udp_func.obj
 0001:00003880       ??0win_iocp_io_service@detail@asio@boost@@QEAA@AEAVio_service@23@_K@Z 0000000140004880 f i udp_func.obj
 0001:000039a0       ??0win_iocp_socket_service_base@detail@asio@boost@@QEAA@AEAVio_service@23@@Z 00000001400049a0 f i udp_func.obj
 0001:00003a10       ??1?$basic_datagram_socket@Vudp@ip@asio@boost@@V?$datagram_socket_service@Vudp@ip@asio@boost@@@34@@asio@boost@@QEAA@XZ 0000000140004a10 f i udp_func.obj
 0001:00003a70       ??1?$basic_io_object@V?$resolver_service@Vudp@ip@asio@boost@@@ip@asio@boost@@$0A@@asio@boost@@IEAA@XZ 0000000140004a70 f i udp_func.obj
 0001:00003b10       ??1?$basic_resolver@Vudp@ip@asio@boost@@V?$resolver_service@Vudp@ip@asio@boost@@@234@@ip@asio@boost@@QEAA@XZ 0000000140004b10 f i udp_func.obj
 0001:00003b20       ??1?$basic_resolver_entry@Vudp@ip@asio@boost@@@ip@asio@boost@@QEAA@XZ 0000000140004b20 f i udp_func.obj
 0001:00003b80       ??1?$basic_resolver_iterator@Vudp@ip@asio@boost@@@ip@asio@boost@@QEAA@XZ 0000000140004b80 f i udp_func.obj
 0001:00003b80       ??1?$shared_ptr@X@std@@QEAA@XZ 0000000140004b80 f i udp_func.obj
 0001:00003bc0       ??1?$basic_resolver_query@Vudp@ip@asio@boost@@@ip@asio@boost@@QEAA@XZ 0000000140004bc0 f i udp_func.obj
 0001:00003c20       ??1?$op_queue@Vwin_iocp_operation@detail@asio@boost@@@detail@asio@boost@@QEAA@XZ 0000000140004c20 f i udp_func.obj
 0001:00003ca0       ??1?$scoped_lock@Vwin_mutex@detail@asio@boost@@@detail@asio@boost@@QEAA@XZ 0000000140004ca0 f i udp_func.obj
 0001:00003cc0       ??1?$scoped_ptr@Vio_service@asio@boost@@@detail@asio@boost@@QEAA@XZ 0000000140004cc0 f i udp_func.obj
 0001:00003d20       ??1?$scoped_ptr@Vwin_thread@detail@asio@boost@@@detail@asio@boost@@QEAA@XZ 0000000140004d20 f i udp_func.obj
 0001:00003d50       ??1?$scoped_ptr@Vwork@io_service@asio@boost@@@detail@asio@boost@@QEAA@XZ 0000000140004d50 f i udp_func.obj
 0001:00003d80       ??1?$service_base@Vwin_iocp_io_service@detail@asio@boost@@@detail@asio@boost@@UEAA@XZ 0000000140004d80 f i udp_func.obj
 0001:00003d80       ??1?$service_base@V?$resolver_service@Vudp@ip@asio@boost@@@ip@asio@boost@@@detail@asio@boost@@UEAA@XZ 0000000140004d80 f i udp_func.obj
 0001:00003d80       ??1?$service_base@V?$datagram_socket_service@Vudp@ip@asio@boost@@@asio@boost@@@detail@asio@boost@@UEAA@XZ 0000000140004d80 f i udp_func.obj
 0001:00003d90       ??1?$winsock_init@$01$0A@@detail@asio@boost@@QEAA@XZ 0000000140004d90 f i udp_func.obj
 0001:00003db0       ??1_Sentry_base@?$basic_ostream@DU?$char_traits@D@std@@@std@@QEAA@XZ 0000000140004db0 f i udp_func.obj
 0001:00003dd0       ??1auto_addrinfo@resolver_service_base@detail@asio@boost@@QEAA@XZ 0000000140004dd0 f i udp_func.obj
 0001:00003de0       ??1auto_func_base_ptr@win_thread@detail@asio@boost@@QEAA@XZ 0000000140004de0 f i udp_func.obj
 0001:00003de0       ??1auto_service_ptr@service_registry@detail@asio@boost@@QEAA@XZ 0000000140004de0 f i udp_func.obj
 0001:00003e00       ??1auto_handle@win_iocp_io_service@detail@asio@boost@@QEAA@XZ 0000000140004e00 f i udp_func.obj
 0001:00003e10       ??1context@?$call_stack@Vwin_iocp_io_service@detail@asio@boost@@Uwin_iocp_thread_info@234@@detail@asio@boost@@QEAA@XZ 0000000140004e10 f i udp_func.obj
 0001:00003e30       ??1implementation_type@?$win_iocp_socket_service@Vudp@ip@asio@boost@@@detail@asio@boost@@QEAA@XZ 0000000140004e30 f i udp_func.obj
 0001:00003e70       ??1io_service@asio@boost@@QEAA@XZ 0000000140004e70 f i udp_func.obj
 0001:00003ec0       ??1resolver_service_base@detail@asio@boost@@QEAA@XZ 0000000140004ec0 f i udp_func.obj
 0001:00003f80       ??1sentry@?$basic_ostream@DU?$char_traits@D@std@@@std@@QEAA@XZ 0000000140004f80 f i udp_func.obj
 0001:00003fd0       ??1service_registry@detail@asio@boost@@QEAA@XZ 0000000140004fd0 f i udp_func.obj
 0001:00004050       ??1socket_holder@detail@asio@boost@@QEAA@XZ 0000000140005050 f i udp_func.obj
 0001:000040a0       ??1win_iocp_io_service@detail@asio@boost@@UEAA@XZ 00000001400050a0 f i udp_func.obj
 0001:00004130       ??1win_iocp_thread_info@detail@asio@boost@@QEAA@XZ 0000000140005130 f i udp_func.obj
 0001:00004140       ??1win_mutex@detail@asio@boost@@QEAA@XZ 0000000140005140 f i udp_func.obj
 0001:00004150       ??1work_finished_on_block_exit@win_iocp_io_service@detail@asio@boost@@QEAA@XZ 0000000140005150 f i udp_func.obj
 0001:00004160       ??_E_Ref_count_base@std@@UEAAPEAXI@Z 0000000140005160 f i udp_func.obj
 0001:00004160       ??_E?$_Ref_count_del@XUnoop_deleter@socket_ops@detail@asio@boost@@@std@@UEAAPEAXI@Z 0000000140005160 f i udp_func.obj
 0001:00004160       ??_E?$_Ref_count@V?$vector@V?$basic_resolver_entry@Vudp@ip@asio@boost@@@ip@asio@boost@@V?$allocator@V?$basic_resolver_entry@Vudp@ip@asio@boost@@@ip@asio@boost@@@std@@@std@@@std@@UEAAPEAXI@Z 0000000140005160 f i udp_func.obj
 0001:00004160       ??_G_Ref_count_base@std@@UEAAPEAXI@Z 0000000140005160 f i udp_func.obj
 0001:00004160       ??_G?$_Ref_count@V?$vector@V?$basic_resolver_entry@Vudp@ip@asio@boost@@@ip@asio@boost@@V?$allocator@V?$basic_resolver_entry@Vudp@ip@asio@boost@@@ip@asio@boost@@@std@@@std@@@std@@UEAAPEAXI@Z 0000000140005160 f i udp_func.obj
 0001:00004160       ??_G?$_Ref_count_del@XUnoop_deleter@socket_ops@detail@asio@boost@@@std@@UEAAPEAXI@Z 0000000140005160 f i udp_func.obj
 0001:00004190       ??_G?$datagram_socket_service@Vudp@ip@asio@boost@@@asio@boost@@UEAAPEAXI@Z 0000000140005190 f i udp_func.obj
 0001:00004190       ??_E?$datagram_socket_service@Vudp@ip@asio@boost@@@asio@boost@@UEAAPEAXI@Z 0000000140005190 f i udp_func.obj
 0001:000041d0       ??_Efunc_base@win_thread@detail@asio@boost@@UEAAPEAXI@Z 00000001400051d0 f i udp_func.obj
 0001:000041d0       ??_E?$func@Vwork_io_service_runner@resolver_service_base@detail@asio@boost@@@win_thread@detail@asio@boost@@UEAAPEAXI@Z 00000001400051d0 f i udp_func.obj
 0001:000041d0       ??_Gfunc_base@win_thread@detail@asio@boost@@UEAAPEAXI@Z 00000001400051d0 f i udp_func.obj
 0001:000041d0       ??_G?$func@Vwork_io_service_runner@resolver_service_base@detail@asio@boost@@@win_thread@detail@asio@boost@@UEAAPEAXI@Z 00000001400051d0 f i udp_func.obj
 0001:00004200       ??_E?$resolver_service@Vudp@ip@asio@boost@@@ip@asio@boost@@UEAAPEAXI@Z 0000000140005200 f i udp_func.obj
 0001:00004200       ??_G?$resolver_service@Vudp@ip@asio@boost@@@ip@asio@boost@@UEAAPEAXI@Z 0000000140005200 f i udp_func.obj
 0001:00004250       ??_Gservice@io_service@asio@boost@@MEAAPEAXI@Z 0000000140005250 f i udp_func.obj
 0001:00004250       ??_Eservice@io_service@asio@boost@@MEAAPEAXI@Z 0000000140005250 f i udp_func.obj
 0001:00004280       ??_Ewin_iocp_io_service@detail@asio@boost@@UEAAPEAXI@Z 0000000140005280 f i udp_func.obj
 0001:00004280       ??_Gwin_iocp_io_service@detail@asio@boost@@UEAAPEAXI@Z 0000000140005280 f i udp_func.obj
 0001:000042b0       ?LuxorSendTriggerWaitResponse@@YA?AW4eUdpStatus@@V?$basic_string@DU?$char_traits@D@std@@V?$allocator@D@2@@std@@0@Z 00000001400052b0 f   udp_func.obj
 0001:00004ae0       ?LuxorStatusOK@@YA_NV?$basic_string@DU?$char_traits@D@std@@V?$allocator@D@2@@std@@0@Z 0000000140005ae0 f   udp_func.obj
 0001:00005330       ?LuxorTrigger6DPose@@YA?AW4eUdpStatus@@AEAV?$array@M$05@std@@V?$basic_string@DU?$char_traits@D@std@@V?$allocator@D@2@@3@1@Z 0000000140006330 f   udp_func.obj
 0001:00005b70       ?_Delete_this@?$_Ref_count@V?$vector@V?$basic_resolver_entry@Vudp@ip@asio@boost@@@ip@asio@boost@@V?$allocator@V?$basic_resolver_entry@Vudp@ip@asio@boost@@@ip@asio@boost@@@std@@@std@@@std@@EEAAXXZ 0000000140006b70 f i udp_func.obj
 0001:00005b70       ?_Delete_this@?$_Ref_count_del@XUnoop_deleter@socket_ops@detail@asio@boost@@@std@@EEAAXXZ 0000000140006b70 f i udp_func.obj
 0001:00005b90       ?_Destroy@?$_Ref_count@V?$vector@V?$basic_resolver_entry@Vudp@ip@asio@boost@@@ip@asio@boost@@V?$allocator@V?$basic_resolver_entry@Vudp@ip@asio@boost@@@ip@asio@boost@@@std@@@std@@@std@@EEAAXXZ 0000000140006b90 f i udp_func.obj
 0001:00005be0       ?_Destroy@?$vector@V?$basic_resolver_entry@Vudp@ip@asio@boost@@@ip@asio@boost@@V?$allocator@V?$basic_resolver_entry@Vudp@ip@asio@boost@@@ip@asio@boost@@@std@@@std@@IEAAXPEAV?$basic_resolver_entry@Vudp@ip@asio@boost@@@ip@asio@boost@@0@Z 0000000140006be0 f i udp_func.obj
 0001:00005c60       ?_Get_deleter@?$_Ref_count_del@XUnoop_deleter@socket_ops@detail@asio@boost@@@std@@UEBAPEAXAEBVtype_info@@@Z 0000000140006c60 f i udp_func.obj
 0001:00005ca0       ?_Grow_to@?$vector@V?$basic_resolver_entry@Vudp@ip@asio@boost@@@ip@asio@boost@@V?$allocator@V?$basic_resolver_entry@Vudp@ip@asio@boost@@@ip@asio@boost@@@std@@@std@@IEBA_K_K@Z 0000000140006ca0 f i udp_func.obj
 0001:00005d00       ?_Reallocate@?$vector@V?$basic_resolver_entry@Vudp@ip@asio@boost@@@ip@asio@boost@@V?$allocator@V?$basic_resolver_entry@Vudp@ip@asio@boost@@@ip@asio@boost@@@std@@@std@@IEAAX_K@Z 0000000140006d00 f i udp_func.obj
 0001:00005e00       ?_Reserve@?$vector@V?$basic_resolver_entry@Vudp@ip@asio@boost@@@ip@asio@boost@@V?$allocator@V?$basic_resolver_entry@Vudp@ip@asio@boost@@@ip@asio@boost@@@std@@@std@@IEAAX_K@Z 0000000140006e00 f i udp_func.obj
 0001:00005ea0       ?_Reset0@?$_Ptr_base@V?$vector@V?$basic_resolver_entry@Vudp@ip@asio@boost@@@ip@asio@boost@@V?$allocator@V?$basic_resolver_entry@Vudp@ip@asio@boost@@@ip@asio@boost@@@std@@@std@@@std@@QEAAXPEAV?$vector@V?$basic_resolver_entry@Vudp@ip@asio@boost@@@ip@asio@boost@@V?$allocator@V?$basic_resolver_entry@Vudp@ip@asio@boost@@@ip@asio@boost@@@std@@@2@PEAV_Ref_count_base@2@@Z 0000000140006ea0 f i udp_func.obj
 0001:00005ea0       ?_Reset0@?$_Ptr_base@X@std@@QEAAXPEAXPEAV_Ref_count_base@2@@Z 0000000140006ea0 f i udp_func.obj
 0001:00005f20       ?_Splice_same@?$list@U?$pair@_KUmapped_type@?$reactor_op_queue@_K@detail@asio@boost@@@std@@V?$allocator@U?$pair@_KUmapped_type@?$reactor_op_queue@_K@detail@asio@boost@@@std@@@2@@std@@QEAAXV?$_List_const_iterator@V?$_List_val@U?$_List_simple_types@U?$pair@_KUmapped_type@?$reactor_op_queue@_K@detail@asio@boost@@@std@@@std@@@std@@@2@AEAV12@00_K@Z 0000000140006f20 f i udp_func.obj
 0001:00005fd0       ?cancel_ops_unlocked@select_reactor@detail@asio@boost@@AEAAX_KAEBVerror_code@system@4@@Z 0000000140006fd0 f i udp_func.obj
 0001:00006210       ?close@socket_ops@detail@asio@boost@@YAH_KAEAE_NAEAVerror_code@system@4@@Z 0000000140007210 f i udp_func.obj
 0001:00006380       ?close_for_destruction@win_iocp_socket_service_base@detail@asio@boost@@IEAAXAEAUbase_implementation_type@1234@@Z 0000000140007380 f i udp_func.obj
 0001:00006440       ?construct@resolver_service_base@detail@asio@boost@@QEAAXAEAV?$shared_ptr@X@std@@@Z 0000000140007440 f i udp_func.obj
 0001:000064c0       ?construct@win_iocp_socket_service_base@detail@asio@boost@@QEAAXAEAUbase_implementation_type@1234@@Z 00000001400074c0 f i udp_func.obj
 0001:00006580       ?create@?$basic_resolver_iterator@Vudp@ip@asio@boost@@@ip@asio@boost@@SA?AV1234@PEAUaddrinfo@@AEBV?$basic_string@DU?$char_traits@D@std@@V?$allocator@D@2@@std@@1@Z 0000000140007580 f i udp_func.obj
 0001:00006850       ?deregister_descriptor@select_reactor@detail@asio@boost@@QEAAX_KAEAUper_descriptor_data@1234@_N@Z 0000000140007850 f i udp_func.obj
 0001:000068d0       ?destroy@win_iocp_socket_service_base@detail@asio@boost@@QEAAXAEAUbase_implementation_type@1234@@Z 00000001400078d0 f i udp_func.obj
 0001:00006950       ?do_init@win_mutex@detail@asio@boost@@AEAAHXZ 0000000140007950 f i udp_func.obj
 0001:00006980       ?do_one@win_iocp_io_service@detail@asio@boost@@AEAA_K_NAEAVerror_code@system@4@@Z 0000000140007980 f i udp_func.obj
 0001:00006ca0       ?do_open@win_iocp_socket_service_base@detail@asio@boost@@IEAA?AVerror_code@system@4@AEAUbase_implementation_type@1234@HHHAEAV564@@Z 0000000140007ca0 f i udp_func.obj
 0001:00006e40       ?do_throw_error@detail@asio@boost@@YAXAEBVerror_code@system@3@@Z 0000000140007e40 f i udp_func.obj
 0001:00006f00       ?do_use_service@service_registry@detail@asio@boost@@AEAAPEAVservice@io_service@34@AEBUkey@5634@P6APEAV5634@AEAV634@@Z@Z 0000000140007f00 f i udp_func.obj
 0001:00007040       ?fork_service@?$resolver_service@Vudp@ip@asio@boost@@@ip@asio@boost@@EEAAXW4fork_event@io_service@34@@Z 0000000140008040 f i udp_func.obj
 0001:00007050       ?fork_service@resolver_service_base@detail@asio@boost@@QEAAXW4fork_event@io_service@34@@Z 0000000140008050 f i udp_func.obj
 0001:00007100       ?get_gqcs_timeout@win_iocp_io_service@detail@asio@boost@@CAKXZ 0000000140008100 f i udp_func.obj
 0001:00007190       ?host_name@?$basic_resolver_query@Vudp@ip@asio@boost@@@ip@asio@boost@@QEBA?AV?$basic_string@DU?$char_traits@D@std@@V?$allocator@D@2@@std@@XZ 0000000140008190 f i udp_func.obj
 0001:000071d0       ?interrupt@socket_select_interrupter@detail@asio@boost@@QEAAXXZ 00000001400081d0 f i udp_func.obj
 0001:00007260       ?join@win_thread@detail@asio@boost@@QEAAXXZ 0000000140008260 f i udp_func.obj
 0001:000072f0       ?poll_read@socket_ops@detail@asio@boost@@YAH_KEAEAVerror_code@system@4@@Z 00000001400082f0 f i udp_func.obj
 0001:00007450       ?push_back@?$vector@V?$basic_resolver_entry@Vudp@ip@asio@boost@@@ip@asio@boost@@V?$allocator@V?$basic_resolver_entry@Vudp@ip@asio@boost@@@ip@asio@boost@@@std@@@std@@QEAAX$$QEAV?$basic_resolver_entry@Vudp@ip@asio@boost@@@ip@asio@boost@@@Z 0000000140008450 f i udp_func.obj
 0001:00007520       ?recvfrom@socket_ops@detail@asio@boost@@YAH_KPEAU_WSABUF@@0HPEAUsockaddr@@PEA_KAEAVerror_code@system@4@@Z 0000000140008520 f i udp_func.obj
 0001:00007630       ?reset@?$scoped_ptr@Vio_service@asio@boost@@@detail@asio@boost@@QEAAXPEAVio_service@34@@Z 0000000140008630 f i udp_func.obj
 0001:000076b0       ?resolve@?$basic_resolver@Vudp@ip@asio@boost@@V?$resolver_service@Vudp@ip@asio@boost@@@234@@ip@asio@boost@@QEAA?AV?$basic_resolver_iterator@Vudp@ip@asio@boost@@@234@AEBV?$basic_resolver_query@Vudp@ip@asio@boost@@@234@@Z 00000001400086b0 f i udp_func.obj
 0001:00007740       ?resolve@?$resolver_service@Vudp@ip@asio@boost@@@detail@asio@boost@@QEAA?AV?$basic_resolver_iterator@Vudp@ip@asio@boost@@@ip@34@AEAV?$shared_ptr@X@std@@AEBV?$basic_resolver_query@Vudp@ip@asio@boost@@@634@AEAVerror_code@system@4@@Z 0000000140008740 f i udp_func.obj
 0001:000079e0       ?resolve@?$resolver_service@Vudp@ip@asio@boost@@@ip@asio@boost@@QEAA?AV?$basic_resolver_iterator@Vudp@ip@asio@boost@@@234@AEAV?$shared_ptr@X@std@@AEBV?$basic_resolver_query@Vudp@ip@asio@boost@@@234@AEAVerror_code@system@4@@Z 00000001400089e0 f i udp_func.obj
 0001:00007a10       ?run@?$func@Vwork_io_service_runner@resolver_service_base@detail@asio@boost@@@win_thread@detail@asio@boost@@UEAAXXZ 0000000140008a10 f i udp_func.obj
 0001:00007a60       ?run@win_iocp_io_service@detail@asio@boost@@QEAA_KAEAVerror_code@system@4@@Z 0000000140008a60 f i udp_func.obj
 0001:00007b50       ?service_name@?$basic_resolver_query@Vudp@ip@asio@boost@@@ip@asio@boost@@QEBA?AV?$basic_string@DU?$char_traits@D@std@@V?$allocator@D@2@@std@@XZ 0000000140008b50 f i udp_func.obj
 0001:00007b90       ?shutdown_service@?$datagram_socket_service@Vudp@ip@asio@boost@@@asio@boost@@EEAAXXZ 0000000140008b90 f i udp_func.obj
 0001:00007ba0       ?shutdown_service@?$resolver_service@Vudp@ip@asio@boost@@@ip@asio@boost@@EEAAXXZ 0000000140008ba0 f i udp_func.obj
 0001:00007bb0       ?shutdown_service@resolver_service_base@detail@asio@boost@@QEAAXXZ 0000000140008bb0 f i udp_func.obj
 0001:00007c50       ?shutdown_service@win_iocp_io_service@detail@asio@boost@@UEAAXXZ 0000000140008c50 f i udp_func.obj
 0001:00007e50       ?shutdown_service@win_iocp_socket_service_base@detail@asio@boost@@QEAAXXZ 0000000140008e50 f i udp_func.obj
 0001:00007fb0       ?socket@socket_ops@detail@asio@boost@@YA_KHHHAEAVerror_code@system@4@@Z 0000000140008fb0 f i udp_func.obj
 0001:00008090       ?start_thread@win_thread@detail@asio@boost@@AEAAXPEAVfunc_base@1234@I@Z 0000000140009090 f i udp_func.obj
 0001:00008220       ?stop@win_iocp_io_service@detail@asio@boost@@QEAAXXZ 0000000140009220 f i udp_func.obj
 0001:00008290       ?sync_recvfrom@socket_ops@detail@asio@boost@@YA_K_KEPEAU_WSABUF@@0HPEAUsockaddr@@PEA_KAEAVerror_code@system@4@@Z 0000000140009290 f i udp_func.obj
 0001:000083e0       ?translate_addrinfo_error@socket_ops@detail@asio@boost@@YA?AVerror_code@system@4@H@Z 00000001400093e0 f i udp_func.obj
 0001:000084e0       ?win_thread_function@detail@asio@boost@@YAIPEAX@Z 00000001400094e0 f i udp_func.obj
 0001:00008550       ??$?0$$BY0N@$$CBD@path@filesystem@boost@@QEAA@AEAY0N@$$CBDPEAX@Z 0000000140009550 f i processply.obj
 0001:00008640       ??$?0Udir_itr_imp@detail@filesystem@boost@@@shared_count@detail@boost@@QEAA@PEAUdir_itr_imp@1filesystem@2@@Z 0000000140009640 f i processply.obj
 0001:000086b0       ??$?0V?$PointCloud@UPointXYZRGB@pcl@@@pcl@@@shared_count@detail@boost@@QEAA@PEAV?$PointCloud@UPointXYZRGB@pcl@@@pcl@@@Z 00000001400096b0 f i processply.obj
 0001:00008720       ??$?0V?$clone_impl@Ubad_alloc_@exception_detail@boost@@@exception_detail@boost@@@shared_count@detail@boost@@QEAA@PEAV?$clone_impl@Ubad_alloc_@exception_detail@boost@@@exception_detail@2@@Z 0000000140009720 f i processply.obj
 0001:00008790       ??$?0V?$clone_impl@Ubad_exception_@exception_detail@boost@@@exception_detail@boost@@@shared_count@detail@boost@@QEAA@PEAV?$clone_impl@Ubad_exception_@exception_detail@boost@@@exception_detail@2@@Z 0000000140009790 f i processply.obj
 0001:00008800       ??$?0V?$vector@HV?$allocator@H@std@@@std@@@shared_count@detail@boost@@QEAA@PEAV?$vector@HV?$allocator@H@std@@@std@@@Z 0000000140009800 f i processply.obj
 0001:00008870       ??$?0Vdirectory_iterator@filesystem@boost@@@?$iterator_range@Vdirectory_iterator@filesystem@boost@@@boost@@QEAA@Vdirectory_iterator@filesystem@1@0@Z 0000000140009870 f i processply.obj
 0001:00008970       ??$?0Vdirectory_iterator@filesystem@boost@@@?$iterator_range_base@Vdirectory_iterator@filesystem@boost@@Uincrementable_traversal_tag@iterators@3@@iterator_range_detail@boost@@IEAA@Vdirectory_iterator@filesystem@2@0@Z 0000000140009970 f i processply.obj
 0001:00008a60       ??$?6DU?$char_traits@D@std@@@filesystem@boost@@YAAEAV?$basic_ostream@DU?$char_traits@D@std@@@std@@AEAV23@AEBVpath@01@@Z 0000000140009a60 f i processply.obj
 0001:00008ad0       ??$?6DU?$char_traits@D@std@@V?$allocator@D@1@@std@@YAAEAV?$basic_ostream@DU?$char_traits@D@std@@@0@AEAV10@AEBV?$basic_string@DU?$char_traits@D@std@@V?$allocator@D@2@@0@@Z 0000000140009ad0 f i processply.obj
 0001:00008ca0       ??$?6U?$char_traits@D@std@@@std@@YAAEAV?$basic_ostream@DU?$char_traits@D@std@@@0@AEAV10@D@Z 0000000140009ca0 f i processply.obj
 0001:00008e60       ??$?RUrgb@fields@pcl@@@?$FieldAdder@UPointXYZRGB@pcl@@@detail@pcl@@QEAAXXZ 0000000140009e60 f i processply.obj
 0001:00008f00       ??$?RUrgb@fields@pcl@@@?$FieldMapper@UPointXYZRGB@pcl@@@detail@pcl@@QEAAXXZ 0000000140009f00 f i processply.obj
 0001:00008fb0       ??$?RUx@fields@pcl@@@?$FieldAdder@UPointXYZRGB@pcl@@@detail@pcl@@QEAAXXZ 0000000140009fb0 f i processply.obj
 0001:00009060       ??$?RUx@fields@pcl@@@?$FieldMapper@UPointXYZRGB@pcl@@@detail@pcl@@QEAAXXZ 000000014000a060 f i processply.obj
 0001:00009170       ??$?RUy@fields@pcl@@@?$FieldAdder@UPointXYZRGB@pcl@@@detail@pcl@@QEAAXXZ 000000014000a170 f i processply.obj
 0001:00009210       ??$?RUy@fields@pcl@@@?$FieldMapper@UPointXYZRGB@pcl@@@detail@pcl@@QEAAXXZ 000000014000a210 f i processply.obj
 0001:00009320       ??$?RUz@fields@pcl@@@?$FieldAdder@UPointXYZRGB@pcl@@@detail@pcl@@QEAAXXZ 000000014000a320 f i processply.obj
 0001:000093c0       ??$?RUz@fields@pcl@@@?$FieldMapper@UPointXYZRGB@pcl@@@detail@pcl@@QEAAXXZ 000000014000a3c0 f i processply.obj
 0001:000094d0       ??$_Adjust_heap@PEAUFieldMapping@detail@pcl@@_JU123@P6A_NAEBU123@0@Z@std@@YAXPEAUFieldMapping@detail@pcl@@_J1$$QEAU123@P6A_NAEBU123@3@Z@Z 000000014000a4d0 f i processply.obj
 0001:00009620       ??$_Copy_impl@PEAUPointXYZRGB@pcl@@PEAU12@@std@@YAPEAUPointXYZRGB@pcl@@PEAU12@00@Z 000000014000a620 f i processply.obj
 0001:00009660       ??$_Insertion_sort1@PEAUFieldMapping@detail@pcl@@P6A_NAEBU123@0@ZU123@@std@@YAXPEAUFieldMapping@detail@pcl@@0P6A_NAEBU123@1@Z0@Z 000000014000a660 f i processply.obj
 0001:000097a0       ??$_Make_heap@PEAUFieldMapping@detail@pcl@@_JU123@P6A_NAEBU123@0@Z@std@@YAXPEAUFieldMapping@detail@pcl@@0P6A_NAEBU123@1@ZPEA_J0@Z 000000014000a7a0 f i processply.obj
 0001:00009970       ??$_Med3@PEAUFieldMapping@detail@pcl@@P6A_NAEBU123@0@Z@std@@YAXPEAUFieldMapping@detail@pcl@@00P6A_NAEBU123@1@Z@Z 000000014000a970 f i processply.obj
 0001:00009a30       ??$_Median@PEAUFieldMapping@detail@pcl@@P6A_NAEBU123@0@Z@std@@YAXPEAUFieldMapping@detail@pcl@@00P6A_NAEBU123@1@Z@Z 000000014000aa30 f i processply.obj
 0001:00009b30       ??$_Sort@PEAUFieldMapping@detail@pcl@@_JP6A_NAEBU123@0@Z@std@@YAXPEAUFieldMapping@detail@pcl@@0_JP6A_NAEBU123@2@Z@Z 000000014000ab30 f i processply.obj
 0001:00009ce0       ??$_Sort_heap@PEAUFieldMapping@detail@pcl@@P6A_NAEBU123@0@Z@std@@YAXPEAUFieldMapping@detail@pcl@@0P6A_NAEBU123@1@Z@Z 000000014000ace0 f i processply.obj
 0001:00009de0       ??$_Unguarded_partition@PEAUFieldMapping@detail@pcl@@P6A_NAEBU123@0@Z@std@@YA?AU?$pair@PEAUFieldMapping@detail@pcl@@PEAU123@@0@PEAUFieldMapping@detail@pcl@@0P6A_NAEBU234@1@Z@Z 000000014000ade0 f i processply.obj
 0001:0000a0a0       ??$_Uninit_copy@PEAUPointXYZRGB@pcl@@PEAU12@V?$aligned_allocator@UPointXYZRGB@pcl@@@Eigen@@@std@@YAPEAUPointXYZRGB@pcl@@PEAU12@00AEAU?$_Wrap_alloc@V?$aligned_allocator@UPointXYZRGB@pcl@@@Eigen@@@0@U_Nonscalar_ptr_iterator_tag@0@@Z 000000014000b0a0 f i processply.obj
 0001:0000a0e0       ??$_Uninit_def_fill_n@PEAUPointXYZRGB@pcl@@_KV?$aligned_allocator@UPointXYZRGB@pcl@@@Eigen@@U12@@std@@YAXPEAUPointXYZRGB@pcl@@_KAEAU?$_Wrap_alloc@V?$aligned_allocator@UPointXYZRGB@pcl@@@Eigen@@@0@0U_Nonscalar_ptr_iterator_tag@0@@Z 000000014000b0e0 f i processply.obj
 0001:0000a120       ??$_Uninit_move@PEAUFieldMapping@detail@pcl@@PEAU123@V?$allocator@UFieldMapping@detail@pcl@@@std@@U123@@std@@YAPEAUFieldMapping@detail@pcl@@PEAU123@00AEAU?$_Wrap_alloc@V?$allocator@UFieldMapping@detail@pcl@@@std@@@0@0U_Nonscalar_ptr_iterator_tag@0@@Z 000000014000b120 f i processply.obj
 0001:0000a160       ??$_Uninit_move@PEAUPCLPointField@pcl@@PEAU12@V?$allocator@UPCLPointField@pcl@@@std@@U12@@std@@YAPEAUPCLPointField@pcl@@PEAU12@00AEAU?$_Wrap_alloc@V?$allocator@UPCLPointField@pcl@@@std@@@0@0U_Nonscalar_ptr_iterator_tag@0@@Z 000000014000b160 f i processply.obj
 0001:0000a1f0       ??$_Uninit_move@PEAUPointXYZRGB@pcl@@PEAU12@V?$aligned_allocator@UPointXYZRGB@pcl@@@Eigen@@U12@@std@@YAPEAUPointXYZRGB@pcl@@PEAU12@00AEAU?$_Wrap_alloc@V?$aligned_allocator@UPointXYZRGB@pcl@@@Eigen@@@0@0U_Nonscalar_ptr_iterator_tag@0@@Z 000000014000b1f0 f i processply.obj
 0001:0000a230       ??$basic_string_inserter_imp@DU?$char_traits@D@std@@V?$allocator@D@2@@detail@io@boost@@YAAEAV?$basic_ostream@DU?$char_traits@D@std@@@std@@AEAV34@AEBV?$basic_string@DU?$char_traits@D@std@@V?$allocator@D@2@@4@DD@Z 000000014000b230 f i processply.obj
 0001:0000a300       ??$begin@Vdirectory_iterator@filesystem@boost@@@range_adl_barrier@boost@@YA?AVdirectory_iterator@filesystem@1@AEBV231@@Z 000000014000b300 f i processply.obj
 0001:0000a320       ??$checked_delete@Udir_itr_imp@detail@filesystem@boost@@@boost@@YAXPEAUdir_itr_imp@detail@filesystem@0@@Z 000000014000b320 f i processply.obj
 0001:0000a380       ??$checked_delete@V?$vector@EV?$allocator@E@std@@@std@@@boost@@YAXPEAV?$vector@EV?$allocator@E@std@@@std@@@Z 000000014000b380 f i festo_udp_func.obj
 0001:0000a380       ??$checked_delete@V?$vector@HV?$allocator@H@std@@@std@@@boost@@YAXPEAV?$vector@HV?$allocator@H@std@@@std@@@Z 000000014000b380 f i processply.obj
 0001:0000a3c0       ??$copyPointCloud@UPointXYZRGB@pcl@@U12@@pcl@@YAXAEBV?$PointCloud@UPointXYZRGB@pcl@@@0@AEAV10@@Z 000000014000b3c0 f i processply.obj
 0001:0000a4e0       ??$createMapping@UPointXYZRGB@pcl@@@pcl@@YAXAEBV?$vector@UPCLPointField@pcl@@V?$allocator@UPCLPointField@pcl@@@std@@@std@@AEAV?$vector@UFieldMapping@detail@pcl@@V?$allocator@UFieldMapping@detail@pcl@@@std@@@2@@Z 000000014000b4e0 f i processply.obj
 0001:0000a630       ??$destroy@UPCLPointField@pcl@@@?$_Wrap_alloc@V?$allocator@UPCLPointField@pcl@@@std@@@std@@QEAAXPEAUPCLPointField@pcl@@@Z 000000014000b630 f i processply.obj
 0001:0000a670       ??$end@Vdirectory_iterator@filesystem@boost@@@range_adl_barrier@boost@@YA?AVdirectory_iterator@filesystem@1@AEBV231@@Z 000000014000b670 f i processply.obj
 0001:0000a690       ??$fromPCLPointCloud2@UPointXYZRGB@pcl@@@pcl@@YAXAEBUPCLPointCloud2@0@AEAV?$PointCloud@UPointXYZRGB@pcl@@@0@AEBV?$vector@UFieldMapping@detail@pcl@@V?$allocator@UFieldMapping@detail@pcl@@@std@@@std@@@Z 000000014000b690 f i processply.obj
 0001:0000a870       ??$get_static_exception_object@Ubad_alloc_@exception_detail@boost@@@exception_detail@boost@@YA?AVexception_ptr@1@XZ 000000014000b870 f i processply.obj
 0001:0000aca0       ??$get_static_exception_object@Ubad_exception_@exception_detail@boost@@@exception_detail@boost@@YA?AVexception_ptr@1@XZ 000000014000bca0 f i processply.obj
 0001:0000b0d0       ??$loadPLYFile@UPointXYZRGB@pcl@@@io@pcl@@YAHAEBV?$basic_string@DU?$char_traits@D@std@@V?$allocator@D@2@@std@@AEAV?$PointCloud@UPointXYZRGB@pcl@@@1@@Z 000000014000c0d0 f i processply.obj
 0001:0000b200       ??$make_iterator_range@Vdirectory_iterator@filesystem@boost@@@boost@@YA?AV?$iterator_range@Vdirectory_iterator@filesystem@boost@@@0@AEBVdirectory_iterator@filesystem@0@_J1@Z 000000014000c200 f i processply.obj
 0001:0000b220       ??$make_iterator_range@Vdirectory_iterator@filesystem@boost@@@boost@@YA?AV?$iterator_range@Vdirectory_iterator@filesystem@boost@@@0@Vdirectory_iterator@filesystem@0@0@Z 000000014000c220 f i processply.obj
 0001:0000b3e0       ??$make_range_impl@$$CBVdirectory_iterator@filesystem@boost@@@iterator_range_detail@boost@@YA?AV?$iterator_range@Vdirectory_iterator@filesystem@boost@@@1@AEBVdirectory_iterator@filesystem@1@_J1@Z 000000014000c3e0 f i processply.obj
 0001:0000b550       ??$read@UPointXYZRGB@pcl@@@PLYReader@pcl@@QEAAHAEBV?$basic_string@DU?$char_traits@D@std@@V?$allocator@D@2@@std@@AEAV?$PointCloud@UPointXYZRGB@pcl@@@1@H@Z 000000014000c550 f i processply.obj
 0001:0000b680       ??$sp_pointer_construct@Udir_itr_imp@detail@filesystem@boost@@U1234@@detail@boost@@YAXPEAV?$shared_ptr@Udir_itr_imp@detail@filesystem@boost@@@1@PEAUdir_itr_imp@0filesystem@1@AEAVshared_count@01@@Z 000000014000c680 f i processply.obj
 0001:0000b710       ??$sp_pointer_construct@V?$vector@HV?$allocator@H@std@@@std@@V12@@detail@boost@@YAXPEAV?$shared_ptr@V?$vector@HV?$allocator@H@std@@@std@@@1@PEAV?$vector@HV?$allocator@H@std@@@std@@AEAVshared_count@01@@Z 000000014000c710 f i processply.obj
 0001:0000b7a0       ??$string@V?$basic_string@DU?$char_traits@D@std@@V?$allocator@D@2@@std@@@path@filesystem@boost@@QEBA?AV?$basic_string@DU?$char_traits@D@std@@V?$allocator@D@2@@std@@XZ 000000014000c7a0 f i processply.obj
 0001:0000b7c0       ??$toPCLPointCloud2@UPointXYZRGB@pcl@@@pcl@@YAXAEBV?$PointCloud@UPointXYZRGB@pcl@@@0@AEAUPCLPointCloud2@0@@Z 000000014000c7c0 f i processply.obj
 0001:0000b8e0       ??$write@UPointXYZRGB@pcl@@@PLYWriter@pcl@@QEAAHAEBV?$basic_string@DU?$char_traits@D@std@@V?$allocator@D@2@@std@@AEBV?$PointCloud@UPointXYZRGB@pcl@@@1@_N2@Z 000000014000c8e0 f i processply.obj
 0001:0000ba10       ??0?$clone_impl@Ubad_alloc_@exception_detail@boost@@@exception_detail@boost@@QEAA@AEBV012@@Z 000000014000ca10 f i processply.obj
 0001:0000baa0       ??0?$clone_impl@Ubad_exception_@exception_detail@boost@@@exception_detail@boost@@QEAA@AEBV012@@Z 000000014000caa0 f i processply.obj
 0001:0000bb30       ??0Pointcloud@@QEAA@XZ     000000014000cb30 f   processply.obj
 0001:0000bbd0       ??0bad_alloc@std@@QEAA@AEBV01@@Z 000000014000cbd0 f i processply.obj
 0001:0000bc00       ??0bad_alloc_@exception_detail@boost@@QEAA@AEBU012@@Z 000000014000cc00 f i processply.obj
 0001:0000bc90       ??0bad_exception@std@@QEAA@AEBV01@@Z 000000014000cc90 f i processply.obj
 0001:0000bcc0       ??0bad_exception_@exception_detail@boost@@QEAA@AEBU012@@Z 000000014000ccc0 f i processply.obj
 0001:0000bd50       ??0ply_parser@ply@io@pcl@@QEAA@XZ 000000014000cd50 f i processply.obj
 0001:0000be80       ??1?$Filter@UPointXYZRGB@pcl@@@pcl@@UEAA@XZ 000000014000ce80 f i processply.obj
 0001:0000bf20       ??1?$FilterIndices@UPointXYZRGB@pcl@@@pcl@@UEAA@XZ 000000014000cf20 f i processply.obj
 0001:0000bf30       ??1?$PCLBase@UPointXYZRGB@pcl@@@pcl@@UEAA@XZ 000000014000cf30 f i processply.obj
 0001:0000c060       ??1?$PointCloud@UPointXYZRGB@pcl@@@pcl@@UEAA@XZ 000000014000d060 f i processply.obj
 0001:0000c110       ??1?$StatisticalOutlierRemoval@UPointXYZRGB@pcl@@@pcl@@UEAA@XZ 000000014000d110 f i processply.obj
 0001:0000c190       ??1?$clone_impl@Ubad_alloc_@exception_detail@boost@@@exception_detail@boost@@UEAA@XZ 000000014000d190 f i processply.obj
 0001:0000c220       ??1?$clone_impl@Ubad_exception_@exception_detail@boost@@@exception_detail@boost@@UEAA@XZ 000000014000d220 f i processply.obj
 0001:0000c2b0       ??1?$callbacks_element@U?$pair@EC@mpl@boost@@@list_property_definition_callbacks_type@ply_parser@ply@io@pcl@@QEAA@XZ 000000014000d2b0 f i processply.obj
 0001:0000c2b0       ??1?$function@$$A6AXXZ@boost@@QEAA@XZ 000000014000d2b0 f i processply.obj
 0001:0000c2b0       ??1?$callbacks_element@C@scalar_property_definition_callbacks_type@ply_parser@ply@io@pcl@@QEAA@XZ 000000014000d2b0 f i processply.obj
 0001:0000c2b0       ??1?$function@$$A6A?AV?$tuple@V?$function@$$A6AXXZ@boost@@V12@Unull_type@tuples@2@U342@U342@U342@U342@U342@U342@U342@@tuples@boost@@AEBV?$basic_string@DU?$char_traits@D@std@@V?$allocator@D@2@@std@@_K@Z@boost@@QEAA@XZ 000000014000d2b0 f i processply.obj
 0001:0000c2b0       ??1?$function@$$A6AXHAEBV?$basic_string@DU?$char_traits@D@std@@V?$allocator@D@2@@std@@@Z@boost@@QEAA@XZ 000000014000d2b0 f i processply.obj
 0001:0000c2b0       ??1?$function@$$A6AX_KAEBV?$basic_string@DU?$char_traits@D@std@@V?$allocator@D@2@@std@@@Z@boost@@QEAA@XZ 000000014000d2b0 f i processply.obj
 0001:0000c2b0       ??1?$function@$$A6AXAEBV?$basic_string@DU?$char_traits@D@std@@V?$allocator@D@2@@std@@@Z@boost@@QEAA@XZ 000000014000d2b0 f i processply.obj
 0001:0000c2f0       ??1?$inherit2@U?$callbacks_element@C@scalar_property_definition_callbacks_type@ply_parser@ply@io@pcl@@U?$callbacks_element@F@23456@@mpl@boost@@QEAA@XZ 000000014000d2f0 f i processply.obj
 0001:0000c370       ??1?$inherit2@U?$callbacks_element@U?$pair@EC@mpl@boost@@@list_property_definition_callbacks_type@ply_parser@ply@io@pcl@@U?$callbacks_element@U?$pair@EF@mpl@boost@@@23456@@mpl@boost@@QEAA@XZ 000000014000d370 f i processply.obj
 0001:0000c3f0       ??1?$inherit2@U?$inherit2@U?$callbacks_element@C@scalar_property_definition_callbacks_type@ply_parser@ply@io@pcl@@U?$callbacks_element@F@23456@@mpl@boost@@U?$callbacks_element@H@scalar_property_definition_callbacks_type@ply_parser@ply@io@pcl@@@mpl@boost@@QEAA@XZ 000000014000d3f0 f i processply.obj
 0001:0000c450       ??1?$inherit2@U?$inherit2@U?$callbacks_element@U?$pair@EC@mpl@boost@@@list_property_definition_callbacks_type@ply_parser@ply@io@pcl@@U?$callbacks_element@U?$pair@EF@mpl@boost@@@23456@@mpl@boost@@U?$callbacks_element@U?$pair@EH@mpl@boost@@@list_property_definition_callbacks_type@ply_parser@ply@io@pcl@@@mpl@boost@@QEAA@XZ 000000014000d450 f i processply.obj
 0001:0000c4b0       ??1?$inherit2@U?$inherit2@U?$inherit2@U?$callbacks_element@C@scalar_property_definition_callbacks_type@ply_parser@ply@io@pcl@@U?$callbacks_element@F@23456@@mpl@boost@@U?$callbacks_element@H@scalar_property_definition_callbacks_type@ply_parser@ply@io@pcl@@@mpl@boost@@U?$callbacks_element@E@scalar_property_definition_callbacks_type@ply_parser@ply@io@pcl@@@mpl@boost@@QEAA@XZ 000000014000d4b0 f i processply.obj
 0001:0000c540       ??1?$inherit2@U?$inherit2@U?$inherit2@U?$callbacks_element@U?$pair@EC@mpl@boost@@@list_property_definition_callbacks_type@ply_parser@ply@io@pcl@@U?$callbacks_element@U?$pair@EF@mpl@boost@@@23456@@mpl@boost@@U?$callbacks_element@U?$pair@EH@mpl@boost@@@list_property_definition_callbacks_type@ply_parser@ply@io@pcl@@@mpl@boost@@U?$callbacks_element@U?$pair@EE@mpl@boost@@@list_property_definition_callbacks_type@ply_parser@ply@io@pcl@@@mpl@boost@@QEAA@XZ 000000014000d540 f i processply.obj
 0001:0000c5d0       ??1?$inherit2@U?$inherit2@U?$inherit2@U?$inherit2@U?$callbacks_element@C@scalar_property_definition_callbacks_type@ply_parser@ply@io@pcl@@U?$callbacks_element@F@23456@@mpl@boost@@U?$callbacks_element@H@scalar_property_definition_callbacks_type@ply_parser@ply@io@pcl@@@mpl@boost@@U?$callbacks_element@E@scalar_property_definition_callbacks_type@ply_parser@ply@io@pcl@@@mpl@boost@@U?$callbacks_element@G@scalar_property_definition_callbacks_type@ply_parser@ply@io@pcl@@@mpl@boost@@QEAA@XZ 000000014000d5d0 f i processply.obj
 0001:0000c630       ??1?$inherit2@U?$inherit2@U?$inherit2@U?$inherit2@U?$callbacks_element@U?$pair@EC@mpl@boost@@@list_property_definition_callbacks_type@ply_parser@ply@io@pcl@@U?$callbacks_element@U?$pair@EF@mpl@boost@@@23456@@mpl@boost@@U?$callbacks_element@U?$pair@EH@mpl@boost@@@list_property_definition_callbacks_type@ply_parser@ply@io@pcl@@@mpl@boost@@U?$callbacks_element@U?$pair@EE@mpl@boost@@@list_property_definition_callbacks_type@ply_parser@ply@io@pcl@@@mpl@boost@@U?$callbacks_element@U?$pair@EG@mpl@boost@@@list_property_definition_callbacks_type@ply_parser@ply@io@pcl@@@mpl@boost@@QEAA@XZ 000000014000d630 f i processply.obj
 0001:0000c690       ??1?$inherit2@U?$inherit2@U?$inherit2@U?$inherit2@U?$inherit2@U?$callbacks_element@C@scalar_property_definition_callbacks_type@ply_parser@ply@io@pcl@@U?$callbacks_element@F@23456@@mpl@boost@@U?$callbacks_element@H@scalar_property_definition_callbacks_type@ply_parser@ply@io@pcl@@@mpl@boost@@U?$callbacks_element@E@scalar_property_definition_callbacks_type@ply_parser@ply@io@pcl@@@mpl@boost@@U?$callbacks_element@G@scalar_property_definition_callbacks_type@ply_parser@ply@io@pcl@@@mpl@boost@@U?$callbacks_element@I@scalar_property_definition_callbacks_type@ply_parser@ply@io@pcl@@@mpl@boost@@QEAA@XZ 000000014000d690 f i processply.obj
 0001:0000c730       ??1?$inherit2@U?$inherit2@U?$inherit2@U?$inherit2@U?$inherit2@U?$callbacks_element@U?$pair@EC@mpl@boost@@@list_property_definition_callbacks_type@ply_parser@ply@io@pcl@@U?$callbacks_element@U?$pair@EF@mpl@boost@@@23456@@mpl@boost@@U?$callbacks_element@U?$pair@EH@mpl@boost@@@list_property_definition_callbacks_type@ply_parser@ply@io@pcl@@@mpl@boost@@U?$callbacks_element@U?$pair@EE@mpl@boost@@@list_property_definition_callbacks_type@ply_parser@ply@io@pcl@@@mpl@boost@@U?$callbacks_element@U?$pair@EG@mpl@boost@@@list_property_definition_callbacks_type@ply_parser@ply@io@pcl@@@mpl@boost@@U?$callbacks_element@U?$pair@EI@mpl@boost@@@list_property_definition_callbacks_type@ply_parser@ply@io@pcl@@@mpl@boost@@QEAA@XZ 000000014000d730 f i processply.obj
 0001:0000c7d0       ??1?$inherit2@U?$inherit2@U?$inherit2@U?$inherit2@U?$inherit2@U?$inherit2@U?$callbacks_element@C@scalar_property_definition_callbacks_type@ply_parser@ply@io@pcl@@U?$callbacks_element@F@23456@@mpl@boost@@U?$callbacks_element@H@scalar_property_definition_callbacks_type@ply_parser@ply@io@pcl@@@mpl@boost@@U?$callbacks_element@E@scalar_property_definition_callbacks_type@ply_parser@ply@io@pcl@@@mpl@boost@@U?$callbacks_element@G@scalar_property_definition_callbacks_type@ply_parser@ply@io@pcl@@@mpl@boost@@U?$callbacks_element@I@scalar_property_definition_callbacks_type@ply_parser@ply@io@pcl@@@mpl@boost@@U?$callbacks_element@M@scalar_property_definition_callbacks_type@ply_parser@ply@io@pcl@@@mpl@boost@@QEAA@XZ 000000014000d7d0 f i processply.obj
 0001:0000c830       ??1?$inherit2@U?$inherit2@U?$inherit2@U?$inherit2@U?$inherit2@U?$inherit2@U?$callbacks_element@U?$pair@EC@mpl@boost@@@list_property_definition_callbacks_type@ply_parser@ply@io@pcl@@U?$callbacks_element@U?$pair@EF@mpl@boost@@@23456@@mpl@boost@@U?$callbacks_element@U?$pair@EH@mpl@boost@@@list_property_definition_callbacks_type@ply_parser@ply@io@pcl@@@mpl@boost@@U?$callbacks_element@U?$pair@EE@mpl@boost@@@list_property_definition_callbacks_type@ply_parser@ply@io@pcl@@@mpl@boost@@U?$callbacks_element@U?$pair@EG@mpl@boost@@@list_property_definition_callbacks_type@ply_parser@ply@io@pcl@@@mpl@boost@@U?$callbacks_element@U?$pair@EI@mpl@boost@@@list_property_definition_callbacks_type@ply_parser@ply@io@pcl@@@mpl@boost@@U?$callbacks_element@U?$pair@EM@mpl@boost@@@list_property_definition_callbacks_type@ply_parser@ply@io@pcl@@@mpl@boost@@QEAA@XZ 000000014000d830 f i processply.obj
 0001:0000c890       ??1?$inherit2@U?$inherit2@U?$inherit2@U?$inherit2@U?$inherit2@U?$inherit2@U?$inherit2@U?$callbacks_element@C@scalar_property_definition_callbacks_type@ply_parser@ply@io@pcl@@U?$callbacks_element@F@23456@@mpl@boost@@U?$callbacks_element@H@scalar_property_definition_callbacks_type@ply_parser@ply@io@pcl@@@mpl@boost@@U?$callbacks_element@E@scalar_property_definition_callbacks_type@ply_parser@ply@io@pcl@@@mpl@boost@@U?$callbacks_element@G@scalar_property_definition_callbacks_type@ply_parser@ply@io@pcl@@@mpl@boost@@U?$callbacks_element@I@scalar_property_definition_callbacks_type@ply_parser@ply@io@pcl@@@mpl@boost@@U?$callbacks_element@M@scalar_property_definition_callbacks_type@ply_parser@ply@io@pcl@@@mpl@boost@@U?$callbacks_element@N@scalar_property_definition_callbacks_type@ply_parser@ply@io@pcl@@@mpl@boost@@QEAA@XZ 000000014000d890 f i processply.obj
 0001:0000c930       ??1?$inherit2@U?$inherit2@U?$inherit2@U?$inherit2@U?$inherit2@U?$inherit2@U?$inherit2@U?$callbacks_element@U?$pair@EC@mpl@boost@@@list_property_definition_callbacks_type@ply_parser@ply@io@pcl@@U?$callbacks_element@U?$pair@EF@mpl@boost@@@23456@@mpl@boost@@U?$callbacks_element@U?$pair@EH@mpl@boost@@@list_property_definition_callbacks_type@ply_parser@ply@io@pcl@@@mpl@boost@@U?$callbacks_element@U?$pair@EE@mpl@boost@@@list_property_definition_callbacks_type@ply_parser@ply@io@pcl@@@mpl@boost@@U?$callbacks_element@U?$pair@EG@mpl@boost@@@list_property_definition_callbacks_type@ply_parser@ply@io@pcl@@@mpl@boost@@U?$callbacks_element@U?$pair@EI@mpl@boost@@@list_property_definition_callbacks_type@ply_parser@ply@io@pcl@@@mpl@boost@@U?$callbacks_element@U?$pair@EM@mpl@boost@@@list_property_definition_callbacks_type@ply_parser@ply@io@pcl@@@mpl@boost@@U?$callbacks_element@U?$pair@EN@mpl@boost@@@list_property_definition_callbacks_type@ply_parser@ply@io@pcl@@@mpl@boost@@QEAA@XZ 000000014000d930 f i processply.obj
 0001:0000c9d0       ??1?$inherit2@U?$inherit2@U?$inherit2@U?$inherit2@U?$inherit2@U?$inherit2@U?$inherit2@U?$inherit2@U?$callbacks_element@U?$pair@EC@mpl@boost@@@list_property_definition_callbacks_type@ply_parser@ply@io@pcl@@U?$callbacks_element@U?$pair@EF@mpl@boost@@@23456@@mpl@boost@@U?$callbacks_element@U?$pair@EH@mpl@boost@@@list_property_definition_callbacks_type@ply_parser@ply@io@pcl@@@mpl@boost@@U?$callbacks_element@U?$pair@EE@mpl@boost@@@list_property_definition_callbacks_type@ply_parser@ply@io@pcl@@@mpl@boost@@U?$callbacks_element@U?$pair@EG@mpl@boost@@@list_property_definition_callbacks_type@ply_parser@ply@io@pcl@@@mpl@boost@@U?$callbacks_element@U?$pair@EI@mpl@boost@@@list_property_definition_callbacks_type@ply_parser@ply@io@pcl@@@mpl@boost@@U?$callbacks_element@U?$pair@EM@mpl@boost@@@list_property_definition_callbacks_type@ply_parser@ply@io@pcl@@@mpl@boost@@U?$callbacks_element@U?$pair@EN@mpl@boost@@@list_property_definition_callbacks_type@ply_parser@ply@io@pcl@@@mpl@boost@@U?$callbacks_element@U?$pair@GC@mpl@boost@@@list_property_definition_callbacks_type@ply_parser@ply@io@pcl@@@mpl@boost@@QEAA@XZ 000000014000d9d0 f i processply.obj
 0001:0000ca30       ??1?$inherit2@U?$inherit2@U?$inherit2@U?$inherit2@U?$inherit2@U?$inherit2@U?$inherit2@U?$inherit2@U?$inherit2@U?$callbacks_element@U?$pair@EC@mpl@boost@@@list_property_definition_callbacks_type@ply_parser@ply@io@pcl@@U?$callbacks_element@U?$pair@EF@mpl@boost@@@23456@@mpl@boost@@U?$callbacks_element@U?$pair@EH@mpl@boost@@@list_property_definition_callbacks_type@ply_parser@ply@io@pcl@@@mpl@boost@@U?$callbacks_element@U?$pair@EE@mpl@boost@@@list_property_definition_callbacks_type@ply_parser@ply@io@pcl@@@mpl@boost@@U?$callbacks_element@U?$pair@EG@mpl@boost@@@list_property_definition_callbacks_type@ply_parser@ply@io@pcl@@@mpl@boost@@U?$callbacks_element@U?$pair@EI@mpl@boost@@@list_property_definition_callbacks_type@ply_parser@ply@io@pcl@@@mpl@boost@@U?$callbacks_element@U?$pair@EM@mpl@boost@@@list_property_definition_callbacks_type@ply_parser@ply@io@pcl@@@mpl@boost@@U?$callbacks_element@U?$pair@EN@mpl@boost@@@list_property_definition_callbacks_type@ply_parser@ply@io@pcl@@@mpl@boost@@U?$callbacks_element@U?$pair@GC@mpl@boost@@@list_property_definition_callbacks_type@ply_parser@ply@io@pcl@@@mpl@boost@@U?$callbacks_element@U?$pair@GF@mpl@boost@@@list_property_definition_callbacks_type@ply_parser@ply@io@pcl@@@mpl@boost@@QEAA@XZ 000000014000da30 f i processply.obj
 0001:0000cad0       ??1?$inherit2@U?$inherit2@U?$inherit2@U?$inherit2@U?$inherit2@U?$inherit2@U?$inherit2@U?$inherit2@U?$inherit2@U?$inherit2@U?$callbacks_element@U?$pair@EC@mpl@boost@@@list_property_definition_callbacks_type@ply_parser@ply@io@pcl@@U?$callbacks_element@U?$pair@EF@mpl@boost@@@23456@@mpl@boost@@U?$callbacks_element@U?$pair@EH@mpl@boost@@@list_property_definition_callbacks_type@ply_parser@ply@io@pcl@@@mpl@boost@@U?$callbacks_element@U?$pair@EE@mpl@boost@@@list_property_definition_callbacks_type@ply_parser@ply@io@pcl@@@mpl@boost@@U?$callbacks_element@U?$pair@EG@mpl@boost@@@list_property_definition_callbacks_type@ply_parser@ply@io@pcl@@@mpl@boost@@U?$callbacks_element@U?$pair@EI@mpl@boost@@@list_property_definition_callbacks_type@ply_parser@ply@io@pcl@@@mpl@boost@@U?$callbacks_element@U?$pair@EM@mpl@boost@@@list_property_definition_callbacks_type@ply_parser@ply@io@pcl@@@mpl@boost@@U?$callbacks_element@U?$pair@EN@mpl@boost@@@list_property_definition_callbacks_type@ply_parser@ply@io@pcl@@@mpl@boost@@U?$callbacks_element@U?$pair@GC@mpl@boost@@@list_property_definition_callbacks_type@ply_parser@ply@io@pcl@@@mpl@boost@@U?$callbacks_element@U?$pair@GF@mpl@boost@@@list_property_definition_callbacks_type@ply_parser@ply@io@pcl@@@mpl@boost@@U?$callbacks_element@U?$pair@GH@mpl@boost@@@list_property_definition_callbacks_type@ply_parser@ply@io@pcl@@@mpl@boost@@QEAA@XZ 000000014000dad0 f i processply.obj
 0001:0000cb30       ??1?$inherit2@U?$inherit2@U?$inherit2@U?$inherit2@U?$inherit2@U?$inherit2@U?$inherit2@U?$inherit2@U?$inherit2@U?$inherit2@U?$inherit2@U?$callbacks_element@U?$pair@EC@mpl@boost@@@list_property_definition_callbacks_type@ply_parser@ply@io@pcl@@U?$callbacks_element@U?$pair@EF@mpl@boost@@@23456@@mpl@boost@@U?$callbacks_element@U?$pair@EH@mpl@boost@@@list_property_definition_callbacks_type@ply_parser@ply@io@pcl@@@mpl@boost@@U?$callbacks_element@U?$pair@EE@mpl@boost@@@list_property_definition_callbacks_type@ply_parser@ply@io@pcl@@@mpl@boost@@U?$callbacks_element@U?$pair@EG@mpl@boost@@@list_property_definition_callbacks_type@ply_parser@ply@io@pcl@@@mpl@boost@@U?$callbacks_element@U?$pair@EI@mpl@boost@@@list_property_definition_callbacks_type@ply_parser@ply@io@pcl@@@mpl@boost@@U?$callbacks_element@U?$pair@EM@mpl@boost@@@list_property_definition_callbacks_type@ply_parser@ply@io@pcl@@@mpl@boost@@U?$callbacks_element@U?$pair@EN@mpl@boost@@@list_property_definition_callbacks_type@ply_parser@ply@io@pcl@@@mpl@boost@@U?$callbacks_element@U?$pair@GC@mpl@boost@@@list_property_definition_callbacks_type@ply_parser@ply@io@pcl@@@mpl@boost@@U?$callbacks_element@U?$pair@GF@mpl@boost@@@list_property_definition_callbacks_type@ply_parser@ply@io@pcl@@@mpl@boost@@U?$callbacks_element@U?$pair@GH@mpl@boost@@@list_property_definition_callbacks_type@ply_parser@ply@io@pcl@@@mpl@boost@@U?$callbacks_element@U?$pair@GE@mpl@boost@@@list_property_definition_callbacks_type@ply_parser@ply@io@pcl@@@mpl@boost@@QEAA@XZ 000000014000db30 f i processply.obj
 0001:0000cbd0       ??1?$inherit2@U?$inherit2@U?$inherit2@U?$inherit2@U?$inherit2@U?$inherit2@U?$inherit2@U?$inherit2@U?$inherit2@U?$inherit2@U?$inherit2@U?$inherit2@U?$callbacks_element@U?$pair@EC@mpl@boost@@@list_property_definition_callbacks_type@ply_parser@ply@io@pcl@@U?$callbacks_element@U?$pair@EF@mpl@boost@@@23456@@mpl@boost@@U?$callbacks_element@U?$pair@EH@mpl@boost@@@list_property_definition_callbacks_type@ply_parser@ply@io@pcl@@@mpl@boost@@U?$callbacks_element@U?$pair@EE@mpl@boost@@@list_property_definition_callbacks_type@ply_parser@ply@io@pcl@@@mpl@boost@@U?$callbacks_element@U?$pair@EG@mpl@boost@@@list_property_definition_callbacks_type@ply_parser@ply@io@pcl@@@mpl@boost@@U?$callbacks_element@U?$pair@EI@mpl@boost@@@list_property_definition_callbacks_type@ply_parser@ply@io@pcl@@@mpl@boost@@U?$callbacks_element@U?$pair@EM@mpl@boost@@@list_property_definition_callbacks_type@ply_parser@ply@io@pcl@@@mpl@boost@@U?$callbacks_element@U?$pair@EN@mpl@boost@@@list_property_definition_callbacks_type@ply_parser@ply@io@pcl@@@mpl@boost@@U?$callbacks_element@U?$pair@GC@mpl@boost@@@list_property_definition_callbacks_type@ply_parser@ply@io@pcl@@@mpl@boost@@U?$callbacks_element@U?$pair@GF@mpl@boost@@@list_property_definition_callbacks_type@ply_parser@ply@io@pcl@@@mpl@boost@@U?$callbacks_element@U?$pair@GH@mpl@boost@@@list_property_definition_callbacks_type@ply_parser@ply@io@pcl@@@mpl@boost@@U?$callbacks_element@U?$pair@GE@mpl@boost@@@list_property_definition_callbacks_type@ply_parser@ply@io@pcl@@@mpl@boost@@U?$callbacks_element@U?$pair@GG@mpl@boost@@@list_property_definition_callbacks_type@ply_parser@ply@io@pcl@@@mpl@boost@@QEAA@XZ 000000014000dbd0 f i processply.obj
 0001:0000cc30       ??1?$inherit2@U?$inherit2@U?$inherit2@U?$inherit2@U?$inherit2@U?$inherit2@U?$inherit2@U?$inherit2@U?$inherit2@U?$inherit2@U?$inherit2@U?$inherit2@U?$inherit2@U?$callbacks_element@U?$pair@EC@mpl@boost@@@list_property_definition_callbacks_type@ply_parser@ply@io@pcl@@U?$callbacks_element@U?$pair@EF@mpl@boost@@@23456@@mpl@boost@@U?$callbacks_element@U?$pair@EH@mpl@boost@@@list_property_definition_callbacks_type@ply_parser@ply@io@pcl@@@mpl@boost@@U?$callbacks_element@U?$pair@EE@mpl@boost@@@list_property_definition_callbacks_type@ply_parser@ply@io@pcl@@@mpl@boost@@U?$callbacks_element@U?$pair@EG@mpl@boost@@@list_property_definition_callbacks_type@ply_parser@ply@io@pcl@@@mpl@boost@@U?$callbacks_element@U?$pair@EI@mpl@boost@@@list_property_definition_callbacks_type@ply_parser@ply@io@pcl@@@mpl@boost@@U?$callbacks_element@U?$pair@EM@mpl@boost@@@list_property_definition_callbacks_type@ply_parser@ply@io@pcl@@@mpl@boost@@U?$callbacks_element@U?$pair@EN@mpl@boost@@@list_property_definition_callbacks_type@ply_parser@ply@io@pcl@@@mpl@boost@@U?$callbacks_element@U?$pair@GC@mpl@boost@@@list_property_definition_callbacks_type@ply_parser@ply@io@pcl@@@mpl@boost@@U?$callbacks_element@U?$pair@GF@mpl@boost@@@list_property_definition_callbacks_type@ply_parser@ply@io@pcl@@@mpl@boost@@U?$callbacks_element@U?$pair@GH@mpl@boost@@@list_property_definition_callbacks_type@ply_parser@ply@io@pcl@@@mpl@boost@@U?$callbacks_element@U?$pair@GE@mpl@boost@@@list_property_definition_callbacks_type@ply_parser@ply@io@pcl@@@mpl@boost@@U?$callbacks_element@U?$pair@GG@mpl@boost@@@list_property_definition_callbacks_type@ply_parser@ply@io@pcl@@@mpl@boost@@U?$callbacks_element@U?$pair@GI@mpl@boost@@@list_property_definition_callbacks_type@ply_parser@ply@io@pcl@@@mpl@boost@@QEAA@XZ 000000014000dc30 f i processply.obj
 0001:0000ccd0       ??1?$inherit2@U?$inherit2@U?$inherit2@U?$inherit2@U?$inherit2@U?$inherit2@U?$inherit2@U?$inherit2@U?$inherit2@U?$inherit2@U?$inherit2@U?$inherit2@U?$inherit2@U?$inherit2@U?$callbacks_element@U?$pair@EC@mpl@boost@@@list_property_definition_callbacks_type@ply_parser@ply@io@pcl@@U?$callbacks_element@U?$pair@EF@mpl@boost@@@23456@@mpl@boost@@U?$callbacks_element@U?$pair@EH@mpl@boost@@@list_property_definition_callbacks_type@ply_parser@ply@io@pcl@@@mpl@boost@@U?$callbacks_element@U?$pair@EE@mpl@boost@@@list_property_definition_callbacks_type@ply_parser@ply@io@pcl@@@mpl@boost@@U?$callbacks_element@U?$pair@EG@mpl@boost@@@list_property_definition_callbacks_type@ply_parser@ply@io@pcl@@@mpl@boost@@U?$callbacks_element@U?$pair@EI@mpl@boost@@@list_property_definition_callbacks_type@ply_parser@ply@io@pcl@@@mpl@boost@@U?$callbacks_element@U?$pair@EM@mpl@boost@@@list_property_definition_callbacks_type@ply_parser@ply@io@pcl@@@mpl@boost@@U?$callbacks_element@U?$pair@EN@mpl@boost@@@list_property_definition_callbacks_type@ply_parser@ply@io@pcl@@@mpl@boost@@U?$callbacks_element@U?$pair@GC@mpl@boost@@@list_property_definition_callbacks_type@ply_parser@ply@io@pcl@@@mpl@boost@@U?$callbacks_element@U?$pair@GF@mpl@boost@@@list_property_definition_callbacks_type@ply_parser@ply@io@pcl@@@mpl@boost@@U?$callbacks_element@U?$pair@GH@mpl@boost@@@list_property_definition_callbacks_type@ply_parser@ply@io@pcl@@@mpl@boost@@U?$callbacks_element@U?$pair@GE@mpl@boost@@@list_property_definition_callbacks_type@ply_parser@ply@io@pcl@@@mpl@boost@@U?$callbacks_element@U?$pair@GG@mpl@boost@@@list_property_definition_callbacks_type@ply_parser@ply@io@pcl@@@mpl@boost@@U?$callbacks_element@U?$pair@GI@mpl@boost@@@list_property_definition_callbacks_type@ply_parser@ply@io@pcl@@@mpl@boost@@U?$callbacks_element@U?$pair@GM@mpl@boost@@@list_property_definition_callbacks_type@ply_parser@ply@io@pcl@@@mpl@boost@@QEAA@XZ 000000014000dcd0 f i processply.obj
 0001:0000cd30       ??1?$inherit2@U?$inherit2@U?$inherit2@U?$inherit2@U?$inherit2@U?$inherit2@U?$inherit2@U?$inherit2@U?$inherit2@U?$inherit2@U?$inherit2@U?$inherit2@U?$inherit2@U?$inherit2@U?$inherit2@U?$callbacks_element@U?$pair@EC@mpl@boost@@@list_property_definition_callbacks_type@ply_parser@ply@io@pcl@@U?$callbacks_element@U?$pair@EF@mpl@boost@@@23456@@mpl@boost@@U?$callbacks_element@U?$pair@EH@mpl@boost@@@list_property_definition_callbacks_type@ply_parser@ply@io@pcl@@@mpl@boost@@U?$callbacks_element@U?$pair@EE@mpl@boost@@@list_property_definition_callbacks_type@ply_parser@ply@io@pcl@@@mpl@boost@@U?$callbacks_element@U?$pair@EG@mpl@boost@@@list_property_definition_callbacks_type@ply_parser@ply@io@pcl@@@mpl@boost@@U?$callbacks_element@U?$pair@EI@mpl@boost@@@list_property_definition_callbacks_type@ply_parser@ply@io@pcl@@@mpl@boost@@U?$callbacks_element@U?$pair@EM@mpl@boost@@@list_property_definition_callbacks_type@ply_parser@ply@io@pcl@@@mpl@boost@@U?$callbacks_element@U?$pair@EN@mpl@boost@@@list_property_definition_callbacks_type@ply_parser@ply@io@pcl@@@mpl@boost@@U?$callbacks_element@U?$pair@GC@mpl@boost@@@list_property_definition_callbacks_type@ply_parser@ply@io@pcl@@@mpl@boost@@U?$callbacks_element@U?$pair@GF@mpl@boost@@@list_property_definition_callbacks_type@ply_parser@ply@io@pcl@@@mpl@boost@@U?$callbacks_element@U?$pair@GH@mpl@boost@@@list_property_definition_callbacks_type@ply_parser@ply@io@pcl@@@mpl@boost@@U?$callbacks_element@U?$pair@GE@mpl@boost@@@list_property_definition_callbacks_type@ply_parser@ply@io@pcl@@@mpl@boost@@U?$callbacks_element@U?$pair@GG@mpl@boost@@@list_property_definition_callbacks_type@ply_parser@ply@io@pcl@@@mpl@boost@@U?$callbacks_element@U?$pair@GI@mpl@boost@@@list_property_definition_callbacks_type@ply_parser@ply@io@pcl@@@mpl@boost@@U?$callbacks_element@U?$pair@GM@mpl@boost@@@list_property_definition_callbacks_type@ply_parser@ply@io@pcl@@@mpl@boost@@U?$callbacks_element@U?$pair@GN@mpl@boost@@@list_property_definition_callbacks_type@ply_parser@ply@io@pcl@@@mpl@boost@@QEAA@XZ 000000014000dd30 f i processply.obj
 0001:0000cdd0       ??1?$inherit2@U?$inherit2@U?$inherit2@U?$inherit2@U?$inherit2@U?$inherit2@U?$inherit2@U?$inherit2@U?$inherit2@U?$inherit2@U?$inherit2@U?$inherit2@U?$inherit2@U?$inherit2@U?$inherit2@U?$inherit2@U?$callbacks_element@U?$pair@EC@mpl@boost@@@list_property_definition_callbacks_type@ply_parser@ply@io@pcl@@U?$callbacks_element@U?$pair@EF@mpl@boost@@@23456@@mpl@boost@@U?$callbacks_element@U?$pair@EH@mpl@boost@@@list_property_definition_callbacks_type@ply_parser@ply@io@pcl@@@mpl@boost@@U?$callbacks_element@U?$pair@EE@mpl@boost@@@list_property_definition_callbacks_type@ply_parser@ply@io@pcl@@@mpl@boost@@U?$callbacks_element@U?$pair@EG@mpl@boost@@@list_property_definition_callbacks_type@ply_parser@ply@io@pcl@@@mpl@boost@@U?$callbacks_element@U?$pair@EI@mpl@boost@@@list_property_definition_callbacks_type@ply_parser@ply@io@pcl@@@mpl@boost@@U?$callbacks_element@U?$pair@EM@mpl@boost@@@list_property_definition_callbacks_type@ply_parser@ply@io@pcl@@@mpl@boost@@U?$callbacks_element@U?$pair@EN@mpl@boost@@@list_property_definition_callbacks_type@ply_parser@ply@io@pcl@@@mpl@boost@@U?$callbacks_element@U?$pair@GC@mpl@boost@@@list_property_definition_callbacks_type@ply_parser@ply@io@pcl@@@mpl@boost@@U?$callbacks_element@U?$pair@GF@mpl@boost@@@list_property_definition_callbacks_type@ply_parser@ply@io@pcl@@@mpl@boost@@U?$callbacks_element@U?$pair@GH@mpl@boost@@@list_property_definition_callbacks_type@ply_parser@ply@io@pcl@@@mpl@boost@@U?$callbacks_element@U?$pair@GE@mpl@boost@@@list_property_definition_callbacks_type@ply_parser@ply@io@pcl@@@mpl@boost@@U?$callbacks_element@U?$pair@GG@mpl@boost@@@list_property_definition_callbacks_type@ply_parser@ply@io@pcl@@@mpl@boost@@U?$callbacks_element@U?$pair@GI@mpl@boost@@@list_property_definition_callbacks_type@ply_parser@ply@io@pcl@@@mpl@boost@@U?$callbacks_element@U?$pair@GM@mpl@boost@@@list_property_definition_callbacks_type@ply_parser@ply@io@pcl@@@mpl@boost@@U?$callbacks_element@U?$pair@GN@mpl@boost@@@list_property_definition_callbacks_type@ply_parser@ply@io@pcl@@@mpl@boost@@U?$callbacks_element@U?$pair@IC@mpl@boost@@@list_property_definition_callbacks_type@ply_parser@ply@io@pcl@@@mpl@boost@@QEAA@XZ 000000014000ddd0 f i processply.obj
 0001:0000ce30       ??1?$inherit2@U?$inherit2@U?$inherit2@U?$inherit2@U?$inherit2@U?$inherit2@U?$inherit2@U?$inherit2@U?$inherit2@U?$inherit2@U?$inherit2@U?$inherit2@U?$inherit2@U?$inherit2@U?$inherit2@U?$inherit2@U?$inherit2@U?$callbacks_element@U?$pair@EC@mpl@boost@@@list_property_definition_callbacks_type@ply_parser@ply@io@pcl@@U?$callbacks_element@U?$pair@EF@mpl@boost@@@23456@@mpl@boost@@U?$callbacks_element@U?$pair@EH@mpl@boost@@@list_property_definition_callbacks_type@ply_parser@ply@io@pcl@@@mpl@boost@@U?$callbacks_element@U?$pair@EE@mpl@boost@@@list_property_definition_callbacks_type@ply_parser@ply@io@pcl@@@mpl@boost@@U?$callbacks_element@U?$pair@EG@mpl@boost@@@list_property_definition_callbacks_type@ply_parser@ply@io@pcl@@@mpl@boost@@U?$callbacks_element@U?$pair@EI@mpl@boost@@@list_property_definition_callbacks_type@ply_parser@ply@io@pcl@@@mpl@boost@@U?$callbacks_element@U?$pair@EM@mpl@boost@@@list_property_definition_callbacks_type@ply_parser@ply@io@pcl@@@mpl@boost@@U?$callbacks_element@U?$pair@EN@mpl@boost@@@list_property_definition_callbacks_type@ply_parser@ply@io@pcl@@@mpl@boost@@U?$callbacks_element@U?$pair@GC@mpl@boost@@@list_property_definition_callbacks_type@ply_parser@ply@io@pcl@@@mpl@boost@@U?$callbacks_element@U?$pair@GF@mpl@boost@@@list_property_definition_callbacks_type@ply_parser@ply@io@pcl@@@mpl@boost@@U?$callbacks_element@U?$pair@GH@mpl@boost@@@list_property_definition_callbacks_type@ply_parser@ply@io@pcl@@@mpl@boost@@U?$callbacks_element@U?$pair@GE@mpl@boost@@@list_property_definition_callbacks_type@ply_parser@ply@io@pcl@@@mpl@boost@@U?$callbacks_element@U?$pair@GG@mpl@boost@@@list_property_definition_callbacks_type@ply_parser@ply@io@pcl@@@mpl@boost@@U?$callbacks_element@U?$pair@GI@mpl@boost@@@list_property_definition_callbacks_type@ply_parser@ply@io@pcl@@@mpl@boost@@U?$callbacks_element@U?$pair@GM@mpl@boost@@@list_property_definition_callbacks_type@ply_parser@ply@io@pcl@@@mpl@boost@@U?$callbacks_element@U?$pair@GN@mpl@boost@@@list_property_definition_callbacks_type@ply_parser@ply@io@pcl@@@mpl@boost@@U?$callbacks_element@U?$pair@IC@mpl@boost@@@list_property_definition_callbacks_type@ply_parser@ply@io@pcl@@@mpl@boost@@U?$callbacks_element@U?$pair@IF@mpl@boost@@@list_property_definition_callbacks_type@ply_parser@ply@io@pcl@@@mpl@boost@@QEAA@XZ 000000014000de30 f i processply.obj
 0001:0000ced0       ??1?$inherit2@U?$inherit2@U?$inherit2@U?$inherit2@U?$inherit2@U?$inherit2@U?$inherit2@U?$inherit2@U?$inherit2@U?$inherit2@U?$inherit2@U?$inherit2@U?$inherit2@U?$inherit2@U?$inherit2@U?$inherit2@U?$inherit2@U?$inherit2@U?$callbacks_element@U?$pair@EC@mpl@boost@@@list_property_definition_callbacks_type@ply_parser@ply@io@pcl@@U?$callbacks_element@U?$pair@EF@mpl@boost@@@23456@@mpl@boost@@U?$callbacks_element@U?$pair@EH@mpl@boost@@@list_property_definition_callbacks_type@ply_parser@ply@io@pcl@@@mpl@boost@@U?$callbacks_element@U?$pair@EE@mpl@boost@@@list_property_definition_callbacks_type@ply_parser@ply@io@pcl@@@mpl@boost@@U?$callbacks_element@U?$pair@EG@mpl@boost@@@list_property_definition_callbacks_type@ply_parser@ply@io@pcl@@@mpl@boost@@U?$callbacks_element@U?$pair@EI@mpl@boost@@@list_property_definition_callbacks_type@ply_parser@ply@io@pcl@@@mpl@boost@@U?$callbacks_element@U?$pair@EM@mpl@boost@@@list_property_definition_callbacks_type@ply_parser@ply@io@pcl@@@mpl@boost@@U?$callbacks_element@U?$pair@EN@mpl@boost@@@list_property_definition_callbacks_type@ply_parser@ply@io@pcl@@@mpl@boost@@U?$callbacks_element@U?$pair@GC@mpl@boost@@@list_property_definition_callbacks_type@ply_parser@ply@io@pcl@@@mpl@boost@@U?$callbacks_element@U?$pair@GF@mpl@boost@@@list_property_definition_callbacks_type@ply_parser@ply@io@pcl@@@mpl@boost@@U?$callbacks_element@U?$pair@GH@mpl@boost@@@list_property_definition_callbacks_type@ply_parser@ply@io@pcl@@@mpl@boost@@U?$callbacks_element@U?$pair@GE@mpl@boost@@@list_property_definition_callbacks_type@ply_parser@ply@io@pcl@@@mpl@boost@@U?$callbacks_element@U?$pair@GG@mpl@boost@@@list_property_definition_callbacks_type@ply_parser@ply@io@pcl@@@mpl@boost@@U?$callbacks_element@U?$pair@GI@mpl@boost@@@list_property_definition_callbacks_type@ply_parser@ply@io@pcl@@@mpl@boost@@U?$callbacks_element@U?$pair@GM@mpl@boost@@@list_property_definition_callbacks_type@ply_parser@ply@io@pcl@@@mpl@boost@@U?$callbacks_element@U?$pair@GN@mpl@boost@@@list_property_definition_callbacks_type@ply_parser@ply@io@pcl@@@mpl@boost@@U?$callbacks_element@U?$pair@IC@mpl@boost@@@list_property_definition_callbacks_type@ply_parser@ply@io@pcl@@@mpl@boost@@U?$callbacks_element@U?$pair@IF@mpl@boost@@@list_property_definition_callbacks_type@ply_parser@ply@io@pcl@@@mpl@boost@@U?$callbacks_element@U?$pair@IH@mpl@boost@@@list_property_definition_callbacks_type@ply_parser@ply@io@pcl@@@mpl@boost@@QEAA@XZ 000000014000ded0 f i processply.obj
 0001:0000cf30       ??1?$inherit2@U?$inherit2@U?$inherit2@U?$inherit2@U?$inherit2@U?$inherit2@U?$inherit2@U?$inherit2@U?$inherit2@U?$inherit2@U?$inherit2@U?$inherit2@U?$inherit2@U?$inherit2@U?$inherit2@U?$inherit2@U?$inherit2@U?$inherit2@U?$inherit2@U?$callbacks_element@U?$pair@EC@mpl@boost@@@list_property_definition_callbacks_type@ply_parser@ply@io@pcl@@U?$callbacks_element@U?$pair@EF@mpl@boost@@@23456@@mpl@boost@@U?$callbacks_element@U?$pair@EH@mpl@boost@@@list_property_definition_callbacks_type@ply_parser@ply@io@pcl@@@mpl@boost@@U?$callbacks_element@U?$pair@EE@mpl@boost@@@list_property_definition_callbacks_type@ply_parser@ply@io@pcl@@@mpl@boost@@U?$callbacks_element@U?$pair@EG@mpl@boost@@@list_property_definition_callbacks_type@ply_parser@ply@io@pcl@@@mpl@boost@@U?$callbacks_element@U?$pair@EI@mpl@boost@@@list_property_definition_callbacks_type@ply_parser@ply@io@pcl@@@mpl@boost@@U?$callbacks_element@U?$pair@EM@mpl@boost@@@list_property_definition_callbacks_type@ply_parser@ply@io@pcl@@@mpl@boost@@U?$callbacks_element@U?$pair@EN@mpl@boost@@@list_property_definition_callbacks_type@ply_parser@ply@io@pcl@@@mpl@boost@@U?$callbacks_element@U?$pair@GC@mpl@boost@@@list_property_definition_callbacks_type@ply_parser@ply@io@pcl@@@mpl@boost@@U?$callbacks_element@U?$pair@GF@mpl@boost@@@list_property_definition_callbacks_type@ply_parser@ply@io@pcl@@@mpl@boost@@U?$callbacks_element@U?$pair@GH@mpl@boost@@@list_property_definition_callbacks_type@ply_parser@ply@io@pcl@@@mpl@boost@@U?$callbacks_element@U?$pair@GE@mpl@boost@@@list_property_definition_callbacks_type@ply_parser@ply@io@pcl@@@mpl@boost@@U?$callbacks_element@U?$pair@GG@mpl@boost@@@list_property_definition_callbacks_type@ply_parser@ply@io@pcl@@@mpl@boost@@U?$callbacks_element@U?$pair@GI@mpl@boost@@@list_property_definition_callbacks_type@ply_parser@ply@io@pcl@@@mpl@boost@@U?$callbacks_element@U?$pair@GM@mpl@boost@@@list_property_definition_callbacks_type@ply_parser@ply@io@pcl@@@mpl@boost@@U?$callbacks_element@U?$pair@GN@mpl@boost@@@list_property_definition_callbacks_type@ply_parser@ply@io@pcl@@@mpl@boost@@U?$callbacks_element@U?$pair@IC@mpl@boost@@@list_property_definition_callbacks_type@ply_parser@ply@io@pcl@@@mpl@boost@@U?$callbacks_element@U?$pair@IF@mpl@boost@@@list_property_definition_callbacks_type@ply_parser@ply@io@pcl@@@mpl@boost@@U?$callbacks_element@U?$pair@IH@mpl@boost@@@list_property_definition_callbacks_type@ply_parser@ply@io@pcl@@@mpl@boost@@U?$callbacks_element@U?$pair@IE@mpl@boost@@@list_property_definition_callbacks_type@ply_parser@ply@io@pcl@@@mpl@boost@@QEAA@XZ 000000014000df30 f i processply.obj
 0001:0000cfd0       ??1?$inherit2@U?$inherit2@U?$inherit2@U?$inherit2@U?$inherit2@U?$inherit2@U?$inherit2@U?$inherit2@U?$inherit2@U?$inherit2@U?$inherit2@U?$inherit2@U?$inherit2@U?$inherit2@U?$inherit2@U?$inherit2@U?$inherit2@U?$inherit2@U?$inherit2@U?$inherit2@U?$callbacks_element@U?$pair@EC@mpl@boost@@@list_property_definition_callbacks_type@ply_parser@ply@io@pcl@@U?$callbacks_element@U?$pair@EF@mpl@boost@@@23456@@mpl@boost@@U?$callbacks_element@U?$pair@EH@mpl@boost@@@list_property_definition_callbacks_type@ply_parser@ply@io@pcl@@@mpl@boost@@U?$callbacks_element@U?$pair@EE@mpl@boost@@@list_property_definition_callbacks_type@ply_parser@ply@io@pcl@@@mpl@boost@@U?$callbacks_element@U?$pair@EG@mpl@boost@@@list_property_definition_callbacks_type@ply_parser@ply@io@pcl@@@mpl@boost@@U?$callbacks_element@U?$pair@EI@mpl@boost@@@list_property_definition_callbacks_type@ply_parser@ply@io@pcl@@@mpl@boost@@U?$callbacks_element@U?$pair@EM@mpl@boost@@@list_property_definition_callbacks_type@ply_parser@ply@io@pcl@@@mpl@boost@@U?$callbacks_element@U?$pair@EN@mpl@boost@@@list_property_definition_callbacks_type@ply_parser@ply@io@pcl@@@mpl@boost@@U?$callbacks_element@U?$pair@GC@mpl@boost@@@list_property_definition_callbacks_type@ply_parser@ply@io@pcl@@@mpl@boost@@U?$callbacks_element@U?$pair@GF@mpl@boost@@@list_property_definition_callbacks_type@ply_parser@ply@io@pcl@@@mpl@boost@@U?$callbacks_element@U?$pair@GH@mpl@boost@@@list_property_definition_callbacks_type@ply_parser@ply@io@pcl@@@mpl@boost@@U?$callbacks_element@U?$pair@GE@mpl@boost@@@list_property_definition_callbacks_type@ply_parser@ply@io@pcl@@@mpl@boost@@U?$callbacks_element@U?$pair@GG@mpl@boost@@@list_property_definition_callbacks_type@ply_parser@ply@io@pcl@@@mpl@boost@@U?$callbacks_element@U?$pair@GI@mpl@boost@@@list_property_definition_callbacks_type@ply_parser@ply@io@pcl@@@mpl@boost@@U?$callbacks_element@U?$pair@GM@mpl@boost@@@list_property_definition_callbacks_type@ply_parser@ply@io@pcl@@@mpl@boost@@U?$callbacks_element@U?$pair@GN@mpl@boost@@@list_property_definition_callbacks_type@ply_parser@ply@io@pcl@@@mpl@boost@@U?$callbacks_element@U?$pair@IC@mpl@boost@@@list_property_definition_callbacks_type@ply_parser@ply@io@pcl@@@mpl@boost@@U?$callbacks_element@U?$pair@IF@mpl@boost@@@list_property_definition_callbacks_type@ply_parser@ply@io@pcl@@@mpl@boost@@U?$callbacks_element@U?$pair@IH@mpl@boost@@@list_property_definition_callbacks_type@ply_parser@ply@io@pcl@@@mpl@boost@@U?$callbacks_element@U?$pair@IE@mpl@boost@@@list_property_definition_callbacks_type@ply_parser@ply@io@pcl@@@mpl@boost@@U?$callbacks_element@U?$pair@IG@mpl@boost@@@list_property_definition_callbacks_type@ply_parser@ply@io@pcl@@@mpl@boost@@QEAA@XZ 000000014000dfd0 f i processply.obj
 0001:0000d030       ??1?$inherit2@U?$inherit2@U?$inherit2@U?$inherit2@U?$inherit2@U?$inherit2@U?$inherit2@U?$inherit2@U?$inherit2@U?$inherit2@U?$inherit2@U?$inherit2@U?$inherit2@U?$inherit2@U?$inherit2@U?$inherit2@U?$inherit2@U?$inherit2@U?$inherit2@U?$inherit2@U?$inherit2@U?$callbacks_element@U?$pair@EC@mpl@boost@@@list_property_definition_callbacks_type@ply_parser@ply@io@pcl@@U?$callbacks_element@U?$pair@EF@mpl@boost@@@23456@@mpl@boost@@U?$callbacks_element@U?$pair@EH@mpl@boost@@@list_property_definition_callbacks_type@ply_parser@ply@io@pcl@@@mpl@boost@@U?$callbacks_element@U?$pair@EE@mpl@boost@@@list_property_definition_callbacks_type@ply_parser@ply@io@pcl@@@mpl@boost@@U?$callbacks_element@U?$pair@EG@mpl@boost@@@list_property_definition_callbacks_type@ply_parser@ply@io@pcl@@@mpl@boost@@U?$callbacks_element@U?$pair@EI@mpl@boost@@@list_property_definition_callbacks_type@ply_parser@ply@io@pcl@@@mpl@boost@@U?$callbacks_element@U?$pair@EM@mpl@boost@@@list_property_definition_callbacks_type@ply_parser@ply@io@pcl@@@mpl@boost@@U?$callbacks_element@U?$pair@EN@mpl@boost@@@list_property_definition_callbacks_type@ply_parser@ply@io@pcl@@@mpl@boost@@U?$callbacks_element@U?$pair@GC@mpl@boost@@@list_property_definition_callbacks_type@ply_parser@ply@io@pcl@@@mpl@boost@@U?$callbacks_element@U?$pair@GF@mpl@boost@@@list_property_definition_callbacks_type@ply_parser@ply@io@pcl@@@mpl@boost@@U?$callbacks_element@U?$pair@GH@mpl@boost@@@list_property_definition_callbacks_type@ply_parser@ply@io@pcl@@@mpl@boost@@U?$callbacks_element@U?$pair@GE@mpl@boost@@@list_property_definition_callbacks_type@ply_parser@ply@io@pcl@@@mpl@boost@@U?$callbacks_element@U?$pair@GG@mpl@boost@@@list_property_definition_callbacks_type@ply_parser@ply@io@pcl@@@mpl@boost@@U?$callbacks_element@U?$pair@GI@mpl@boost@@@list_property_definition_callbacks_type@ply_parser@ply@io@pcl@@@mpl@boost@@U?$callbacks_element@U?$pair@GM@mpl@boost@@@list_property_definition_callbacks_type@ply_parser@ply@io@pcl@@@mpl@boost@@U?$callbacks_element@U?$pair@GN@mpl@boost@@@list_property_definition_callbacks_type@ply_parser@ply@io@pcl@@@mpl@boost@@U?$callbacks_element@U?$pair@IC@mpl@boost@@@list_property_definition_callbacks_type@ply_parser@ply@io@pcl@@@mpl@boost@@U?$callbacks_element@U?$pair@IF@mpl@boost@@@list_property_definition_callbacks_type@ply_parser@ply@io@pcl@@@mpl@boost@@U?$callbacks_element@U?$pair@IH@mpl@boost@@@list_property_definition_callbacks_type@ply_parser@ply@io@pcl@@@mpl@boost@@U?$callbacks_element@U?$pair@IE@mpl@boost@@@list_property_definition_callbacks_type@ply_parser@ply@io@pcl@@@mpl@boost@@U?$callbacks_element@U?$pair@IG@mpl@boost@@@list_property_definition_callbacks_type@ply_parser@ply@io@pcl@@@mpl@boost@@U?$callbacks_element@U?$pair@II@mpl@boost@@@list_property_definition_callbacks_type@ply_parser@ply@io@pcl@@@mpl@boost@@QEAA@XZ 000000014000e030 f i processply.obj
 0001:0000d0d0       ??1?$inherit2@U?$inherit2@U?$inherit2@U?$inherit2@U?$inherit2@U?$inherit2@U?$inherit2@U?$inherit2@U?$inherit2@U?$inherit2@U?$inherit2@U?$inherit2@U?$inherit2@U?$inherit2@U?$inherit2@U?$inherit2@U?$inherit2@U?$inherit2@U?$inherit2@U?$inherit2@U?$inherit2@U?$inherit2@U?$callbacks_element@U?$pair@EC@mpl@boost@@@list_property_definition_callbacks_type@ply_parser@ply@io@pcl@@U?$callbacks_element@U?$pair@EF@mpl@boost@@@23456@@mpl@boost@@U?$callbacks_element@U?$pair@EH@mpl@boost@@@list_property_definition_callbacks_type@ply_parser@ply@io@pcl@@@mpl@boost@@U?$callbacks_element@U?$pair@EE@mpl@boost@@@list_property_definition_callbacks_type@ply_parser@ply@io@pcl@@@mpl@boost@@U?$callbacks_element@U?$pair@EG@mpl@boost@@@list_property_definition_callbacks_type@ply_parser@ply@io@pcl@@@mpl@boost@@U?$callbacks_element@U?$pair@EI@mpl@boost@@@list_property_definition_callbacks_type@ply_parser@ply@io@pcl@@@mpl@boost@@U?$callbacks_element@U?$pair@EM@mpl@boost@@@list_property_definition_callbacks_type@ply_parser@ply@io@pcl@@@mpl@boost@@U?$callbacks_element@U?$pair@EN@mpl@boost@@@list_property_definition_callbacks_type@ply_parser@ply@io@pcl@@@mpl@boost@@U?$callbacks_element@U?$pair@GC@mpl@boost@@@list_property_definition_callbacks_type@ply_parser@ply@io@pcl@@@mpl@boost@@U?$callbacks_element@U?$pair@GF@mpl@boost@@@list_property_definition_callbacks_type@ply_parser@ply@io@pcl@@@mpl@boost@@U?$callbacks_element@U?$pair@GH@mpl@boost@@@list_property_definition_callbacks_type@ply_parser@ply@io@pcl@@@mpl@boost@@U?$callbacks_element@U?$pair@GE@mpl@boost@@@list_property_definition_callbacks_type@ply_parser@ply@io@pcl@@@mpl@boost@@U?$callbacks_element@U?$pair@GG@mpl@boost@@@list_property_definition_callbacks_type@ply_parser@ply@io@pcl@@@mpl@boost@@U?$callbacks_element@U?$pair@GI@mpl@boost@@@list_property_definition_callbacks_type@ply_parser@ply@io@pcl@@@mpl@boost@@U?$callbacks_element@U?$pair@GM@mpl@boost@@@list_property_definition_callbacks_type@ply_parser@ply@io@pcl@@@mpl@boost@@U?$callbacks_element@U?$pair@GN@mpl@boost@@@list_property_definition_callbacks_type@ply_parser@ply@io@pcl@@@mpl@boost@@U?$callbacks_element@U?$pair@IC@mpl@boost@@@list_property_definition_callbacks_type@ply_parser@ply@io@pcl@@@mpl@boost@@U?$callbacks_element@U?$pair@IF@mpl@boost@@@list_property_definition_callbacks_type@ply_parser@ply@io@pcl@@@mpl@boost@@U?$callbacks_element@U?$pair@IH@mpl@boost@@@list_property_definition_callbacks_type@ply_parser@ply@io@pcl@@@mpl@boost@@U?$callbacks_element@U?$pair@IE@mpl@boost@@@list_property_definition_callbacks_type@ply_parser@ply@io@pcl@@@mpl@boost@@U?$callbacks_element@U?$pair@IG@mpl@boost@@@list_property_definition_callbacks_type@ply_parser@ply@io@pcl@@@mpl@boost@@U?$callbacks_element@U?$pair@II@mpl@boost@@@list_property_definition_callbacks_type@ply_parser@ply@io@pcl@@@mpl@boost@@U?$callbacks_element@U?$pair@IM@mpl@boost@@@list_property_definition_callbacks_type@ply_parser@ply@io@pcl@@@mpl@boost@@QEAA@XZ 000000014000e0d0 f i processply.obj
 0001:0000d130       ??1?$inherit2@U?$inherit2@U?$inherit2@U?$inherit2@U?$inherit2@U?$inherit2@U?$inherit2@U?$inherit2@U?$inherit2@U?$inherit2@U?$inherit2@U?$inherit2@U?$inherit2@U?$inherit2@U?$inherit2@U?$inherit2@U?$inherit2@U?$inherit2@U?$inherit2@U?$inherit2@U?$inherit2@U?$inherit2@U?$inherit2@U?$callbacks_element@U?$pair@EC@mpl@boost@@@list_property_definition_callbacks_type@ply_parser@ply@io@pcl@@U?$callbacks_element@U?$pair@EF@mpl@boost@@@23456@@mpl@boost@@U?$callbacks_element@U?$pair@EH@mpl@boost@@@list_property_definition_callbacks_type@ply_parser@ply@io@pcl@@@mpl@boost@@U?$callbacks_element@U?$pair@EE@mpl@boost@@@list_property_definition_callbacks_type@ply_parser@ply@io@pcl@@@mpl@boost@@U?$callbacks_element@U?$pair@EG@mpl@boost@@@list_property_definition_callbacks_type@ply_parser@ply@io@pcl@@@mpl@boost@@U?$callbacks_element@U?$pair@EI@mpl@boost@@@list_property_definition_callbacks_type@ply_parser@ply@io@pcl@@@mpl@boost@@U?$callbacks_element@U?$pair@EM@mpl@boost@@@list_property_definition_callbacks_type@ply_parser@ply@io@pcl@@@mpl@boost@@U?$callbacks_element@U?$pair@EN@mpl@boost@@@list_property_definition_callbacks_type@ply_parser@ply@io@pcl@@@mpl@boost@@U?$callbacks_element@U?$pair@GC@mpl@boost@@@list_property_definition_callbacks_type@ply_parser@ply@io@pcl@@@mpl@boost@@U?$callbacks_element@U?$pair@GF@mpl@boost@@@list_property_definition_callbacks_type@ply_parser@ply@io@pcl@@@mpl@boost@@U?$callbacks_element@U?$pair@GH@mpl@boost@@@list_property_definition_callbacks_type@ply_parser@ply@io@pcl@@@mpl@boost@@U?$callbacks_element@U?$pair@GE@mpl@boost@@@list_property_definition_callbacks_type@ply_parser@ply@io@pcl@@@mpl@boost@@U?$callbacks_element@U?$pair@GG@mpl@boost@@@list_property_definition_callbacks_type@ply_parser@ply@io@pcl@@@mpl@boost@@U?$callbacks_element@U?$pair@GI@mpl@boost@@@list_property_definition_callbacks_type@ply_parser@ply@io@pcl@@@mpl@boost@@U?$callbacks_element@U?$pair@GM@mpl@boost@@@list_property_definition_callbacks_type@ply_parser@ply@io@pcl@@@mpl@boost@@U?$callbacks_element@U?$pair@GN@mpl@boost@@@list_property_definition_callbacks_type@ply_parser@ply@io@pcl@@@mpl@boost@@U?$callbacks_element@U?$pair@IC@mpl@boost@@@list_property_definition_callbacks_type@ply_parser@ply@io@pcl@@@mpl@boost@@U?$callbacks_element@U?$pair@IF@mpl@boost@@@list_property_definition_callbacks_type@ply_parser@ply@io@pcl@@@mpl@boost@@U?$callbacks_element@U?$pair@IH@mpl@boost@@@list_property_definition_callbacks_type@ply_parser@ply@io@pcl@@@mpl@boost@@U?$callbacks_element@U?$pair@IE@mpl@boost@@@list_property_definition_callbacks_type@ply_parser@ply@io@pcl@@@mpl@boost@@U?$callbacks_element@U?$pair@IG@mpl@boost@@@list_property_definition_callbacks_type@ply_parser@ply@io@pcl@@@mpl@boost@@U?$callbacks_element@U?$pair@II@mpl@boost@@@list_property_definition_callbacks_type@ply_parser@ply@io@pcl@@@mpl@boost@@U?$callbacks_element@U?$pair@IM@mpl@boost@@@list_property_definition_callbacks_type@ply_parser@ply@io@pcl@@@mpl@boost@@U?$callbacks_element@U?$pair@IN@mpl@boost@@@list_property_definition_callbacks_type@ply_parser@ply@io@pcl@@@mpl@boost@@QEAA@XZ 000000014000e130 f i processply.obj
 0001:0000d1d0       ??1?$iterator_range@Vdirectory_iterator@filesystem@boost@@@boost@@QEAA@XZ 000000014000e1d0 f i processply.obj
 0001:0000d1e0       ??1?$iterator_range_base@Vdirectory_iterator@filesystem@boost@@Uincrementable_traversal_tag@iterators@3@@iterator_range_detail@boost@@QEAA@XZ 000000014000e1e0 f i processply.obj
 0001:0000d280       ??1?$shared_ptr@V?$Search@UPointXYZRGB@pcl@@@search@pcl@@@boost@@QEAA@XZ 000000014000e280 f i processply.obj
 0001:0000d280       ??1directory_iterator@filesystem@boost@@QEAA@XZ 000000014000e280 f i processply.obj
 0001:0000d280       ??1?$shared_ptr@$$CBV?$PointCloud@UPointXYZRGB@pcl@@@pcl@@@boost@@QEAA@XZ 000000014000e280 f i processply.obj
 0001:0000d280       ??1?$shared_ptr@V?$PointCloud@UPointXYZRGB@pcl@@@pcl@@@boost@@QEAA@XZ 000000014000e280 f i processply.obj
 0001:0000d280       ??1?$shared_ptr@V?$vector@HV?$allocator@H@std@@@std@@@boost@@QEAA@XZ 000000014000e280 f i processply.obj
 0001:0000d280       ??1?$shared_ptr@V?$vector@EV?$allocator@E@std@@@std@@@boost@@QEAA@XZ 000000014000e280 f i festo_udp_func.obj
 0001:0000d280       ??1?$shared_ptr@Udir_itr_imp@detail@filesystem@boost@@@boost@@QEAA@XZ 000000014000e280 f i processply.obj
 0001:0000d2d0       ??1FileReader@pcl@@UEAA@XZ 000000014000e2d0 f i processply.obj
 0001:0000d2e0       ??1PCLHeader@pcl@@QEAA@XZ  000000014000e2e0 f i processply.obj
 0001:0000d320       ??1PCLPointCloud2@pcl@@QEAA@XZ 000000014000e320 f i processply.obj
 0001:0000d380       ??1PCLPointField@pcl@@QEAA@XZ 000000014000e380 f i processply.obj
 0001:0000d380       ??1?$basic_string@DU?$char_traits@D@std@@V?$allocator@D@2@@std@@QEAA@XZ 000000014000e380 f i main.obj
 0001:0000d3c0       ??1PLYReader@pcl@@UEAA@XZ  000000014000e3c0 f i processply.obj
 0001:0000d420       ??1PLYWriter@pcl@@UEAA@XZ  000000014000e420 f i processply.obj
 0001:0000d430       ??1bad_alloc@std@@UEAA@XZ  000000014000e430 f i processply.obj
 0001:0000d450       ??1bad_alloc_@exception_detail@boost@@UEAA@XZ 000000014000e450 f i processply.obj
 0001:0000d4b0       ??1bad_exception_@exception_detail@boost@@UEAA@XZ 000000014000e4b0 f i processply.obj
 0001:0000d510       ??1list_property_definition_callbacks_type@ply_parser@ply@io@pcl@@QEAA@XZ 000000014000e510 f i processply.obj
 0001:0000d520       ??1path@filesystem@boost@@QEAA@XZ 000000014000e520 f i processply.obj
 0001:0000d520       ??1directory_entry@filesystem@boost@@QEAA@XZ 000000014000e520 f i processply.obj
 0001:0000d520       ??1?$basic_string@_WU?$char_traits@_W@std@@V?$allocator@_W@2@@std@@QEAA@XZ 000000014000e520 f i processply.obj
 0001:0000d550       ??1ply_parser@ply@io@pcl@@QEAA@XZ 000000014000e550 f i processply.obj
 0001:0000d760       ??1scalar_property_definition_callbacks_type@ply_parser@ply@io@pcl@@QEAA@XZ 000000014000e760 f i processply.obj
 0001:0000d770       ??1shared_count@detail@boost@@QEAA@XZ 000000014000e770 f i processply.obj
 0001:0000d7c0       ??4?$PointCloud@UPointXYZRGB@pcl@@@pcl@@QEAAAEAV01@AEBV01@@Z 000000014000e7c0 f i processply.obj
 0001:0000d850       ??4?$shared_ptr@V?$vector@UFieldMapping@detail@pcl@@V?$allocator@UFieldMapping@detail@pcl@@@std@@@std@@@boost@@QEAAAEAV01@AEBV01@@Z 000000014000e850 f i processply.obj
 0001:0000d8f0       ??4?$vector@UPointXYZRGB@pcl@@V?$aligned_allocator@UPointXYZRGB@pcl@@@Eigen@@@std@@QEAAAEAV01@AEBV01@@Z 000000014000e8f0 f i processply.obj
 0001:0000da30       ??Kfilesystem@boost@@YA?AVpath@01@AEBV201@0@Z 000000014000ea30 f i processply.obj
 0001:0000dae0       ??R?$FieldMatches@UPointXYZRGB@pcl@@Urgb@fields@2@@pcl@@QEAA_NAEBUPCLPointField@1@@Z 000000014000eae0 f i processply.obj
 0001:0000dbc0       ??_D?$clone_impl@Ubad_alloc_@exception_detail@boost@@@exception_detail@boost@@QEAAXXZ 000000014000ebc0 f i processply.obj
 0001:0000dbe0       ??_D?$clone_impl@Ubad_exception_@exception_detail@boost@@@exception_detail@boost@@QEAAXXZ 000000014000ebe0 f i processply.obj
 0001:0000dc00       ??_E?$clone_impl@Ubad_alloc_@exception_detail@boost@@@exception_detail@boost@@$4PPPPPPPM@FA@EAAPEAXI@Z 000000014000ec00 f i processply.obj
 0001:0000dc10       ??_E?$clone_impl@Ubad_alloc_@exception_detail@boost@@@exception_detail@boost@@WCI@EAAPEAXI@Z 000000014000ec10 f i processply.obj
 0001:0000dc1c       ??_E?$clone_impl@Ubad_exception_@exception_detail@boost@@@exception_detail@boost@@$4PPPPPPPM@FA@EAAPEAXI@Z 000000014000ec1c f i processply.obj
 0001:0000dc2c       ??_E?$clone_impl@Ubad_exception_@exception_detail@boost@@@exception_detail@boost@@WCI@EAAPEAXI@Z 000000014000ec2c f i processply.obj
 0001:0000dc38       ??_Ebad_alloc_@exception_detail@boost@@WCI@EAAPEAXI@Z 000000014000ec38 f i processply.obj
 0001:0000dc44       ??_Ebad_exception_@exception_detail@boost@@WCI@EAAPEAXI@Z 000000014000ec44 f i processply.obj
 0001:0000dc50       ??_G?$Filter@UPointXYZRGB@pcl@@@pcl@@UEAAPEAXI@Z 000000014000ec50 f i processply.obj
 0001:0000dc50       ??_E?$Filter@UPointXYZRGB@pcl@@@pcl@@UEAAPEAXI@Z 000000014000ec50 f i processply.obj
 0001:0000dc80       ??_G?$FilterIndices@UPointXYZRGB@pcl@@@pcl@@UEAAPEAXI@Z 000000014000ec80 f i processply.obj
 0001:0000dc80       ??_E?$FilterIndices@UPointXYZRGB@pcl@@@pcl@@UEAAPEAXI@Z 000000014000ec80 f i processply.obj
 0001:0000dcc0       ??_E?$PCLBase@UPointXYZRGB@pcl@@@pcl@@UEAAPEAXI@Z 000000014000ecc0 f i processply.obj
 0001:0000dcc0       ??_G?$PCLBase@UPointXYZRGB@pcl@@@pcl@@UEAAPEAXI@Z 000000014000ecc0 f i processply.obj
 0001:0000dcf0       ??_G?$PointCloud@UPointXYZRGB@pcl@@@pcl@@UEAAPEAXI@Z 000000014000ecf0 f i processply.obj
 0001:0000dcf0       ??_E?$PointCloud@UPointXYZRGB@pcl@@@pcl@@UEAAPEAXI@Z 000000014000ecf0 f i processply.obj
 0001:0000dd20       ??_G?$StatisticalOutlierRemoval@UPointXYZRGB@pcl@@@pcl@@UEAAPEAXI@Z 000000014000ed20 f i processply.obj
 0001:0000dd20       ??_E?$StatisticalOutlierRemoval@UPointXYZRGB@pcl@@@pcl@@UEAAPEAXI@Z 000000014000ed20 f i processply.obj
 0001:0000dd50       ??_G?$clone_impl@Ubad_alloc_@exception_detail@boost@@@exception_detail@boost@@UEAAPEAXI@Z 000000014000ed50 f i processply.obj
 0001:0000dd50       ??_E?$clone_impl@Ubad_alloc_@exception_detail@boost@@@exception_detail@boost@@UEAAPEAXI@Z 000000014000ed50 f i processply.obj
 0001:0000dd90       ??_G?$clone_impl@Ubad_exception_@exception_detail@boost@@@exception_detail@boost@@UEAAPEAXI@Z 000000014000ed90 f i processply.obj
 0001:0000dd90       ??_E?$clone_impl@Ubad_exception_@exception_detail@boost@@@exception_detail@boost@@UEAAPEAXI@Z 000000014000ed90 f i processply.obj
 0001:0000ddd0       ??_E?$sp_counted_impl_p@Udir_itr_imp@detail@filesystem@boost@@@detail@boost@@UEAAPEAXI@Z 000000014000edd0 f i processply.obj
 0001:0000ddd0       ??_G?$sp_counted_impl_p@V?$clone_impl@Ubad_alloc_@exception_detail@boost@@@exception_detail@boost@@@detail@boost@@UEAAPEAXI@Z 000000014000edd0 f i processply.obj
 0001:0000ddd0       ??_E?$sp_counted_impl_p@V?$vector@EV?$allocator@E@std@@@std@@@detail@boost@@UEAAPEAXI@Z 000000014000edd0 f i festo_udp_func.obj
 0001:0000ddd0       ??_E?$sp_counted_impl_p@V?$clone_impl@Ubad_exception_@exception_detail@boost@@@exception_detail@boost@@@detail@boost@@UEAAPEAXI@Z 000000014000edd0 f i processply.obj
 0001:0000ddd0       ??_Gsp_counted_base@detail@boost@@UEAAPEAXI@Z 000000014000edd0 f i processply.obj
 0001:0000ddd0       ??_E?$sp_counted_impl_p@V?$clone_impl@Ubad_alloc_@exception_detail@boost@@@exception_detail@boost@@@detail@boost@@UEAAPEAXI@Z 000000014000edd0 f i processply.obj
 0001:0000ddd0       ??_Esp_counted_base@detail@boost@@UEAAPEAXI@Z 000000014000edd0 f i processply.obj
 0001:0000ddd0       ??_G?$sp_counted_impl_p@V?$clone_impl@Ubad_exception_@exception_detail@boost@@@exception_detail@boost@@@detail@boost@@UEAAPEAXI@Z 000000014000edd0 f i processply.obj
 0001:0000ddd0       ??_G?$sp_counted_impl_p@V?$vector@HV?$allocator@H@std@@@std@@@detail@boost@@UEAAPEAXI@Z 000000014000edd0 f i processply.obj
 0001:0000ddd0       ??_G?$sp_counted_impl_p@V?$vector@EV?$allocator@E@std@@@std@@@detail@boost@@UEAAPEAXI@Z 000000014000edd0 f i festo_udp_func.obj
 0001:0000ddd0       ??_E?$sp_counted_impl_p@V?$vector@HV?$allocator@H@std@@@std@@@detail@boost@@UEAAPEAXI@Z 000000014000edd0 f i processply.obj
 0001:0000ddd0       ??_E?$sp_counted_impl_p@V?$PointCloud@UPointXYZRGB@pcl@@@pcl@@@detail@boost@@UEAAPEAXI@Z 000000014000edd0 f i processply.obj
 0001:0000ddd0       ??_G?$sp_counted_impl_p@V?$PointCloud@UPointXYZRGB@pcl@@@pcl@@@detail@boost@@UEAAPEAXI@Z 000000014000edd0 f i processply.obj
 0001:0000ddd0       ??_G?$sp_counted_impl_p@Udir_itr_imp@detail@filesystem@boost@@@detail@boost@@UEAAPEAXI@Z 000000014000edd0 f i processply.obj
 0001:0000de00       ??_EFileReader@pcl@@UEAAPEAXI@Z 000000014000ee00 f i processply.obj
 0001:0000de00       ??_GFileReader@pcl@@UEAAPEAXI@Z 000000014000ee00 f i processply.obj
 0001:0000de30       ??_GPLYWriter@pcl@@UEAAPEAXI@Z 000000014000ee30 f i processply.obj
 0001:0000de30       ??_EFileWriter@pcl@@UEAAPEAXI@Z 000000014000ee30 f i processply.obj
 0001:0000de30       ??_GFileWriter@pcl@@UEAAPEAXI@Z 000000014000ee30 f i processply.obj
 0001:0000de30       ??_EPLYWriter@pcl@@UEAAPEAXI@Z 000000014000ee30 f i processply.obj
 0001:0000de60       ??_GPLYReader@pcl@@UEAAPEAXI@Z 000000014000ee60 f i processply.obj
 0001:0000de60       ??_EPLYReader@pcl@@UEAAPEAXI@Z 000000014000ee60 f i processply.obj
 0001:0000dee0       ??_Ebad_alloc@std@@UEAAPEAXI@Z 000000014000eee0 f i processply.obj
 0001:0000dee0       ??_Gbad_alloc@std@@UEAAPEAXI@Z 000000014000eee0 f i processply.obj
 0001:0000df20       ??_Gbad_alloc_@exception_detail@boost@@UEAAPEAXI@Z 000000014000ef20 f i processply.obj
 0001:0000df20       ??_Ebad_alloc_@exception_detail@boost@@UEAAPEAXI@Z 000000014000ef20 f i processply.obj
 0001:0000df90       ??_Ebad_exception@std@@UEAAPEAXI@Z 000000014000ef90 f i processply.obj
 0001:0000df90       ??_Gbad_exception@std@@UEAAPEAXI@Z 000000014000ef90 f i processply.obj
 0001:0000dfd0       ??_Ebad_exception_@exception_detail@boost@@UEAAPEAXI@Z 000000014000efd0 f i processply.obj
 0001:0000dfd0       ??_Gbad_exception_@exception_detail@boost@@UEAAPEAXI@Z 000000014000efd0 f i processply.obj
 0001:0000e040       ?_Assign_rv@?$basic_string@_WU?$char_traits@_W@std@@V?$allocator@_W@2@@std@@QEAAX$$QEAV12@@Z 000000014000f040 f i processply.obj
 0001:0000e0b0       ?_Buy@?$vector@UPointXYZRGB@pcl@@V?$aligned_allocator@UPointXYZRGB@pcl@@@Eigen@@@std@@IEAA_N_K@Z 000000014000f0b0 f i processply.obj
 0001:0000e140       ?_Copy@?$basic_string@_WU?$char_traits@_W@std@@V?$allocator@_W@2@@std@@QEAAX_K0@Z 000000014000f140 f i processply.obj
 0001:0000e260       ?_Grow_to@?$vector@UFieldMapping@detail@pcl@@V?$allocator@UFieldMapping@detail@pcl@@@std@@@std@@IEBA_K_K@Z 000000014000f260 f i processply.obj
 0001:0000e2c0       ?_Grow_to@?$vector@UPCLPointField@pcl@@V?$allocator@UPCLPointField@pcl@@@std@@@std@@IEBA_K_K@Z 000000014000f2c0 f i processply.obj
 0001:0000e320       ?_Reallocate@?$vector@EV?$allocator@E@std@@@std@@IEAAX_K@Z 000000014000f320 f i processply.obj
 0001:0000e3d0       ?_Reallocate@?$vector@UFieldMapping@detail@pcl@@V?$allocator@UFieldMapping@detail@pcl@@@std@@@std@@IEAAX_K@Z 000000014000f3d0 f i processply.obj
 0001:0000e4b0       ?_Reallocate@?$vector@UPCLPointField@pcl@@V?$allocator@UPCLPointField@pcl@@@std@@@std@@IEAAX_K@Z 000000014000f4b0 f i processply.obj
 0001:0000e5f0       ?_Reallocate@?$vector@UPointXYZRGB@pcl@@V?$aligned_allocator@UPointXYZRGB@pcl@@@Eigen@@@std@@IEAAX_K@Z 000000014000f5f0 f i processply.obj
 0001:0000e6b0       ?_Reserve@?$vector@UFieldMapping@detail@pcl@@V?$allocator@UFieldMapping@detail@pcl@@@std@@@std@@IEAAX_K@Z 000000014000f6b0 f i processply.obj
 0001:0000e750       ?_Reserve@?$vector@UPCLPointField@pcl@@V?$allocator@UPCLPointField@pcl@@@std@@@std@@IEAAX_K@Z 000000014000f750 f i processply.obj
 0001:0000e7f0       ??1?$vector@UFieldMapping@detail@pcl@@V?$allocator@UFieldMapping@detail@pcl@@@std@@@std@@QEAA@XZ 000000014000f7f0 f i processply.obj
 0001:0000e7f0       ?_Tidy@?$vector@EV?$allocator@E@std@@@std@@IEAAXXZ 000000014000f7f0 f i processply.obj
 0001:0000e7f0       ??1?$vector@HV?$allocator@H@std@@@std@@QEAA@XZ 000000014000f7f0 f i processply.obj
 0001:0000e820       ?_Tidy@?$vector@UPCLPointField@pcl@@V?$allocator@UPCLPointField@pcl@@@std@@@std@@IEAAXXZ 000000014000f820 f i processply.obj
 0001:0000e8a0       ?_Tidy@?$vector@UPointXYZRGB@pcl@@V?$aligned_allocator@UPointXYZRGB@pcl@@@Eigen@@@std@@IEAAXXZ 000000014000f8a0 f i processply.obj
 0001:0000e8a0       ??1?$vector@UPointXYZRGB@pcl@@V?$aligned_allocator@UPointXYZRGB@pcl@@@Eigen@@@std@@QEAA@XZ 000000014000f8a0 f i processply.obj
 0001:0000e8d0       ?_Tidy@?$vector@V?$vector@HV?$allocator@H@std@@@std@@V?$allocator@V?$vector@HV?$allocator@H@std@@@std@@@2@@std@@IEAAXXZ 000000014000f8d0 f i processply.obj
 0001:0000e950       ?applyFilter@?$StatisticalOutlierRemoval@UPointXYZRGB@pcl@@@pcl@@MEAAXAEAV?$vector@HV?$allocator@H@std@@@std@@@Z 000000014000f950 f i processply.obj
 0001:0000e960       ?assign@?$basic_string@_WU?$char_traits@_W@std@@V?$allocator@_W@2@@std@@QEAAAEAV12@AEBV12@_K1@Z 000000014000f960 f i processply.obj
 0001:0000eaa0       ?begin@?$iterator_range_base@Vdirectory_iterator@filesystem@boost@@Uincrementable_traversal_tag@iterators@3@@iterator_range_detail@boost@@QEBA?AVdirectory_iterator@filesystem@3@XZ 000000014000faa0 f i processply.obj
 0001:0000eae0       ?changeColorToGreen@Pointcloud@@QEAAXXZ 000000014000fae0 f   processply.obj
 0001:0000eb50       ?clear@?$vector@UPCLPointField@pcl@@V?$allocator@UPCLPointField@pcl@@@std@@@std@@QEAAXXZ 000000014000fb50 f i processply.obj
 0001:0000ebd0       ?clearDirectory@@YAXVpath@filesystem@boost@@@Z 000000014000fbd0 f   processply.obj
 0001:0000ed74       ?clone@?$clone_impl@Ubad_alloc_@exception_detail@boost@@@exception_detail@boost@@$0PPPPPPPM@A@EBAPEBVclone_base@23@XZ 000000014000fd74 f i processply.obj
 0001:0000ed80       ?clone@?$clone_impl@Ubad_alloc_@exception_detail@boost@@@exception_detail@boost@@EEBAPEBVclone_base@23@XZ 000000014000fd80 f i processply.obj
 0001:0000ee50       ?clone@?$clone_impl@Ubad_exception_@exception_detail@boost@@@exception_detail@boost@@$0PPPPPPPM@A@EBAPEBVclone_base@23@XZ 000000014000fe50 f i processply.obj
 0001:0000ee60       ?clone@?$clone_impl@Ubad_exception_@exception_detail@boost@@@exception_detail@boost@@EEBAPEBVclone_base@23@XZ 000000014000fe60 f i processply.obj
 0001:0000ef30       ?destroy@sp_counted_base@detail@boost@@UEAAXXZ 000000014000ff30 f i processply.obj
 0001:0000ef50       ?dispose@?$sp_counted_impl_p@Udir_itr_imp@detail@filesystem@boost@@@detail@boost@@UEAAXXZ 000000014000ff50 f i processply.obj
 0001:0000efb0       ?dispose@?$sp_counted_impl_p@V?$PointCloud@UPointXYZRGB@pcl@@@pcl@@@detail@boost@@UEAAXXZ 000000014000ffb0 f i processply.obj
 0001:0000efb0       ?dispose@?$sp_counted_impl_p@V?$clone_impl@Ubad_alloc_@exception_detail@boost@@@exception_detail@boost@@@detail@boost@@UEAAXXZ 000000014000ffb0 f i processply.obj
 0001:0000efb0       ?dispose@?$sp_counted_impl_p@V?$clone_impl@Ubad_exception_@exception_detail@boost@@@exception_detail@boost@@@detail@boost@@UEAAXXZ 000000014000ffb0 f i processply.obj
 0001:0000efd0       ?end@?$iterator_range_base@Vdirectory_iterator@filesystem@boost@@Uincrementable_traversal_tag@iterators@3@@iterator_range_detail@boost@@QEBA?AVdirectory_iterator@filesystem@3@XZ 000000014000ffd0 f i processply.obj
 0001:0000f010       ?erase@?$basic_string@_WU?$char_traits@_W@std@@V?$allocator@_W@2@@std@@QEAAAEAV12@_K0@Z 0000000140010010 f i processply.obj
 0001:0000f0c0       ?fieldOrdering@detail@pcl@@YA_NAEBUFieldMapping@12@0@Z 00000001400100c0 f i processply.obj
 0001:0000f0d0       ?filter@?$Filter@UPointXYZRGB@pcl@@@pcl@@QEAAXAEAV?$PointCloud@UPointXYZRGB@pcl@@@2@@Z 00000001400100d0 f i processply.obj
 0001:0000f280       ?findLatestFile@@YA?AVpath@filesystem@boost@@V123@@Z 0000000140010280 f   processply.obj
 0001:0000f760       ?get_deleter@?$sp_counted_impl_p@V?$vector@EV?$allocator@E@std@@@std@@@detail@boost@@UEAAPEAXAEBVtype_info@@@Z 0000000140010760 f i festo_udp_func.obj
 0001:0000f760       ?get_untyped_deleter@?$sp_counted_impl_p@V?$clone_impl@Ubad_alloc_@exception_detail@boost@@@exception_detail@boost@@@detail@boost@@UEAAPEAXXZ 0000000140010760 f i processply.obj
 0001:0000f760       ?get_deleter@?$sp_counted_impl_p@V?$vector@HV?$allocator@H@std@@@std@@@detail@boost@@UEAAPEAXAEBVtype_info@@@Z 0000000140010760 f i processply.obj
 0001:0000f760       _matherr                   0000000140010760 f i MSVCRT:merr.obj
 0001:0000f760       ?get_deleter@?$sp_counted_impl_p@V?$PointCloud@UPointXYZRGB@pcl@@@pcl@@@detail@boost@@UEAAPEAXAEBVtype_info@@@Z 0000000140010760 f i processply.obj
 0001:0000f760       ?get_untyped_deleter@?$sp_counted_impl_p@V?$vector@EV?$allocator@E@std@@@std@@@detail@boost@@UEAAPEAXXZ 0000000140010760 f i festo_udp_func.obj
 0001:0000f760       ?get_deleter@?$sp_counted_impl_p@V?$clone_impl@Ubad_alloc_@exception_detail@boost@@@exception_detail@boost@@@detail@boost@@UEAAPEAXAEBVtype_info@@@Z 0000000140010760 f i processply.obj
 0001:0000f760       _setargv                   0000000140010760 f i MSVCRT:dllargv.obj
 0001:0000f760       ?get_untyped_deleter@?$sp_counted_impl_p@V?$PointCloud@UPointXYZRGB@pcl@@@pcl@@@detail@boost@@UEAAPEAXXZ 0000000140010760 f i processply.obj
 0001:0000f760       ?get_untyped_deleter@?$sp_counted_impl_p@Udir_itr_imp@detail@filesystem@boost@@@detail@boost@@UEAAPEAXXZ 0000000140010760 f i processply.obj
 0001:0000f760       ?_Get_deleter@_Ref_count_base@std@@UEBAPEAXAEBVtype_info@@@Z 0000000140010760 f i udp_func.obj
 0001:0000f760       ?get_deleter@?$sp_counted_impl_p@V?$clone_impl@Ubad_exception_@exception_detail@boost@@@exception_detail@boost@@@detail@boost@@UEAAPEAXAEBVtype_info@@@Z 0000000140010760 f i processply.obj
 0001:0000f760       ?get_untyped_deleter@?$sp_counted_impl_p@V?$vector@HV?$allocator@H@std@@@std@@@detail@boost@@UEAAPEAXXZ 0000000140010760 f i processply.obj
 0001:0000f760       ?get_untyped_deleter@?$sp_counted_impl_p@V?$clone_impl@Ubad_exception_@exception_detail@boost@@@exception_detail@boost@@@detail@boost@@UEAAPEAXXZ 0000000140010760 f i processply.obj
 0001:0000f760       ?get_deleter@?$sp_counted_impl_p@Udir_itr_imp@detail@filesystem@boost@@@detail@boost@@UEAAPEAXAEBVtype_info@@@Z 0000000140010760 f i processply.obj
 0001:0000f770       ?processply@Pointcloud@@QEAAXXZ 0000000140010770 f   processply.obj
 0001:0000f8f0       ?push_back@?$vector@UFieldMapping@detail@pcl@@V?$allocator@UFieldMapping@detail@pcl@@@std@@@std@@QEAAXAEBUFieldMapping@detail@pcl@@@Z 00000001400108f0 f i processply.obj
 0001:0000f9b0       ?push_back@?$vector@UPCLPointField@pcl@@V?$allocator@UPCLPointField@pcl@@@std@@@std@@QEAAXAEBUPCLPointField@pcl@@@Z 00000001400109b0 f i processply.obj
 0001:0000faf0       ?range_begin@filesystem@boost@@YA?AVdirectory_iterator@12@AEBV312@@Z 0000000140010af0 f i processply.obj
 0001:0000fb30       ?range_end@filesystem@boost@@YA?AVdirectory_iterator@12@AEBV312@@Z 0000000140010b30 f i processply.obj
 0001:0000fb50       ?readply@Pointcloud@@QEAAXXZ 0000000140010b50 f   processply.obj
 0001:0000fd50       ?removeOutlyers@Pointcloud@@QEAAXXZ 0000000140010d50 f   processply.obj
 0001:000100c0       ?resize@?$vector@EV?$allocator@E@std@@@std@@QEAAX_K@Z 00000001400110c0 f i processply.obj
 0001:00010190       ?resize@?$vector@UPointXYZRGB@pcl@@V?$aligned_allocator@UPointXYZRGB@pcl@@@Eigen@@@std@@QEAAX_K@Z 0000000140011190 f i processply.obj
 0001:00010290       ?rethrow@?$clone_impl@Ubad_alloc_@exception_detail@boost@@@exception_detail@boost@@$0PPPPPPPM@A@EBAXXZ 0000000140011290 f i processply.obj
 0001:000102a0       ?rethrow@?$clone_impl@Ubad_alloc_@exception_detail@boost@@@exception_detail@boost@@EEBAXXZ 00000001400112a0 f i processply.obj
 0001:00010374       ?rethrow@?$clone_impl@Ubad_exception_@exception_detail@boost@@@exception_detail@boost@@$0PPPPPPPM@A@EBAXXZ 0000000140011374 f i processply.obj
 0001:00010380       ?rethrow@?$clone_impl@Ubad_exception_@exception_detail@boost@@@exception_detail@boost@@EEBAXXZ 0000000140011380 f i processply.obj
 0001:00010460       ?setLuxorCloudsDirectory@Pointcloud@@QEAAXXZ 0000000140011460 f   processply.obj
 0001:00010580       ?sp_enable_shared_from_this@detail@boost@@YAXZZ 0000000140011580 f i processply.obj
 0001:000105a0       ?string@path@filesystem@boost@@QEBA?BV?$basic_string@DU?$char_traits@D@std@@V?$allocator@D@2@@std@@XZ 00000001400115a0 f i processply.obj
 0001:00010640       ?throw_std_bad_alloc@internal@Eigen@@YAXXZ 0000000140011640 f i processply.obj
 0001:00010690       ?write@PLYWriter@pcl@@UEAAHAEBV?$basic_string@DU?$char_traits@D@std@@V?$allocator@D@2@@std@@AEBUPCLPointCloud2@2@AEBV?$Matrix@M$03$00$0A@$03$00@Eigen@@AEBV?$Quaternion@M$0A@@7@_N@Z 0000000140011690 f i processply.obj
 0001:000106d0       ??0?$basic_ostringstream@DU?$char_traits@D@std@@V?$allocator@D@2@@std@@QEAA@H@Z 00000001400116d0 f i processcontrol.obj
 0001:00010790       ??0?$basic_stringbuf@DU?$char_traits@D@std@@V?$allocator@D@2@@std@@QEAA@H@Z 0000000140011790 f i processcontrol.obj
 0001:00010800       ??0ProcessControl@@QEAA@XZ 0000000140011800 f   processcontrol.obj
 0001:000108d0       ??1Pointcloud@@QEAA@XZ     00000001400118d0 f i processcontrol.obj
 0001:00010940       ?DetectObject@ProcessControl@@QEAAXXZ 0000000140011940 f   processcontrol.obj
 0001:00010a70       ?ScanObject@ProcessControl@@QEAAXXZ 0000000140011a70 f   processcontrol.obj
 0001:00010c80       ?Trigger@ProcessControl@@QEAAXXZ 0000000140011c80 f   processcontrol.obj
 0001:00010df0       ?compare@?$basic_string@DU?$char_traits@D@std@@V?$allocator@D@2@@std@@QEBAHAEBV12@@Z 0000000140011df0 f i processcontrol.obj
 0001:00010e70       ?setAquisitionModes@ProcessControl@@QEAAXV?$basic_string@DU?$char_traits@D@std@@V?$allocator@D@2@@std@@0@Z 0000000140011e70 f i processcontrol.obj
 0001:00010f30       ?setIp@ProcessControl@@QEAAXV?$basic_string@DU?$char_traits@D@std@@V?$allocator@D@2@@std@@@Z 0000000140011f30 f i processcontrol.obj
 0001:00010fb0       ?setModelPath@ProcessControl@@QEAAXV?$basic_string@DU?$char_traits@D@std@@V?$allocator@D@2@@std@@@Z 0000000140011fb0 f i processcontrol.obj
 0001:000110d0       ?setPort@ProcessControl@@QEAAXV?$basic_string@DU?$char_traits@D@std@@V?$allocator@D@2@@std@@@Z 00000001400120d0 f i processcontrol.obj
 0001:00011150       ?startprocess@ProcessControl@@QEAAXXZ 0000000140012150 f   processcontrol.obj
 0001:00011320       ?switchAquisitionMode@ProcessControl@@QEAAXV?$basic_string@DU?$char_traits@D@std@@V?$allocator@D@2@@std@@@Z 0000000140012320 f   processcontrol.obj
 0001:000114d0       ??$?0V?$vector@EV?$allocator@E@std@@@std@@@shared_count@detail@boost@@QEAA@PEAV?$vector@EV?$allocator@E@std@@@std@@@Z 00000001400124d0 f i festo_udp_func.obj
 0001:00011540       ??$?HDU?$char_traits@D@std@@V?$allocator@D@1@@std@@YA?AV?$basic_string@DU?$char_traits@D@std@@V?$allocator@D@2@@0@PEBD$$QEAV10@@Z 0000000140012540 f i festo_udp_func.obj
 0001:00011590       ??$_Buynode@AEBUpiecewise_construct_t@std@@V?$tuple@AEBG@2@V?$tuple@$$$V@2@@?$_Tree_buy@U?$pair@$$CBGG@std@@V?$allocator@U?$pair@$$CBGG@std@@@2@@std@@QEAAPEAU?$_Tree_node@U?$pair@$$CBGG@std@@PEAX@1@AEBUpiecewise_construct_t@1@$$QEAV?$tuple@AEBG@1@$$QEAV?$tuple@$$$V@1@@Z 0000000140012590 f i festo_udp_func.obj
 0001:000115e0       ??$_Insert_at@AEAU?$pair@$$CBGG@std@@PEAU?$_Tree_node@U?$pair@$$CBGG@std@@PEAX@2@@?$_Tree@V?$_Tmap_traits@GGU?$less@G@std@@V?$allocator@U?$pair@$$CBGG@std@@@2@$0A@@std@@@std@@IEAA?AV?$_Tree_iterator@V?$_Tree_val@U?$_Tree_simple_types@U?$pair@$$CBGG@std@@@std@@@std@@@1@_NPEAU?$_Tree_node@U?$pair@$$CBGG@std@@PEAX@1@AEAU?$pair@$$CBGG@1@1@Z 00000001400125e0 f i festo_udp_func.obj
 0001:00011890       ??$_Insert_hint@AEAU?$pair@$$CBGG@std@@PEAU?$_Tree_node@U?$pair@$$CBGG@std@@PEAX@2@@?$_Tree@V?$_Tmap_traits@GGU?$less@G@std@@V?$allocator@U?$pair@$$CBGG@std@@@2@$0A@@std@@@std@@IEAA?AV?$_Tree_iterator@V?$_Tree_val@U?$_Tree_simple_types@U?$pair@$$CBGG@std@@@std@@@std@@@1@V?$_Tree_const_iterator@V?$_Tree_val@U?$_Tree_simple_types@U?$pair@$$CBGG@std@@@std@@@std@@@1@AEAU?$pair@$$CBGG@1@PEAU?$_Tree_node@U?$pair@$$CBGG@std@@PEAX@1@@Z 0000000140012890 f i festo_udp_func.obj
 0001:00011b00       ??$_Insert_nohint@AEAU?$pair@$$CBGG@std@@PEAU?$_Tree_node@U?$pair@$$CBGG@std@@PEAX@2@@?$_Tree@V?$_Tmap_traits@GGU?$less@G@std@@V?$allocator@U?$pair@$$CBGG@std@@@2@$0A@@std@@@std@@IEAA?AU?$pair@V?$_Tree_iterator@V?$_Tree_val@U?$_Tree_simple_types@U?$pair@$$CBGG@std@@@std@@@std@@@std@@_N@1@_NAEAU?$pair@$$CBGG@1@PEAU?$_Tree_node@U?$pair@$$CBGG@std@@PEAX@1@@Z 0000000140012b00 f i festo_udp_func.obj
 0001:00011c60       ??$send_to@Vmutable_buffers_1@asio@boost@@@?$basic_datagram_socket@Vudp@ip@asio@boost@@V?$datagram_socket_service@Vudp@ip@asio@boost@@@34@@asio@boost@@QEAA_KAEBVmutable_buffers_1@12@AEBV?$basic_endpoint@Vudp@ip@asio@boost@@@ip@12@@Z 0000000140012c60 f i festo_udp_func.obj
 0001:00011d10       ??0?$service_id@V?$resolver_service@Vudp@ip@asio@boost@@@ip@asio@boost@@@detail@asio@boost@@QEAA@XZ 0000000140012d10 f i udp_func.obj
 0001:00011d10       ??0?$_Wrap_alloc@V?$allocator@U?$_Tree_node@U?$pair@$$CBGG@std@@PEAX@std@@@std@@@std@@QEAA@XZ 0000000140012d10 f i festo_udp_func.obj
 0001:00011d10       ??0?$service_id@Vwin_iocp_io_service@detail@asio@boost@@@detail@asio@boost@@QEAA@XZ 0000000140012d10 f i main.obj
 0001:00011d10       ??0?$service_id@Vselect_reactor@detail@asio@boost@@@detail@asio@boost@@QEAA@XZ 0000000140012d10 f i main.obj
 0001:00011d10       ??0?$service_id@V?$datagram_socket_service@Vudp@ip@asio@boost@@@asio@boost@@@detail@asio@boost@@QEAA@XZ 0000000140012d10 f i udp_func.obj
 0001:00011d10       ??0?$service_id@Vstrand_service@detail@asio@boost@@@detail@asio@boost@@QEAA@XZ 0000000140012d10 f i main.obj
 0001:00011d20       ??0?$basic_string@DU?$char_traits@D@std@@V?$allocator@D@2@@std@@QEAA@$$QEAV01@@Z 0000000140012d20 f i festo_udp_func.obj
 0001:00011da0       ?LuxorSwitchAquisitionMode@@YA?AW4eUdpStatus@@V?$basic_string@DU?$char_traits@D@std@@V?$allocator@D@2@@std@@00@Z 0000000140012da0 f   festo_udp_func.obj
 0001:00012580       ?_Buyheadnode@?$_Tree_alloc@$0A@U?$_Tree_base_types@U?$pair@$$CBGG@std@@V?$allocator@U?$pair@$$CBGG@std@@@2@@std@@@std@@QEAAPEAU?$_Tree_node@U?$pair@$$CBGG@std@@PEAX@2@XZ 0000000140013580 f i festo_udp_func.obj
 0001:000125d0       ?_Buynode0@?$_Tree_buy@U?$pair@$$CBGG@std@@V?$allocator@U?$pair@$$CBGG@std@@@2@@std@@QEAAPEAU?$_Tree_node@U?$pair@$$CBGG@std@@PEAX@2@XZ 00000001400135d0 f i festo_udp_func.obj
 0001:00012630       ?_Erase@?$_Tree@V?$_Tmap_traits@GGU?$less@G@std@@V?$allocator@U?$pair@$$CBGG@std@@@2@$0A@@std@@@std@@IEAAXPEAU?$_Tree_node@U?$pair@$$CBGG@std@@PEAX@2@@Z 0000000140013630 f i festo_udp_func.obj
 0001:00012680       ?_Grow@?$basic_string@DU?$char_traits@D@std@@V?$allocator@D@2@@std@@QEAA_N_K_N@Z 0000000140013680 f i festo_udp_func.obj
 0001:00012750       ?_Lrotate@?$_Tree@V?$_Tmap_traits@GGU?$less@G@std@@V?$allocator@U?$pair@$$CBGG@std@@@2@$0A@@std@@@std@@IEAAXPEAU?$_Tree_node@U?$pair@$$CBGG@std@@PEAX@2@@Z 0000000140013750 f i festo_udp_func.obj
 0001:000127b0       ?_Rrotate@?$_Tree@V?$_Tmap_traits@GGU?$less@G@std@@V?$allocator@U?$pair@$$CBGG@std@@@2@$0A@@std@@@std@@IEAAXPEAU?$_Tree_node@U?$pair@$$CBGG@std@@PEAX@2@@Z 00000001400137b0 f i festo_udp_func.obj
 0001:00012810       ?checksum@udp@@YAGUudp_message@@@Z 0000000140013810 f   festo_udp_func.obj
 0001:00012950       ?clear@?$_Tree@V?$_Tmap_traits@GGU?$less@G@std@@V?$allocator@U?$pair@$$CBGG@std@@@2@$0A@@std@@@std@@QEAAXXZ 0000000140013950 f i festo_udp_func.obj
 0001:000129c0       ?data_size@udp@@YAHUudp_message@@@Z 00000001400139c0 f   festo_udp_func.obj
 0001:00012b30       ?dispose@?$sp_counted_impl_p@V?$vector@HV?$allocator@H@std@@@std@@@detail@boost@@UEAAXXZ 0000000140013b30 f i processply.obj
 0001:00012b30       ?dispose@?$sp_counted_impl_p@V?$vector@EV?$allocator@E@std@@@std@@@detail@boost@@UEAAXXZ 0000000140013b30 f i festo_udp_func.obj
 0001:00012b70       ?erase@?$_Tree@V?$_Tmap_traits@GGU?$less@G@std@@V?$allocator@U?$pair@$$CBGG@std@@@2@$0A@@std@@@std@@QEAA?AV?$_Tree_iterator@V?$_Tree_val@U?$_Tree_simple_types@U?$pair@$$CBGG@std@@@std@@@std@@@2@V?$_Tree_const_iterator@V?$_Tree_val@U?$_Tree_simple_types@U?$pair@$$CBGG@std@@@std@@@std@@@2@0@Z 0000000140013b70 f i festo_udp_func.obj
 0001:00012c50       ?erase@?$_Tree@V?$_Tmap_traits@GGU?$less@G@std@@V?$allocator@U?$pair@$$CBGG@std@@@2@$0A@@std@@@std@@QEAA?AV?$_Tree_iterator@V?$_Tree_val@U?$_Tree_simple_types@U?$pair@$$CBGG@std@@@std@@@std@@@2@V?$_Tree_const_iterator@V?$_Tree_val@U?$_Tree_simple_types@U?$pair@$$CBGG@std@@@std@@@std@@@2@@Z 0000000140013c50 f i festo_udp_func.obj
 0001:00013020       ?insert@?$basic_string@DU?$char_traits@D@std@@V?$allocator@D@2@@std@@QEAAAEAV12@_KAEBV12@00@Z 0000000140014020 f i festo_udp_func.obj
 0001:000131a0       ?insert@?$basic_string@DU?$char_traits@D@std@@V?$allocator@D@2@@std@@QEAAAEAV12@_KPEBD0@Z 00000001400141a0 f i festo_udp_func.obj
 0001:00013300       ?poll_write@socket_ops@detail@asio@boost@@YAH_KEAEAVerror_code@system@4@@Z 0000000140014300 f i festo_udp_func.obj
 0001:00013460       ?resize@?$vector@EV?$allocator@E@std@@@std@@QEAAX_KAEBE@Z 0000000140014460 f i festo_udp_func.obj
 0001:000135b0       ?send_message@udp@@YAXAEAV?$basic_datagram_socket@Vudp@ip@asio@boost@@V?$datagram_socket_service@Vudp@ip@asio@boost@@@34@@asio@boost@@AEAV?$basic_endpoint@Vudp@ip@asio@boost@@@ip@34@GTudp_message_data@@@Z 00000001400145b0 f   festo_udp_func.obj
 0001:00013760       ?send_message@udp@@YAXAEAV?$basic_datagram_socket@Vudp@ip@asio@boost@@V?$datagram_socket_service@Vudp@ip@asio@boost@@@34@@asio@boost@@AEAV?$basic_endpoint@Vudp@ip@asio@boost@@@ip@34@Uudp_message@@@Z 0000000140014760 f   festo_udp_func.obj
 0001:00013900       ?sendto@socket_ops@detail@asio@boost@@YAH_KPEBU_WSABUF@@0HPEBUsockaddr@@0AEAVerror_code@system@4@@Z 0000000140014900 f i festo_udp_func.obj
 0001:00013a10       ?sync_sendto@socket_ops@detail@asio@boost@@YA_K_KEPEBU_WSABUF@@0HPEBUsockaddr@@0AEAVerror_code@system@4@@Z 0000000140014a10 f i festo_udp_func.obj
 0001:00013b60       ?test_checksum@udp@@YA_NUudp_message@@@Z 0000000140014b60 f   festo_udp_func.obj
 0001:00013c50       ?to_string@std@@YA?AV?$basic_string@DU?$char_traits@D@std@@V?$allocator@D@2@@1@H@Z 0000000140014c50 f i festo_udp_func.obj
 0001:00013cf0       ??0MainWindow@@QEAA@PEAVQWidget@@@Z 0000000140014cf0 f   mainwindow.obj
 0001:000140e0       ??_EMainWindow@@WBA@EAAPEAXI@Z 00000001400150e0 f i mainwindow.obj
 0001:000140ec       ??_EQPlainTextEdit@@WBA@EAAPEAXI@Z 00000001400150ec f i mainwindow.obj
 0001:000140f8       ??_EQPushButton@@WBA@EAAPEAXI@Z 00000001400150f8 f i mainwindow.obj
 0001:00014104       ??_EQVBoxLayout@@WBA@EAAPEAXI@Z 0000000140015104 f i mainwindow.obj
 0001:00014110       ??_EQWidget@@WBA@EAAPEAXI@Z 0000000140015110 f i mainwindow.obj
 0001:00014120       ??_EMainWindow@@UEAAPEAXI@Z 0000000140015120 f i mainwindow.obj
 0001:00014120       ??_GMainWindow@@UEAAPEAXI@Z 0000000140015120 f i mainwindow.obj
 0001:00014160       ??_EQPlainTextEdit@@UEAAPEAXI@Z 0000000140015160 f i mainwindow.obj
 0001:00014160       ??_GQPlainTextEdit@@UEAAPEAXI@Z 0000000140015160 f i mainwindow.obj
 0001:00014190       ??_EQPushButton@@UEAAPEAXI@Z 0000000140015190 f i mainwindow.obj
 0001:00014190       ??_GQPushButton@@UEAAPEAXI@Z 0000000140015190 f i mainwindow.obj
 0001:000141c0       ??_GQTimer@@UEAAPEAXI@Z    00000001400151c0 f i mainwindow.obj
 0001:000141c0       ??_EQTimer@@UEAAPEAXI@Z    00000001400151c0 f i mainwindow.obj
 0001:000141f0       ??_GQVBoxLayout@@UEAAPEAXI@Z 00000001400151f0 f i mainwindow.obj
 0001:000141f0       ??_EQVBoxLayout@@UEAAPEAXI@Z 00000001400151f0 f i mainwindow.obj
 0001:00014220       ??_EQWidget@@UEAAPEAXI@Z   0000000140015220 f i mainwindow.obj
 0001:00014220       ??_GQWidget@@UEAAPEAXI@Z   0000000140015220 f i mainwindow.obj
 0001:00014250       ?btn1_clicked@MainWindow@@AEAAXXZ 0000000140015250 f   mainwindow.obj
 0001:00014270       ?btn2_clicked@MainWindow@@AEAAXXZ 0000000140015270 f   mainwindow.obj
 0001:00014280       ?btn3_clicked@MainWindow@@AEAAXXZ 0000000140015280 f   mainwindow.obj
 0001:00014380       ?printStatus@MainWindow@@QEAAXXZ 0000000140015380 f   mainwindow.obj
 0001:00014410       ?str@?$basic_ostringstream@DU?$char_traits@D@std@@V?$allocator@D@2@@std@@QEBA?AV?$basic_string@DU?$char_traits@D@std@@V?$allocator@D@2@@2@XZ 0000000140015410 f i mainwindow.obj
 0001:00014440       ?str@?$basic_stringbuf@DU?$char_traits@D@std@@V?$allocator@D@2@@std@@QEBA?AV?$basic_string@DU?$char_traits@D@std@@V?$allocator@D@2@@2@XZ 0000000140015440 f i mainwindow.obj
 0001:000145d0       ?timerfire@MainWindow@@AEAAXXZ 00000001400155d0 f   mainwindow.obj
 0001:000145e0       ?qInitResources_application@@YAHXZ 00000001400155e0 f   qrc_application.obj
 0001:00014610       ?metaObject@MainWindow@@UEBAPEBUQMetaObject@@XZ 0000000140015610 f   moc_mainwindow.obj
 0001:00014630       ?qt_metacall@MainWindow@@UEAAHW4Call@QMetaObject@@HPEAPEAX@Z 0000000140015630 f   moc_mainwindow.obj
 0001:000146d0       ?qt_metacast@MainWindow@@UEAAPEAXPEBD@Z 00000001400156d0 f   moc_mainwindow.obj
 0001:00014720       ?qt_static_metacall@MainWindow@@CAXPEAVQObject@@W4Call@QMetaObject@@HPEAPEAX@Z 0000000140015720 f   moc_mainwindow.obj
 0001:0001474e       ?print@console@pcl@@YAXW4VERBOSITY_LEVEL@12@PEBDZZ 000000014001574e f   pcl_common_release:pcl_common_release.dll
 0001:00014754       ??0?$PCLBase@UPointXYZRGB@pcl@@@pcl@@QEAA@XZ 0000000140015754 f   pcl_common_release:pcl_common_release.dll
 0001:0001475a       ?setInputCloud@?$PCLBase@UPointXYZRGB@pcl@@@pcl@@UEAAXAEBV?$shared_ptr@$$CBV?$PointCloud@UPointXYZRGB@pcl@@@pcl@@@boost@@@Z 000000014001575a f   pcl_common_release:pcl_common_release.dll
 0001:00014760       ?setIndices@?$PCLBase@UPointXYZRGB@pcl@@@pcl@@UEAAXAEBV?$shared_ptr@V?$vector@HV?$allocator@H@std@@@std@@@boost@@@Z 0000000140015760 f   pcl_common_release:pcl_common_release.dll
 0001:00014766       ?setIndices@?$PCLBase@UPointXYZRGB@pcl@@@pcl@@UEAAXAEBV?$shared_ptr@$$CBV?$vector@HV?$allocator@H@std@@@std@@@boost@@@Z 0000000140015766 f   pcl_common_release:pcl_common_release.dll
 0001:0001476c       ?setIndices@?$PCLBase@UPointXYZRGB@pcl@@@pcl@@UEAAXAEBV?$shared_ptr@$$CBUPointIndices@pcl@@@boost@@@Z 000000014001576c f   pcl_common_release:pcl_common_release.dll
 0001:00014772       ?setIndices@?$PCLBase@UPointXYZRGB@pcl@@@pcl@@UEAAX_K000@Z 0000000140015772 f   pcl_common_release:pcl_common_release.dll
 0001:00014778       ?initCompute@?$PCLBase@UPointXYZRGB@pcl@@@pcl@@IEAA_NXZ 0000000140015778 f   pcl_common_release:pcl_common_release.dll
 0001:0001477e       ?deinitCompute@?$PCLBase@UPointXYZRGB@pcl@@@pcl@@IEAA_NXZ 000000014001577e f   pcl_common_release:pcl_common_release.dll
 0001:00014784       ??$removeNaNFromPointCloud@UPointXYZRGB@pcl@@@pcl@@YAXAEBV?$PointCloud@UPointXYZRGB@pcl@@@0@AEAV10@AEAV?$vector@HV?$allocator@H@std@@@std@@@Z 0000000140015784 f   pcl_filters_release:pcl_filters_release.dll
 0001:0001478a       ?applyFilter@?$StatisticalOutlierRemoval@UPointXYZRGB@pcl@@@pcl@@MEAAXAEAV?$PointCloud@UPointXYZRGB@pcl@@@2@@Z 000000014001578a f   pcl_filters_release:pcl_filters_release.dll
 0001:00014790       ?applyFilterIndices@?$StatisticalOutlierRemoval@UPointXYZRGB@pcl@@@pcl@@IEAAXAEAV?$vector@HV?$allocator@H@std@@@std@@@Z 0000000140015790 f   pcl_filters_release:pcl_filters_release.dll
 0001:00014796       ?readHeader@PLYReader@pcl@@UEAAHAEBV?$basic_string@DU?$char_traits@D@std@@V?$allocator@D@2@@std@@AEAUPCLPointCloud2@2@AEAV?$Matrix@M$03$00$0A@$03$00@Eigen@@AEAV?$Quaternion@M$0A@@7@AEAH4AEAIH@Z 0000000140015796 f   pcl_io_release:pcl_io_release.dll
 0001:0001479c       ?read@PLYReader@pcl@@UEAAHAEBV?$basic_string@DU?$char_traits@D@std@@V?$allocator@D@2@@std@@AEAUPCLPointCloud2@2@AEAV?$Matrix@M$03$00$0A@$03$00@Eigen@@AEAV?$Quaternion@M$0A@@7@AEAHH@Z 000000014001579c f   pcl_io_release:pcl_io_release.dll
 0001:000147a2       ?writeASCII@PLYWriter@pcl@@QEAAHAEBV?$basic_string@DU?$char_traits@D@std@@V?$allocator@D@2@@std@@AEBUPCLPointCloud2@2@AEBV?$Matrix@M$03$00$0A@$03$00@Eigen@@AEBV?$Quaternion@M$0A@@7@H_N@Z 00000001400157a2 f   pcl_io_release:pcl_io_release.dll
 0001:000147a8       ?writeBinary@PLYWriter@pcl@@QEAAHAEBV?$basic_string@DU?$char_traits@D@std@@V?$allocator@D@2@@std@@AEBUPCLPointCloud2@2@AEBV?$Matrix@M$03$00$0A@$03$00@Eigen@@AEBV?$Quaternion@M$0A@@7@_N@Z 00000001400157a8 f   pcl_io_release:pcl_io_release.dll
 0001:000147ae       ?actionEvent@QWidget@@MEAAXPEAVQActionEvent@@@Z 00000001400157ae f   Qt5Widgets:Qt5Widgets.dll
 0001:000147b4       ?addItem@QBoxLayout@@UEAAXPEAVQLayoutItem@@@Z 00000001400157b4 f   Qt5Widgets:Qt5Widgets.dll
 0001:000147ba       ?canInsertFromMimeData@QPlainTextEdit@@MEBA_NPEBVQMimeData@@@Z 00000001400157ba f   Qt5Widgets:Qt5Widgets.dll
 0001:000147c0       ?changeEvent@QAbstractButton@@MEAAXPEAVQEvent@@@Z 00000001400157c0 f   Qt5Widgets:Qt5Widgets.dll
 0001:000147c6       ?changeEvent@QPlainTextEdit@@MEAAXPEAVQEvent@@@Z 00000001400157c6 f   Qt5Widgets:Qt5Widgets.dll
 0001:000147cc       ?changeEvent@QWidget@@MEAAXPEAVQEvent@@@Z 00000001400157cc f   Qt5Widgets:Qt5Widgets.dll
 0001:000147d2       ?checkStateSet@QAbstractButton@@MEAAXXZ 00000001400157d2 f   Qt5Widgets:Qt5Widgets.dll
 0001:000147d8       ?childEvent@QLayout@@MEAAXPEAVQChildEvent@@@Z 00000001400157d8 f   Qt5Widgets:Qt5Widgets.dll
 0001:000147de       ?closeEvent@QWidget@@MEAAXPEAVQCloseEvent@@@Z 00000001400157de f   Qt5Widgets:Qt5Widgets.dll
 0001:000147e4       ?contextMenuEvent@QMainWindow@@MEAAXPEAVQContextMenuEvent@@@Z 00000001400157e4 f   Qt5Widgets:Qt5Widgets.dll
 0001:000147ea       ?contextMenuEvent@QPlainTextEdit@@MEAAXPEAVQContextMenuEvent@@@Z 00000001400157ea f   Qt5Widgets:Qt5Widgets.dll
 0001:000147f0       ?contextMenuEvent@QWidget@@MEAAXPEAVQContextMenuEvent@@@Z 00000001400157f0 f   Qt5Widgets:Qt5Widgets.dll
 0001:000147f6       ?controlTypes@QLayout@@UEBA?AV?$QFlags@W4ControlType@QSizePolicy@@@@XZ 00000001400157f6 f   Qt5Widgets:Qt5Widgets.dll
 0001:000147fc       ?count@QBoxLayout@@UEBAHXZ 00000001400157fc f   Qt5Widgets:Qt5Widgets.dll
 0001:00014802       ?createMimeDataFromSelection@QPlainTextEdit@@MEBAPEAVQMimeData@@XZ 0000000140015802 f   Qt5Widgets:Qt5Widgets.dll
 0001:00014808       ?createPopupMenu@QMainWindow@@UEAAPEAVQMenu@@XZ 0000000140015808 f   Qt5Widgets:Qt5Widgets.dll
 0001:0001480e       ?devType@QWidget@@UEBAHXZ  000000014001580e f   Qt5Widgets:Qt5Widgets.dll
 0001:00014814       ?doSetTextCursor@QPlainTextEdit@@MEAAXAEBVQTextCursor@@@Z 0000000140015814 f   Qt5Widgets:Qt5Widgets.dll
 0001:0001481a       ?dragEnterEvent@QPlainTextEdit@@MEAAXPEAVQDragEnterEvent@@@Z 000000014001581a f   Qt5Widgets:Qt5Widgets.dll
 0001:00014820       ?dragEnterEvent@QWidget@@MEAAXPEAVQDragEnterEvent@@@Z 0000000140015820 f   Qt5Widgets:Qt5Widgets.dll
 0001:00014826       ?dragLeaveEvent@QPlainTextEdit@@MEAAXPEAVQDragLeaveEvent@@@Z 0000000140015826 f   Qt5Widgets:Qt5Widgets.dll
 0001:0001482c       ?dragLeaveEvent@QWidget@@MEAAXPEAVQDragLeaveEvent@@@Z 000000014001582c f   Qt5Widgets:Qt5Widgets.dll
 0001:00014832       ?dragMoveEvent@QPlainTextEdit@@MEAAXPEAVQDragMoveEvent@@@Z 0000000140015832 f   Qt5Widgets:Qt5Widgets.dll
 0001:00014838       ?dragMoveEvent@QWidget@@MEAAXPEAVQDragMoveEvent@@@Z 0000000140015838 f   Qt5Widgets:Qt5Widgets.dll
 0001:0001483e       ?dropEvent@QPlainTextEdit@@MEAAXPEAVQDropEvent@@@Z 000000014001583e f   Qt5Widgets:Qt5Widgets.dll
 0001:00014844       ?dropEvent@QWidget@@MEAAXPEAVQDropEvent@@@Z 0000000140015844 f   Qt5Widgets:Qt5Widgets.dll
 0001:0001484a       ?enterEvent@QWidget@@MEAAXPEAVQEvent@@@Z 000000014001584a f   Qt5Widgets:Qt5Widgets.dll
 0001:00014850       ?event@QMainWindow@@MEAA_NPEAVQEvent@@@Z 0000000140015850 f   Qt5Widgets:Qt5Widgets.dll
 0001:00014856       ?event@QPlainTextEdit@@MEAA_NPEAVQEvent@@@Z 0000000140015856 f   Qt5Widgets:Qt5Widgets.dll
 0001:0001485c       ?event@QPushButton@@MEAA_NPEAVQEvent@@@Z 000000014001585c f   Qt5Widgets:Qt5Widgets.dll
 0001:00014862       ?event@QWidget@@MEAA_NPEAVQEvent@@@Z 0000000140015862 f   Qt5Widgets:Qt5Widgets.dll
 0001:00014868       ?eventFilter@QAbstractScrollArea@@MEAA_NPEAVQObject@@PEAVQEvent@@@Z 0000000140015868 f   Qt5Widgets:Qt5Widgets.dll
 0001:0001486e       ?expandingDirections@QBoxLayout@@UEBA?AV?$QFlags@W4Orientation@Qt@@@@XZ 000000014001586e f   Qt5Widgets:Qt5Widgets.dll
 0001:00014874       ?focusInEvent@QPlainTextEdit@@MEAAXPEAVQFocusEvent@@@Z 0000000140015874 f   Qt5Widgets:Qt5Widgets.dll
 0001:0001487a       ?focusInEvent@QPushButton@@MEAAXPEAVQFocusEvent@@@Z 000000014001587a f   Qt5Widgets:Qt5Widgets.dll
 0001:00014880       ?focusInEvent@QWidget@@MEAAXPEAVQFocusEvent@@@Z 0000000140015880 f   Qt5Widgets:Qt5Widgets.dll
 0001:00014886       ?focusNextPrevChild@QPlainTextEdit@@MEAA_N_N@Z 0000000140015886 f   Qt5Widgets:Qt5Widgets.dll
 0001:0001488c       ?focusNextPrevChild@QWidget@@MEAA_N_N@Z 000000014001588c f   Qt5Widgets:Qt5Widgets.dll
 0001:00014892       ?focusOutEvent@QPlainTextEdit@@MEAAXPEAVQFocusEvent@@@Z 0000000140015892 f   Qt5Widgets:Qt5Widgets.dll
 0001:00014898       ?focusOutEvent@QPushButton@@MEAAXPEAVQFocusEvent@@@Z 0000000140015898 f   Qt5Widgets:Qt5Widgets.dll
 0001:0001489e       ?focusOutEvent@QWidget@@MEAAXPEAVQFocusEvent@@@Z 000000014001589e f   Qt5Widgets:Qt5Widgets.dll
 0001:000148a4       ?geometry@QLayout@@UEBA?AVQRect@@XZ 00000001400158a4 f   Qt5Widgets:Qt5Widgets.dll
 0001:000148aa       ?hasHeightForWidth@QBoxLayout@@UEBA_NXZ 00000001400158aa f   Qt5Widgets:Qt5Widgets.dll
 0001:000148b0       ?hasHeightForWidth@QWidget@@UEBA_NXZ 00000001400158b0 f   Qt5Widgets:Qt5Widgets.dll
 0001:000148b6       ?heightForWidth@QBoxLayout@@UEBAHH@Z 00000001400158b6 f   Qt5Widgets:Qt5Widgets.dll
 0001:000148bc       ?heightForWidth@QWidget@@UEBAHH@Z 00000001400158bc f   Qt5Widgets:Qt5Widgets.dll
 0001:000148c2       ?hideEvent@QWidget@@MEAAXPEAVQHideEvent@@@Z 00000001400158c2 f   Qt5Widgets:Qt5Widgets.dll
 0001:000148c8       ?hitButton@QAbstractButton@@MEBA_NAEBVQPoint@@@Z 00000001400158c8 f   Qt5Widgets:Qt5Widgets.dll
 0001:000148ce       ?indexOf@QLayout@@UEBAHPEAVQWidget@@@Z 00000001400158ce f   Qt5Widgets:Qt5Widgets.dll
 0001:000148d4       ?initPainter@QWidget@@MEBAXPEAVQPainter@@@Z 00000001400158d4 f   Qt5Widgets:Qt5Widgets.dll
 0001:000148da       ?inputMethodEvent@QPlainTextEdit@@MEAAXPEAVQInputMethodEvent@@@Z 00000001400158da f   Qt5Widgets:Qt5Widgets.dll
 0001:000148e0       ?inputMethodEvent@QWidget@@MEAAXPEAVQInputMethodEvent@@@Z 00000001400158e0 f   Qt5Widgets:Qt5Widgets.dll
 0001:000148e6       ?inputMethodQuery@QPlainTextEdit@@UEBA?AVQVariant@@W4InputMethodQuery@Qt@@@Z 00000001400158e6 f   Qt5Widgets:Qt5Widgets.dll
 0001:000148ec       ?inputMethodQuery@QWidget@@UEBA?AVQVariant@@W4InputMethodQuery@Qt@@@Z 00000001400158ec f   Qt5Widgets:Qt5Widgets.dll
 0001:000148f2       ?insertFromMimeData@QPlainTextEdit@@MEAAXPEBVQMimeData@@@Z 00000001400158f2 f   Qt5Widgets:Qt5Widgets.dll
 0001:000148f8       ?invalidate@QBoxLayout@@UEAAXXZ 00000001400158f8 f   Qt5Widgets:Qt5Widgets.dll
 0001:000148fe       ?isEmpty@QLayout@@UEBA_NXZ 00000001400158fe f   Qt5Widgets:Qt5Widgets.dll
 0001:00014904       ?itemAt@QBoxLayout@@UEBAPEAVQLayoutItem@@H@Z 0000000140015904 f   Qt5Widgets:Qt5Widgets.dll
 0001:0001490a       ?keyPressEvent@QPlainTextEdit@@MEAAXPEAVQKeyEvent@@@Z 000000014001590a f   Qt5Widgets:Qt5Widgets.dll
 0001:00014910       ?keyPressEvent@QPushButton@@MEAAXPEAVQKeyEvent@@@Z 0000000140015910 f   Qt5Widgets:Qt5Widgets.dll
 0001:00014916       ?keyPressEvent@QWidget@@MEAAXPEAVQKeyEvent@@@Z 0000000140015916 f   Qt5Widgets:Qt5Widgets.dll
 0001:0001491c       ?keyReleaseEvent@QAbstractButton@@MEAAXPEAVQKeyEvent@@@Z 000000014001591c f   Qt5Widgets:Qt5Widgets.dll
 0001:00014922       ?keyReleaseEvent@QPlainTextEdit@@MEAAXPEAVQKeyEvent@@@Z 0000000140015922 f   Qt5Widgets:Qt5Widgets.dll
 0001:00014928       ?keyReleaseEvent@QWidget@@MEAAXPEAVQKeyEvent@@@Z 0000000140015928 f   Qt5Widgets:Qt5Widgets.dll
 0001:0001492e       ?layout@QLayout@@UEAAPEAV1@XZ 000000014001592e f   Qt5Widgets:Qt5Widgets.dll
 0001:00014934       ?leaveEvent@QWidget@@MEAAXPEAVQEvent@@@Z 0000000140015934 f   Qt5Widgets:Qt5Widgets.dll
 0001:0001493a       ?loadResource@QPlainTextEdit@@UEAA?AVQVariant@@HAEBVQUrl@@@Z 000000014001593a f   Qt5Widgets:Qt5Widgets.dll
 0001:00014940       ?maximumSize@QBoxLayout@@UEBA?AVQSize@@XZ 0000000140015940 f   Qt5Widgets:Qt5Widgets.dll
 0001:00014946       ?metaObject@QPlainTextEdit@@UEBAPEBUQMetaObject@@XZ 0000000140015946 f   Qt5Widgets:Qt5Widgets.dll
 0001:0001494c       ?metaObject@QPushButton@@UEBAPEBUQMetaObject@@XZ 000000014001594c f   Qt5Widgets:Qt5Widgets.dll
 0001:00014952       ?metaObject@QVBoxLayout@@UEBAPEBUQMetaObject@@XZ 0000000140015952 f   Qt5Widgets:Qt5Widgets.dll
 0001:00014958       ?metaObject@QWidget@@UEBAPEBUQMetaObject@@XZ 0000000140015958 f   Qt5Widgets:Qt5Widgets.dll
 0001:0001495e       ?metric@QWidget@@MEBAHW4PaintDeviceMetric@QPaintDevice@@@Z 000000014001595e f   Qt5Widgets:Qt5Widgets.dll
 0001:00014964       ?minimumHeightForWidth@QBoxLayout@@UEBAHH@Z 0000000140015964 f   Qt5Widgets:Qt5Widgets.dll
 0001:0001496a       ?minimumSize@QBoxLayout@@UEBA?AVQSize@@XZ 000000014001596a f   Qt5Widgets:Qt5Widgets.dll
 0001:00014970       ?minimumSizeHint@QAbstractScrollArea@@UEBA?AVQSize@@XZ 0000000140015970 f   Qt5Widgets:Qt5Widgets.dll
 0001:00014976       ?minimumSizeHint@QPushButton@@UEBA?AVQSize@@XZ 0000000140015976 f   Qt5Widgets:Qt5Widgets.dll
 0001:0001497c       ?minimumSizeHint@QWidget@@UEBA?AVQSize@@XZ 000000014001597c f   Qt5Widgets:Qt5Widgets.dll
 0001:00014982       ?mouseDoubleClickEvent@QPlainTextEdit@@MEAAXPEAVQMouseEvent@@@Z 0000000140015982 f   Qt5Widgets:Qt5Widgets.dll
 0001:00014988       ?mouseDoubleClickEvent@QWidget@@MEAAXPEAVQMouseEvent@@@Z 0000000140015988 f   Qt5Widgets:Qt5Widgets.dll
 0001:0001498e       ?mouseMoveEvent@QAbstractButton@@MEAAXPEAVQMouseEvent@@@Z 000000014001598e f   Qt5Widgets:Qt5Widgets.dll
 0001:00014994       ?mouseMoveEvent@QPlainTextEdit@@MEAAXPEAVQMouseEvent@@@Z 0000000140015994 f   Qt5Widgets:Qt5Widgets.dll
 0001:0001499a       ?mouseMoveEvent@QWidget@@MEAAXPEAVQMouseEvent@@@Z 000000014001599a f   Qt5Widgets:Qt5Widgets.dll
 0001:000149a0       ?mousePressEvent@QAbstractButton@@MEAAXPEAVQMouseEvent@@@Z 00000001400159a0 f   Qt5Widgets:Qt5Widgets.dll
 0001:000149a6       ?mousePressEvent@QPlainTextEdit@@MEAAXPEAVQMouseEvent@@@Z 00000001400159a6 f   Qt5Widgets:Qt5Widgets.dll
 0001:000149ac       ?mousePressEvent@QWidget@@MEAAXPEAVQMouseEvent@@@Z 00000001400159ac f   Qt5Widgets:Qt5Widgets.dll
 0001:000149b2       ?mouseReleaseEvent@QAbstractButton@@MEAAXPEAVQMouseEvent@@@Z 00000001400159b2 f   Qt5Widgets:Qt5Widgets.dll
 0001:000149b8       ?mouseReleaseEvent@QPlainTextEdit@@MEAAXPEAVQMouseEvent@@@Z 00000001400159b8 f   Qt5Widgets:Qt5Widgets.dll
 0001:000149be       ?mouseReleaseEvent@QWidget@@MEAAXPEAVQMouseEvent@@@Z 00000001400159be f   Qt5Widgets:Qt5Widgets.dll
 0001:000149c4       ?moveEvent@QWidget@@MEAAXPEAVQMoveEvent@@@Z 00000001400159c4 f   Qt5Widgets:Qt5Widgets.dll
 0001:000149ca       ?nativeEvent@QWidget@@MEAA_NAEBVQByteArray@@PEAXPEAJ@Z 00000001400159ca f   Qt5Widgets:Qt5Widgets.dll
 0001:000149d0       ?nextCheckState@QAbstractButton@@MEAAXXZ 00000001400159d0 f   Qt5Widgets:Qt5Widgets.dll
 0001:000149d6       ?paintEngine@QWidget@@UEBAPEAVQPaintEngine@@XZ 00000001400159d6 f   Qt5Widgets:Qt5Widgets.dll
 0001:000149dc       ?paintEvent@QPlainTextEdit@@MEAAXPEAVQPaintEvent@@@Z 00000001400159dc f   Qt5Widgets:Qt5Widgets.dll
 0001:000149e2       ?paintEvent@QPushButton@@MEAAXPEAVQPaintEvent@@@Z 00000001400159e2 f   Qt5Widgets:Qt5Widgets.dll
 0001:000149e8       ?paintEvent@QWidget@@MEAAXPEAVQPaintEvent@@@Z 00000001400159e8 f   Qt5Widgets:Qt5Widgets.dll
 0001:000149ee       ?qt_metacall@QPlainTextEdit@@UEAAHW4Call@QMetaObject@@HPEAPEAX@Z 00000001400159ee f   Qt5Widgets:Qt5Widgets.dll
 0001:000149f4       ?qt_metacall@QPushButton@@UEAAHW4Call@QMetaObject@@HPEAPEAX@Z 00000001400159f4 f   Qt5Widgets:Qt5Widgets.dll
 0001:000149fa       ?qt_metacall@QVBoxLayout@@UEAAHW4Call@QMetaObject@@HPEAPEAX@Z 00000001400159fa f   Qt5Widgets:Qt5Widgets.dll
 0001:00014a00       ?qt_metacall@QWidget@@UEAAHW4Call@QMetaObject@@HPEAPEAX@Z 0000000140015a00 f   Qt5Widgets:Qt5Widgets.dll
 0001:00014a06       ?qt_metacast@QPlainTextEdit@@UEAAPEAXPEBD@Z 0000000140015a06 f   Qt5Widgets:Qt5Widgets.dll
 0001:00014a0c       ?qt_metacast@QPushButton@@UEAAPEAXPEBD@Z 0000000140015a0c f   Qt5Widgets:Qt5Widgets.dll
 0001:00014a12       ?qt_metacast@QVBoxLayout@@UEAAPEAXPEBD@Z 0000000140015a12 f   Qt5Widgets:Qt5Widgets.dll
 0001:00014a18       ?qt_metacast@QWidget@@UEAAPEAXPEBD@Z 0000000140015a18 f   Qt5Widgets:Qt5Widgets.dll
 0001:00014a1e       ?redirected@QWidget@@MEBAPEAVQPaintDevice@@PEAVQPoint@@@Z 0000000140015a1e f   Qt5Widgets:Qt5Widgets.dll
 0001:00014a24       ?resizeEvent@QPlainTextEdit@@MEAAXPEAVQResizeEvent@@@Z 0000000140015a24 f   Qt5Widgets:Qt5Widgets.dll
 0001:00014a2a       ?resizeEvent@QWidget@@MEAAXPEAVQResizeEvent@@@Z 0000000140015a2a f   Qt5Widgets:Qt5Widgets.dll
 0001:00014a30       ?scrollContentsBy@QPlainTextEdit@@MEAAXHH@Z 0000000140015a30 f   Qt5Widgets:Qt5Widgets.dll
 0001:00014a36       ?setGeometry@QBoxLayout@@UEAAXAEBVQRect@@@Z 0000000140015a36 f   Qt5Widgets:Qt5Widgets.dll
 0001:00014a3c       ?setVisible@QWidget@@UEAAX_N@Z 0000000140015a3c f   Qt5Widgets:Qt5Widgets.dll
 0001:00014a42       ?setupViewport@QAbstractScrollArea@@UEAAXPEAVQWidget@@@Z 0000000140015a42 f   Qt5Widgets:Qt5Widgets.dll
 0001:00014a48       ?sharedPainter@QWidget@@MEBAPEAVQPainter@@XZ 0000000140015a48 f   Qt5Widgets:Qt5Widgets.dll
 0001:00014a4e       ?showEvent@QPlainTextEdit@@MEAAXPEAVQShowEvent@@@Z 0000000140015a4e f   Qt5Widgets:Qt5Widgets.dll
 0001:00014a54       ?showEvent@QWidget@@MEAAXPEAVQShowEvent@@@Z 0000000140015a54 f   Qt5Widgets:Qt5Widgets.dll
 0001:00014a5a       ?sizeHint@QAbstractScrollArea@@UEBA?AVQSize@@XZ 0000000140015a5a f   Qt5Widgets:Qt5Widgets.dll
 0001:00014a60       ?sizeHint@QBoxLayout@@UEBA?AVQSize@@XZ 0000000140015a60 f   Qt5Widgets:Qt5Widgets.dll
 0001:00014a66       ?sizeHint@QPushButton@@UEBA?AVQSize@@XZ 0000000140015a66 f   Qt5Widgets:Qt5Widgets.dll
 0001:00014a6c       ?sizeHint@QWidget@@UEBA?AVQSize@@XZ 0000000140015a6c f   Qt5Widgets:Qt5Widgets.dll
 0001:00014a72       ?spacerItem@QLayoutItem@@UEAAPEAVQSpacerItem@@XZ 0000000140015a72 f   Qt5Widgets:Qt5Widgets.dll
 0001:00014a78       ?tabletEvent@QWidget@@MEAAXPEAVQTabletEvent@@@Z 0000000140015a78 f   Qt5Widgets:Qt5Widgets.dll
 0001:00014a7e       ?takeAt@QBoxLayout@@UEAAPEAVQLayoutItem@@H@Z 0000000140015a7e f   Qt5Widgets:Qt5Widgets.dll
 0001:00014a84       ?timerEvent@QAbstractButton@@MEAAXPEAVQTimerEvent@@@Z 0000000140015a84 f   Qt5Widgets:Qt5Widgets.dll
 0001:00014a8a       ?timerEvent@QPlainTextEdit@@MEAAXPEAVQTimerEvent@@@Z 0000000140015a8a f   Qt5Widgets:Qt5Widgets.dll
 0001:00014a90       ?viewportEvent@QAbstractScrollArea@@MEAA_NPEAVQEvent@@@Z 0000000140015a90 f   Qt5Widgets:Qt5Widgets.dll
 0001:00014a96       ?viewportSizeHint@QAbstractScrollArea@@MEBA?AVQSize@@XZ 0000000140015a96 f   Qt5Widgets:Qt5Widgets.dll
 0001:00014a9c       ?wheelEvent@QPlainTextEdit@@MEAAXPEAVQWheelEvent@@@Z 0000000140015a9c f   Qt5Widgets:Qt5Widgets.dll
 0001:00014aa2       ?wheelEvent@QWidget@@MEAAXPEAVQWheelEvent@@@Z 0000000140015aa2 f   Qt5Widgets:Qt5Widgets.dll
 0001:00014aa8       ?widget@QLayoutItem@@UEAAPEAVQWidget@@XZ 0000000140015aa8 f   Qt5Widgets:Qt5Widgets.dll
 0001:00014aae       ?childEvent@QObject@@MEAAXPEAVQChildEvent@@@Z 0000000140015aae f   Qt5Core:Qt5Core.dll
 0001:00014ab4       ?connectNotify@QObject@@MEAAXAEBVQMetaMethod@@@Z 0000000140015ab4 f   Qt5Core:Qt5Core.dll
 0001:00014aba       ?customEvent@QObject@@MEAAXPEAVQEvent@@@Z 0000000140015aba f   Qt5Core:Qt5Core.dll
 0001:00014ac0       ?disconnectNotify@QObject@@MEAAXAEBVQMetaMethod@@@Z 0000000140015ac0 f   Qt5Core:Qt5Core.dll
 0001:00014ac6       ?event@QObject@@UEAA_NPEAVQEvent@@@Z 0000000140015ac6 f   Qt5Core:Qt5Core.dll
 0001:00014acc       ?eventFilter@QObject@@UEAA_NPEAV1@PEAVQEvent@@@Z 0000000140015acc f   Qt5Core:Qt5Core.dll
 0001:00014ad2       ?metaObject@QTimer@@UEBAPEBUQMetaObject@@XZ 0000000140015ad2 f   Qt5Core:Qt5Core.dll
 0001:00014ad8       ?qt_metacall@QTimer@@UEAAHW4Call@QMetaObject@@HPEAPEAX@Z 0000000140015ad8 f   Qt5Core:Qt5Core.dll
 0001:00014ade       ?qt_metacast@QTimer@@UEAAPEAXPEBD@Z 0000000140015ade f   Qt5Core:Qt5Core.dll
 0001:00014ae4       ?timerEvent@QObject@@MEAAXPEAVQTimerEvent@@@Z 0000000140015ae4 f   Qt5Core:Qt5Core.dll
 0001:00014aea       ?timerEvent@QTimer@@MEAAXPEAVQTimerEvent@@@Z 0000000140015aea f   Qt5Core:Qt5Core.dll
 0001:00014af0       ?qRegisterResourceData@@YA_NHPEBE00@Z 0000000140015af0 f   Qt5Core:Qt5Core.dll
 0001:00014af6       ?qUnregisterResourceData@@YA_NHPEBE00@Z 0000000140015af6 f   Qt5Core:Qt5Core.dll
 0001:00014afc       ?_Lock@?$basic_streambuf@DU?$char_traits@D@std@@@std@@UEAAXXZ 0000000140015afc f   msvcprt:MSVCP120.dll
 0001:00014b02       ?_Unlock@?$basic_streambuf@DU?$char_traits@D@std@@@std@@UEAAXXZ 0000000140015b02 f   msvcprt:MSVCP120.dll
 0001:00014b08       ?imbue@?$basic_streambuf@DU?$char_traits@D@std@@@std@@MEAAXAEBVlocale@2@@Z 0000000140015b08 f   msvcprt:MSVCP120.dll
 0001:00014b0e       ?setbuf@?$basic_streambuf@DU?$char_traits@D@std@@@std@@MEAAPEAV12@PEAD_J@Z 0000000140015b0e f   msvcprt:MSVCP120.dll
 0001:00014b14       ?showmanyc@?$basic_streambuf@DU?$char_traits@D@std@@@std@@MEAA_JXZ 0000000140015b14 f   msvcprt:MSVCP120.dll
 0001:00014b1a       ?sync@?$basic_streambuf@DU?$char_traits@D@std@@@std@@MEAAHXZ 0000000140015b1a f   msvcprt:MSVCP120.dll
 0001:00014b20       ?uflow@?$basic_streambuf@DU?$char_traits@D@std@@@std@@MEAAHXZ 0000000140015b20 f   msvcprt:MSVCP120.dll
 0001:00014b26       ?xsgetn@?$basic_streambuf@DU?$char_traits@D@std@@@std@@MEAA_JPEAD_J@Z 0000000140015b26 f   msvcprt:MSVCP120.dll
 0001:00014b2c       ?xsputn@?$basic_streambuf@DU?$char_traits@D@std@@@std@@MEAA_JPEBD_J@Z 0000000140015b2c f   msvcprt:MSVCP120.dll
 0001:00014b40       ??1local_free_on_destruction@detail@system@boost@@QEAA@XZ 0000000140015b40 f i libboost_system-vc120-mt-1_63:error_code.obj
 0001:00014b50       ?default_error_condition@system_error_category@?A0x268fe48c@system@boost@@UEBA?AVerror_condition@34@H@Z 0000000140015b50 f   libboost_system-vc120-mt-1_63:error_code.obj
 0001:00015160       ?generic_category@system@boost@@YAAEBVerror_category@12@XZ 0000000140016160 f   libboost_system-vc120-mt-1_63:error_code.obj
 0001:000151b0       ?make_error_condition@errc@system@boost@@YA?AVerror_condition@23@W4errc_t@123@@Z 00000001400161b0 f i libboost_system-vc120-mt-1_63:error_code.obj
 0001:00015220       ?message@generic_error_category@?A0x268fe48c@system@boost@@UEBA?AV?$basic_string@DU?$char_traits@D@std@@V?$allocator@D@2@@std@@H@Z 0000000140016220 f   libboost_system-vc120-mt-1_63:error_code.obj
 0001:000153b0       ?message@system_error_category@?A0x268fe48c@system@boost@@UEBA?AV?$basic_string@DU?$char_traits@D@std@@V?$allocator@D@2@@std@@H@Z 00000001400163b0 f   libboost_system-vc120-mt-1_63:error_code.obj
 0001:000155d0       ?name@generic_error_category@?A0x268fe48c@system@boost@@UEBAPEBDXZ 00000001400165d0 f   libboost_system-vc120-mt-1_63:error_code.obj
 0001:000155e0       ?name@system_error_category@?A0x268fe48c@system@boost@@UEBAPEBDXZ 00000001400165e0 f   libboost_system-vc120-mt-1_63:error_code.obj
 0001:000155f0       ?system_category@system@boost@@YAAEBVerror_category@12@XZ 00000001400165f0 f   libboost_system-vc120-mt-1_63:error_code.obj
 0001:00015640       ??$destroy@PEAD@?$_Wrap_alloc@V?$allocator@D@std@@@std@@QEAAXPEAPEAD@Z 0000000140016640 f i libboost_system-vc120-mt-1_63:error_code.obj
 0001:00015640       ??$destroy@PEA_W@?$_Wrap_alloc@V?$allocator@_W@std@@@std@@QEAAXPEAPEA_W@Z 0000000140016640 f i libboost_filesystem-vc120-mt-1_63:path_traits.obj
 0001:00015650       ??0?$_Wrap_alloc@V?$allocator@_W@std@@@std@@QEAA@XZ 0000000140016650 f i libboost_filesystem-vc120-mt-1_63:path_traits.obj
 0001:00015650       ??0?$_Wrap_alloc@V?$allocator@D@std@@@std@@QEAA@XZ 0000000140016650 f i libboost_system-vc120-mt-1_63:error_code.obj
 0001:00015660       ??1?$scoped_array@_W@boost@@QEAA@XZ 0000000140016660 f i libboost_filesystem-vc120-mt-1_63:path_traits.obj
 0001:00015660       ??1?$scoped_array@D@boost@@QEAA@XZ 0000000140016660 f i libboost_filesystem-vc120-mt-1_63:path_traits.obj
 0001:00015670       ?_Grow@?$basic_string@_WU?$char_traits@_W@std@@V?$allocator@_W@2@@std@@QEAA_N_K_N@Z 0000000140016670 f i libboost_filesystem-vc120-mt-1_63:path_traits.obj
 0001:00015750       ?_Myptr@?$_String_val@U?$_Simple_types@_W@std@@@std@@QEBAPEB_WXZ 0000000140016750 f i libboost_filesystem-vc120-mt-1_63:path_traits.obj
 0001:00015760       ?convert@path_traits@filesystem@boost@@YAXPEBD0AEAV?$basic_string@_WU?$char_traits@_W@std@@V?$allocator@_W@2@@std@@AEBV?$codecvt@_WDH@5@@Z 0000000140016760 f   libboost_filesystem-vc120-mt-1_63:path_traits.obj
 0001:00015850       ?convert@path_traits@filesystem@boost@@YAXPEB_W0AEAV?$basic_string@DU?$char_traits@D@std@@V?$allocator@D@2@@std@@AEBV?$codecvt@_WDH@5@@Z 0000000140016850 f   libboost_filesystem-vc120-mt-1_63:path_traits.obj
 0001:00015940       ?convert_aux@?A0x7489c2fd@@YAXPEBD0PEA_W1AEAV?$basic_string@_WU?$char_traits@_W@std@@V?$allocator@_W@2@@std@@AEBV?$codecvt@_WDH@3@@Z 0000000140016940 f   libboost_filesystem-vc120-mt-1_63:path_traits.obj
 0001:00015a80       ?convert_aux@?A0x7489c2fd@@YAXPEB_W0PEAD1AEAV?$basic_string@DU?$char_traits@D@std@@V?$allocator@D@2@@std@@AEBV?$codecvt@_WDH@3@@Z 0000000140016a80 f   libboost_filesystem-vc120-mt-1_63:path_traits.obj
 0001:00015bc0       ?replace@?$basic_string@DU?$char_traits@D@std@@V?$allocator@D@2@@std@@QEAAAEAV12@V?$_String_const_iterator@V?$_String_val@U?$_Simple_types@D@std@@@std@@@2@0PEAD1@Z 0000000140016bc0 f i libboost_filesystem-vc120-mt-1_63:path_traits.obj
 0001:00015c50       ?replace@?$basic_string@DU?$char_traits@D@std@@V?$allocator@D@2@@std@@QEAAAEAV12@_K0AEBV12@00@Z 0000000140016c50 f i libboost_filesystem-vc120-mt-1_63:path_traits.obj
 0001:00015fd0       ?replace@?$basic_string@DU?$char_traits@D@std@@V?$allocator@D@2@@std@@QEAAAEAV12@_K0PEBD0@Z 0000000140016fd0 f i libboost_filesystem-vc120-mt-1_63:path_traits.obj
 0001:00016200       ?replace@?$basic_string@_WU?$char_traits@_W@std@@V?$allocator@_W@2@@std@@QEAAAEAV12@V?$_String_const_iterator@V?$_String_val@U?$_Simple_types@_W@std@@@std@@@2@0PEA_W1@Z 0000000140017200 f i libboost_filesystem-vc120-mt-1_63:path_traits.obj
 0001:00016200       ?replace@?$basic_string@_WU?$char_traits@_W@std@@V?$allocator@_W@2@@std@@QEAAAEAV12@V?$_String_const_iterator@V?$_String_val@U?$_Simple_types@_W@std@@@std@@@2@0PEB_W1@Z 0000000140017200 f i libboost_filesystem-vc120-mt-1_63:path.obj
 0001:000162b0       ?replace@?$basic_string@_WU?$char_traits@_W@std@@V?$allocator@_W@2@@std@@QEAAAEAV12@_K0AEBV12@00@Z 00000001400172b0 f i libboost_filesystem-vc120-mt-1_63:path_traits.obj
 0001:00016640       ?replace@?$basic_string@_WU?$char_traits@_W@std@@V?$allocator@_W@2@@std@@QEAAAEAV12@_K0PEB_W0@Z 0000000140017640 f i libboost_filesystem-vc120-mt-1_63:path_traits.obj
 0001:00016880       ??$?0PEB_W@path@filesystem@boost@@QEAA@PEB_W0@Z 0000000140017880 f i libboost_filesystem-vc120-mt-1_63:path.obj
 0001:00016980       ??$?9Viterator@path@filesystem@boost@@$$CBV123@Ubidirectional_traversal_tag@iterators@3@AEBV123@_JV0123@$$CBV123@U453@AEBV123@_J@iterators@boost@@YA_NAEBV?$iterator_facade@Viterator@path@filesystem@boost@@$$CBV234@Ubidirectional_traversal_tag@iterators@4@AEBV234@_J@01@0@Z 0000000140017980 f i libboost_filesystem-vc120-mt-1_63:path.obj
 0001:000169b0       ??$use_facet@V?$codecvt@_WDH@std@@@std@@YAAEBV?$codecvt@_WDH@0@AEBVlocale@0@@Z 00000001400179b0 f i libboost_filesystem-vc120-mt-1_63:path.obj
 0001:00016ac0       ??0path@filesystem@boost@@QEAA@$$QEAV012@@Z 0000000140017ac0 f i libboost_filesystem-vc120-mt-1_63:path.obj
 0001:00016b30       ??1iterator@path@filesystem@boost@@QEAA@XZ 0000000140017b30 f i libboost_filesystem-vc120-mt-1_63:path.obj
 0001:00016b60       ??1locale@std@@QEAA@XZ     0000000140017b60 f i libboost_filesystem-vc120-mt-1_63:path.obj
 0001:00016b90       ??4?$basic_string@_WU?$char_traits@_W@std@@V?$allocator@_W@2@@std@@QEAAAEAV01@_W@Z 0000000140017b90 f i libboost_filesystem-vc120-mt-1_63:path.obj
 0001:00016c00       ??_0path@filesystem@boost@@QEAAAEAV012@AEBV012@@Z 0000000140017c00 f   libboost_filesystem-vc120-mt-1_63:path.obj
 0001:00016db0       ??_Gwindows_file_codecvt@@UEAAPEAXI@Z 0000000140017db0 f i libboost_filesystem-vc120-mt-1_63:path.obj
 0001:00016db0       ??_Ewindows_file_codecvt@@UEAAPEAXI@Z 0000000140017db0 f i libboost_filesystem-vc120-mt-1_63:path.obj
 0001:00016e00       ?append@?$basic_string@_WU?$char_traits@_W@std@@V?$allocator@_W@2@@std@@QEAAAEAV12@AEBV12@_K1@Z 0000000140017e00 f i libboost_filesystem-vc120-mt-1_63:path.obj
 0001:00016f40       ?append@?$basic_string@_WU?$char_traits@_W@std@@V?$allocator@_W@2@@std@@QEAAAEAV12@PEB_W_K@Z 0000000140017f40 f i libboost_filesystem-vc120-mt-1_63:path.obj
 0001:000170b0       ?append@?$basic_string@_WU?$char_traits@_W@std@@V?$allocator@_W@2@@std@@QEAAAEAV12@_K_W@Z 00000001400180b0 f i libboost_filesystem-vc120-mt-1_63:path.obj
 0001:000171e0       ?assign@?$basic_string@_WU?$char_traits@_W@std@@V?$allocator@_W@2@@std@@QEAAAEAV12@PEB_W_K@Z 00000001400181e0 f i libboost_filesystem-vc120-mt-1_63:path.obj
 0001:00017330       ?begin@path@filesystem@boost@@QEBA?AViterator@123@XZ 0000000140018330 f   libboost_filesystem-vc120-mt-1_63:path.obj
 0001:00017460       ?codecvt@path@filesystem@boost@@SAAEBV?$codecvt@_WDH@std@@XZ 0000000140018460 f   libboost_filesystem-vc120-mt-1_63:path.obj
 0001:000174b0       ?compare@?$basic_string@_WU?$char_traits@_W@std@@V?$allocator@_W@2@@std@@QEBAH_K0PEB_W0@Z 00000001400184b0 f i libboost_filesystem-vc120-mt-1_63:path.obj
 0001:00017560       ?compare@path@filesystem@boost@@QEBAHAEBV123@@Z 0000000140018560 f   libboost_filesystem-vc120-mt-1_63:path.obj
 0001:00017610       ?default_locale@?A0x2a37e08c@@YA?AVlocale@std@@XZ 0000000140018610 f   libboost_filesystem-vc120-mt-1_63:path.obj
 0001:00017710       ?do_always_noconv@windows_file_codecvt@@MEBA_NXZ 0000000140018710 f i libboost_filesystem-vc120-mt-1_63:path.obj
 0001:00017720       ?do_max_length@windows_file_codecvt@@MEBAHXZ 0000000140018720 f i libboost_filesystem-vc120-mt-1_63:path.obj
 0001:00017720       ?do_unshift@windows_file_codecvt@@MEBAHAEAHPEAD1AEAPEAD@Z 0000000140018720 f i libboost_filesystem-vc120-mt-1_63:path.obj
 0001:00017720       ?do_encoding@windows_file_codecvt@@MEBAHXZ 0000000140018720 f i libboost_filesystem-vc120-mt-1_63:path.obj
 0001:00017720       ?get_untyped_deleter@?$sp_counted_impl_p@Um_imp@filesystem_error@filesystem@boost@@@detail@boost@@UEAAPEAXXZ 0000000140018720 f i libboost_filesystem-vc120-mt-1_63:operations.obj
 0001:00017720       ?get_deleter@?$sp_counted_impl_p@Um_imp@filesystem_error@filesystem@boost@@@detail@boost@@UEAAPEAXAEBVtype_info@@@Z 0000000140018720 f i libboost_filesystem-vc120-mt-1_63:operations.obj
 0001:00017720       ?do_length@windows_file_codecvt@@MEBAHAEAHPEBD1_K@Z 0000000140018720 f i libboost_filesystem-vc120-mt-1_63:path.obj
 0001:00017730       ?dot_dot_path@detail@filesystem@boost@@YAAEBVpath@23@XZ 0000000140018730 f   libboost_filesystem-vc120-mt-1_63:path.obj
 0001:000177b0       ?dot_path@detail@filesystem@boost@@YAAEBVpath@23@XZ 00000001400187b0 f   libboost_filesystem-vc120-mt-1_63:path.obj
 0001:00017830       ?end@path@filesystem@boost@@QEBA?AViterator@123@XZ 0000000140018830 f   libboost_filesystem-vc120-mt-1_63:path.obj
 0001:00017860       ?extension@path@filesystem@boost@@QEBA?AV123@XZ 0000000140018860 f   libboost_filesystem-vc120-mt-1_63:path.obj
 0001:00017ad0       ?filename@path@filesystem@boost@@QEBA?AV123@XZ 0000000140018ad0 f   libboost_filesystem-vc120-mt-1_63:path.obj
 0001:00017ca0       ?filename_pos@?A0x2a37e08c@@YA_KAEBV?$basic_string@_WU?$char_traits@_W@std@@V?$allocator@_W@2@@std@@_K@Z 0000000140018ca0 f   libboost_filesystem-vc120-mt-1_63:path.obj
 0001:00017db0       ?find_first_of@?$basic_string@_WU?$char_traits@_W@std@@V?$allocator@_W@2@@std@@QEBA_KPEB_W_K1@Z 0000000140018db0 f i libboost_filesystem-vc120-mt-1_63:path.obj
 0001:00017e60       ?find_last_of@?$basic_string@_WU?$char_traits@_W@std@@V?$allocator@_W@2@@std@@QEBA_KPEB_W_K1@Z 0000000140018e60 f i libboost_filesystem-vc120-mt-1_63:path.obj
 0001:00017f10       ?rfind@?$basic_string@_WU?$char_traits@_W@std@@V?$allocator@_W@2@@std@@QEBA_K_W_K@Z 0000000140018f10 f i libboost_filesystem-vc120-mt-1_63:path.obj
 0001:00017f10       ?find_last_of@?$basic_string@_WU?$char_traits@_W@std@@V?$allocator@_W@2@@std@@QEBA_K_W_K@Z 0000000140018f10 f i libboost_filesystem-vc120-mt-1_63:path.obj
 0001:00017fe0       ?first_element@?A0x2a37e08c@@YAXAEBV?$basic_string@_WU?$char_traits@_W@std@@V?$allocator@_W@2@@std@@AEA_K1_K@Z 0000000140018fe0 f   libboost_filesystem-vc120-mt-1_63:path.obj
 0001:00018160       ?is_root_separator@?A0x2a37e08c@@YA_NAEBV?$basic_string@_WU?$char_traits@_W@std@@V?$allocator@_W@2@@std@@_K@Z 0000000140019160 f   libboost_filesystem-vc120-mt-1_63:path.obj
 0001:00018270       ?lex_compare@detail@filesystem@boost@@YAHViterator@path@23@000@Z 0000000140019270 f   libboost_filesystem-vc120-mt-1_63:path.obj
 0001:000185e0       ?m_parent_path_end@path@filesystem@boost@@AEBA_KXZ 00000001400195e0 f   libboost_filesystem-vc120-mt-1_63:path.obj
 0001:000186b0       ?m_path_iterator_increment@path@filesystem@boost@@CAXAEAViterator@123@@Z 00000001400196b0 f   libboost_filesystem-vc120-mt-1_63:path.obj
 0001:000188e0       ?parent_path@path@filesystem@boost@@QEBA?AV123@XZ 00000001400198e0 f   libboost_filesystem-vc120-mt-1_63:path.obj
 0001:00018a30       ?remove_filename@path@filesystem@boost@@QEAAAEAV123@XZ 0000000140019a30 f   libboost_filesystem-vc120-mt-1_63:path.obj
 0001:00018a90       ?root_directory_start@?A0x2a37e08c@@YA_KAEBV?$basic_string@_WU?$char_traits@_W@std@@V?$allocator@_W@2@@std@@_K@Z 0000000140019a90 f   libboost_filesystem-vc120-mt-1_63:path.obj
 0001:00018ca0       ?substr@?$basic_string@_WU?$char_traits@_W@std@@V?$allocator@_W@2@@std@@QEBA?AV12@_K0@Z 0000000140019ca0 f i libboost_filesystem-vc120-mt-1_63:path.obj
 0001:00018ce0       ??$?0Um_imp@filesystem_error@filesystem@boost@@@shared_count@detail@boost@@QEAA@PEAUm_imp@filesystem_error@filesystem@2@@Z 0000000140019ce0 f i libboost_filesystem-vc120-mt-1_63:operations.obj
 0001:00018d50       ??$reset@Um_imp@filesystem_error@filesystem@boost@@@?$shared_ptr@Um_imp@filesystem_error@filesystem@boost@@@boost@@QEAAXPEAUm_imp@filesystem_error@filesystem@1@@Z 0000000140019d50 f i libboost_filesystem-vc120-mt-1_63:operations.obj
 0001:00018e50       ??0directory_iterator@filesystem@boost@@QEAA@AEBVpath@12@AEAVerror_code@system@2@@Z 0000000140019e50 f i libboost_filesystem-vc120-mt-1_63:operations.obj
 0001:00018f00       ??0filesystem_error@filesystem@boost@@QEAA@AEBV012@@Z 0000000140019f00 f i libboost_filesystem-vc120-mt-1_63:operations.obj
 0001:00018f50       ??0filesystem_error@filesystem@boost@@QEAA@AEBV?$basic_string@DU?$char_traits@D@std@@V?$allocator@D@2@@std@@AEBVpath@12@Verror_code@system@2@@Z 0000000140019f50 f i libboost_filesystem-vc120-mt-1_63:operations.obj
 0001:00019050       ??1?$shared_ptr@Um_imp@filesystem_error@filesystem@boost@@@boost@@QEAA@XZ 000000014001a050 f i libboost_filesystem-vc120-mt-1_63:operations.obj
 0001:000190a0       ??1filesystem_error@filesystem@boost@@UEAA@XZ 000000014001a0a0 f i libboost_filesystem-vc120-mt-1_63:operations.obj
 0001:00019140       ??1handle_wrapper@?A0x22c0dbb4@@QEAA@XZ 000000014001a140 f i libboost_filesystem-vc120-mt-1_63:operations.obj
 0001:00019160       ??1m_imp@filesystem_error@filesystem@boost@@QEAA@XZ 000000014001a160 f i libboost_filesystem-vc120-mt-1_63:operations.obj
 0001:000191e0       ??4?$shared_ptr@Udir_itr_imp@detail@filesystem@boost@@@boost@@QEAAAEAV01@AEBV01@@Z 000000014001a1e0 f i libboost_filesystem-vc120-mt-1_63:operations.obj
 0001:00019280       ??_E?$sp_counted_impl_p@Um_imp@filesystem_error@filesystem@boost@@@detail@boost@@UEAAPEAXI@Z 000000014001a280 f i libboost_filesystem-vc120-mt-1_63:operations.obj
 0001:00019280       ??_G?$sp_counted_impl_p@Um_imp@filesystem_error@filesystem@boost@@@detail@boost@@UEAAPEAXI@Z 000000014001a280 f i libboost_filesystem-vc120-mt-1_63:operations.obj
 0001:000192b0       ??_Efilesystem_error@filesystem@boost@@UEAAPEAXI@Z 000000014001a2b0 f i libboost_filesystem-vc120-mt-1_63:operations.obj
 0001:000192b0       ??_Gfilesystem_error@filesystem@boost@@UEAAPEAXI@Z 000000014001a2b0 f i libboost_filesystem-vc120-mt-1_63:operations.obj
 0001:000192e0       ?assign@directory_entry@filesystem@boost@@QEAAXAEBVpath@23@Vfile_status@23@1@Z 000000014001a2e0 f i libboost_filesystem-vc120-mt-1_63:operations.obj
 0001:00019330       ?dir_itr_close@detail@filesystem@boost@@YA?AVerror_code@system@3@AEAPEAX@Z 000000014001a330 f   libboost_filesystem-vc120-mt-1_63:operations.obj
 0001:00019370       ?dir_itr_first@?A0x22c0dbb4@@YA?AVerror_code@system@boost@@AEAPEAXAEBVpath@filesystem@4@AEAV?$basic_string@_WU?$char_traits@_W@std@@V?$allocator@_W@2@@std@@AEAVfile_status@64@3@Z 000000014001a370 f   libboost_filesystem-vc120-mt-1_63:operations.obj
 0001:000195e0       ?dir_itr_increment@?A0x22c0dbb4@@YA?AVerror_code@system@boost@@AEAPEAXAEAV?$basic_string@_WU?$char_traits@_W@std@@V?$allocator@_W@2@@std@@AEAVfile_status@filesystem@4@2@Z 000000014001a5e0 f   libboost_filesystem-vc120-mt-1_63:operations.obj
 0001:00019770       ?directory_iterator_construct@detail@filesystem@boost@@YAXAEAVdirectory_iterator@23@AEBVpath@23@PEAVerror_code@system@3@@Z 000000014001a770 f   libboost_filesystem-vc120-mt-1_63:operations.obj
 0001:000199c0       ?directory_iterator_increment@detail@filesystem@boost@@YAXAEAVdirectory_iterator@23@PEAVerror_code@system@3@@Z 000000014001a9c0 f   libboost_filesystem-vc120-mt-1_63:operations.obj
 0001:00019c50       ?dispose@?$sp_counted_impl_p@Um_imp@filesystem_error@filesystem@boost@@@detail@boost@@UEAAXXZ 000000014001ac50 f i libboost_filesystem-vc120-mt-1_63:operations.obj
 0001:00019c80       ?error@?A0x22c0dbb4@@YA_NKAEBVpath@filesystem@boost@@PEAVerror_code@system@4@PEBD@Z 000000014001ac80 f   libboost_filesystem-vc120-mt-1_63:operations.obj
 0001:00019d90       ?is_reparse_point_a_symlink@?A0x22c0dbb4@@YA_NAEBVpath@filesystem@boost@@@Z 000000014001ad90 f   libboost_filesystem-vc120-mt-1_63:operations.obj
 0001:00019e70       ?last_write_time@detail@filesystem@boost@@YA_JAEBVpath@23@PEAVerror_code@system@3@@Z 000000014001ae70 f   libboost_filesystem-vc120-mt-1_63:operations.obj
 0001:0001a030       ?make_permissions@?A0x22c0dbb4@@YA?AW4perms@filesystem@boost@@AEBVpath@34@K@Z 000000014001b030 f   libboost_filesystem-vc120-mt-1_63:operations.obj
 0001:0001a320       ?process_status_failure@?A0x22c0dbb4@@YA?AVfile_status@filesystem@boost@@AEBVpath@34@PEAVerror_code@system@4@@Z 000000014001b320 f   libboost_filesystem-vc120-mt-1_63:operations.obj
 0001:0001a470       ?query_file_type@?A0x22c0dbb4@@YA?AW4file_type@filesystem@boost@@AEBVpath@34@PEAVerror_code@system@4@@Z 000000014001b470 f   libboost_filesystem-vc120-mt-1_63:operations.obj
 0001:0001a540       ?remove_all@detail@filesystem@boost@@YA_KAEBVpath@23@PEAVerror_code@system@3@@Z 000000014001b540 f   libboost_filesystem-vc120-mt-1_63:operations.obj
 0001:0001a5d0       ?remove_all_aux@?A0x22c0dbb4@@YA_KAEBVpath@filesystem@boost@@W4file_type@34@PEAVerror_code@system@4@@Z 000000014001b5d0 f   libboost_filesystem-vc120-mt-1_63:operations.obj
 0001:0001a850       ?remove_file_or_directory@?A0x22c0dbb4@@YA_NAEBVpath@filesystem@boost@@W4file_type@34@PEAVerror_code@system@4@@Z 000000014001b850 f   libboost_filesystem-vc120-mt-1_63:operations.obj
 0001:0001a980       ?reset@?$shared_ptr@Udir_itr_imp@detail@filesystem@boost@@@boost@@QEAAXXZ 000000014001b980 f i libboost_filesystem-vc120-mt-1_63:operations.obj
 0001:0001a980       ?reset@?$shared_ptr@Um_imp@filesystem_error@filesystem@boost@@@boost@@QEAAXXZ 000000014001b980 f i libboost_filesystem-vc120-mt-1_63:operations.obj
 0001:0001a9e0       ?status@detail@filesystem@boost@@YA?AVfile_status@23@AEBVpath@23@PEAVerror_code@system@3@@Z 000000014001b9e0 f   libboost_filesystem-vc120-mt-1_63:operations.obj
 0001:0001abc0       ?what@filesystem_error@filesystem@boost@@UEBAPEBDXZ 000000014001bbc0 f i libboost_filesystem-vc120-mt-1_63:operations.obj
 0001:0001ad60       ??_Egeneric_error_category@?A0x268fe48c@system@boost@@UEAAPEAXI@Z 000000014001bd60 f i libboost_system-vc120-mt-1_63:error_code.obj
 0001:0001ad60       ??_Ggeneric_error_category@?A0x268fe48c@system@boost@@UEAAPEAXI@Z 000000014001bd60 f i libboost_system-vc120-mt-1_63:error_code.obj
 0001:0001ad60       ??_Esystem_error_category@?A0x268fe48c@system@boost@@UEAAPEAXI@Z 000000014001bd60 f i libboost_system-vc120-mt-1_63:error_code.obj
 0001:0001ad60       ??_Gsystem_error_category@?A0x268fe48c@system@boost@@UEAAPEAXI@Z 000000014001bd60 f i libboost_system-vc120-mt-1_63:error_code.obj
 0001:0001ad60       ??_Gcodecvt_error_cat@?A0x07dec8fe@@UEAAPEAXI@Z 000000014001bd60 f i libboost_filesystem-vc120-mt-1_63:codecvt_error_category.obj
 0001:0001ad60       ??_Ecodecvt_error_cat@?A0x07dec8fe@@UEAAPEAXI@Z 000000014001bd60 f i libboost_filesystem-vc120-mt-1_63:codecvt_error_category.obj
 0001:0001ad90       ?codecvt_error_category@filesystem@boost@@YAAEBVerror_category@system@2@XZ 000000014001bd90 f   libboost_filesystem-vc120-mt-1_63:codecvt_error_category.obj
 0001:0001ade0       ?message@codecvt_error_cat@?A0x07dec8fe@@UEBA?AV?$basic_string@DU?$char_traits@D@std@@V?$allocator@D@2@@std@@H@Z 000000014001bde0 f   libboost_filesystem-vc120-mt-1_63:codecvt_error_category.obj
 0001:0001ae90       ?name@codecvt_error_cat@?A0x07dec8fe@@UEBAPEBDXZ 000000014001be90 f   libboost_filesystem-vc120-mt-1_63:codecvt_error_category.obj
 0001:0001aea0       ?do_in@windows_file_codecvt@@MEBAHAEAHPEBD1AEAPEBDPEA_W3AEAPEA_W@Z 000000014001bea0 f   libboost_filesystem-vc120-mt-1_63:windows_file_codecvt.obj
 0001:0001af30       ?do_out@windows_file_codecvt@@MEBAHAEAHPEB_W1AEAPEB_WPEAD3AEAPEAD@Z 000000014001bf30 f   libboost_filesystem-vc120-mt-1_63:windows_file_codecvt.obj
 0001:0001afd6       _purecall                  000000014001bfd6 f   MSVCRT:MSVCR120.dll
 0001:0001afdc       ??2@YAPEAX_K@Z             000000014001bfdc f   MSVCRT:MSVCR120.dll
 0001:0001afe2       ??3@YAXPEAX@Z              000000014001bfe2 f   MSVCRT:MSVCR120.dll
 0001:0001afe8       __atonexitinit             000000014001bfe8 f   MSVCRT:atonexit.obj
 0001:0001b038       _onexit                    000000014001c038 f   MSVCRT:atonexit.obj
 0001:0001b0e8       atexit                     000000014001c0e8 f   MSVCRT:atonexit.obj
 0001:0001b100       ??0exception@std@@QEAA@AEBV01@@Z 000000014001c100 f   MSVCRT:MSVCR120.dll
 0001:0001b106       ?what@exception@std@@UEBAPEBDXZ 000000014001c106 f   MSVCRT:MSVCR120.dll
 0001:0001b10c       _CxxThrowException         000000014001c10c f   MSVCRT:MSVCR120.dll
 0001:0001b112       __CxxFrameHandler3         000000014001c112 f   MSVCRT:MSVCR120.dll
 0001:0001b118       __GSHandlerCheck           000000014001c118 f   MSVCRT:gshandler.obj
 0001:0001b138       __GSHandlerCheckCommon     000000014001c138 f   MSVCRT:gshandler.obj
 0001:0001b19c       __GSHandlerCheck_EH        000000014001c19c f   MSVCRT:gshandlereh.obj
 0001:0001b240       __security_check_cookie    000000014001c240 f   MSVCRT:amdsecgs.obj
 0001:0001b260       memcpy                     000000014001c260 f   MSVCRT:MSVCR120.dll
 0001:0001b268       ??_Etype_info@@UEAAPEAXI@Z 000000014001c268 f i MSVCRT:ti_inst.obj
 0001:0001b2d2       __C_specific_handler       000000014001c2d2 f   MSVCRT:MSVCR120.dll
 0001:0001b2f0       __chkstk                   000000014001c2f0 f   MSVCRT:chkstk.obj
 0001:0001b2f0       _alloca_probe              000000014001c2f0 f   MSVCRT:chkstk.obj
 0001:0001b33e       memset                     000000014001c33e f   MSVCRT:MSVCR120.dll
 0001:0001b344       ??_M@YAXPEAX_KHP6AX0@Z@Z   000000014001c344 f   MSVCRT:ehvecdtr.obj
 0001:0001b3a4       ?__ArrayUnwind@@YAXPEAX_KHP6AX0@Z@Z 000000014001c3a4 f   MSVCRT:ehvecdtr.obj
 0001:0001b3ee       ??_V@YAXPEAX@Z             000000014001c3ee f   MSVCRT:MSVCR120.dll
 0001:0001b3f4       memcmp                     000000014001c3f4 f   MSVCRT:MSVCR120.dll
 0001:0001b6a0       mainCRTStartup             000000014001c6a0 f   MSVCRT:crtexe.obj
 0001:0001b6b2       ??_U@YAPEAX_K@Z            000000014001c6b2 f   MSVCRT:MSVCR120.dll
 0001:0001b6b8       ??0bad_cast@std@@QEAA@AEBV01@@Z 000000014001c6b8 f   MSVCRT:MSVCR120.dll
 0001:0001b6be       ??1bad_cast@std@@UEAA@XZ   000000014001c6be f   MSVCRT:MSVCR120.dll
 0001:0001b6c4       _lock                      000000014001c6c4 f   MSVCRT:MSVCR120.dll
 0001:0001b6ca       _unlock                    000000014001c6ca f   MSVCRT:MSVCR120.dll
 0001:0001b6d0       __dllonexit                000000014001c6d0 f   MSVCRT:MSVCR120.dll
 0001:0001b6d8       __raise_securityfailure    000000014001c6d8 f   MSVCRT:gs_report.obj
 0001:0001b724       __report_gsfailure         000000014001c724 f   MSVCRT:gs_report.obj
 0001:0001b7f6       ?terminate@@YAXXZ          000000014001c7f6 f   MSVCRT:MSVCR120.dll
 0001:0001b7fc       ?__CxxUnhandledExceptionFilter@@YAJPEAU_EXCEPTION_POINTERS@@@Z 000000014001c7fc f   MSVCRT:unhandld.obj
 0001:0001b834       __CxxSetUnhandledExceptionFilter 000000014001c834 f   MSVCRT:unhandld.obj
 0001:0001b84c       _XcptFilter                000000014001c84c f   MSVCRT:MSVCR120.dll
 0001:0001b852       _amsg_exit                 000000014001c852 f   MSVCRT:MSVCR120.dll
 0001:0001b860       _FindPESection             000000014001c860 f   MSVCRT:pesect.obj
 0001:0001b8b0       _IsNonwritableInCurrentImage 000000014001c8b0 f   MSVCRT:pesect.obj
 0001:0001b900       _ValidateImageBase         000000014001c900 f   MSVCRT:pesect.obj
 0001:0001b930       __security_init_cookie     000000014001c930 f   MSVCRT:gs_support.obj
 0001:0001b9dc       _RTC_Initialize            000000014001c9dc f   MSVCRT:initsect.obj
 0001:0001ba14       _RTC_Terminate             000000014001ca14 f   MSVCRT:initsect.obj
 0001:0001ba4c       _initterm_e                000000014001ca4c f   MSVCRT:MSVCR120.dll
 0001:0001ba52       _initterm                  000000014001ca52 f   MSVCRT:MSVCR120.dll
 0001:0001ba58       __crt_debugger_hook        000000014001ca58 f   MSVCRT:MSVCR120.dll
 0001:0001ba5e       __crtUnhandledException    000000014001ca5e f   MSVCRT:MSVCR120.dll
 0001:0001ba64       __crtTerminateProcess      000000014001ca64 f   MSVCRT:MSVCR120.dll
 0001:0001ba6a       __crtCapturePreviousContext 000000014001ca6a f   MSVCRT:MSVCR120.dll
 0001:0001ba70       ??1type_info@@UEAA@XZ      000000014001ca70 f   MSVCRT:MSVCR120.dll
 0001:0001ba70       ?_type_info_dtor_internal_method@type_info@@QEAAXXZ 000000014001ca70 f   MSVCRT:MSVCR120.dll
 0001:0001ba76       __crtSetUnhandledExceptionFilter 000000014001ca76 f   MSVCRT:MSVCR120.dll
 0001:0001ba7c       IsProcessorFeaturePresent  000000014001ca7c f   kernel32:KERNEL32.dll
 0001:0001ba84       ?_Facet_Register@std@@YAXPEAV_Facet_base@1@@Z 000000014001ca84 f   msvcprt:locale0_implib.obj
 0001:0001bab8       ?_Decref@facet@locale@std@@UEAAPEAV_Facet_base@3@XZ 000000014001cab8 f   msvcprt:MSVCP120.dll
 0001:0001babe       ?_Incref@facet@locale@std@@UEAAXXZ 000000014001cabe f   msvcprt:MSVCP120.dll
 0001:0001e340       ??__Finstance@?1??get_misc_category@error@asio@boost@@YAAEBVerror_category@system@3@XZ@YAXXZ 000000014001f340 f i main.obj
 0002:00000000       __imp_SetSecurityDescriptorDacl 0000000140020000     Advapi32:ADVAPI32.dll
 0002:00000008       __imp_InitializeSecurityDescriptor 0000000140020008     Advapi32:ADVAPI32.dll
 0002:00000010       \177ADVAPI32_NULL_THUNK_DATA 0000000140020010     Advapi32:ADVAPI32.dll
 0002:00000018       __imp_GetLastError         0000000140020018     kernel32:KERNEL32.dll
 0002:00000020       __imp_PostQueuedCompletionStatus 0000000140020020     kernel32:KERNEL32.dll
 0002:00000028       __imp_EnterCriticalSection 0000000140020028     kernel32:KERNEL32.dll
 0002:00000030       __imp_LeaveCriticalSection 0000000140020030     kernel32:KERNEL32.dll
 0002:00000038       __imp_TlsAlloc             0000000140020038     kernel32:KERNEL32.dll
 0002:00000040       __imp_TlsFree              0000000140020040     kernel32:KERNEL32.dll
 0002:00000048       __imp_VerSetConditionMask  0000000140020048     kernel32:KERNEL32.dll
 0002:00000050       __imp_CloseHandle          0000000140020050     kernel32:KERNEL32.dll
 0002:00000058       __imp_SetLastError         0000000140020058     kernel32:KERNEL32.dll
 0002:00000060       __imp_CreateIoCompletionPort 0000000140020060     kernel32:KERNEL32.dll
 0002:00000068       __imp_GetQueuedCompletionStatus 0000000140020068     kernel32:KERNEL32.dll
 0002:00000070       __imp_InitializeCriticalSectionAndSpinCount 0000000140020070     kernel32:KERNEL32.dll
 0002:00000078       __imp_DeleteCriticalSection 0000000140020078     kernel32:KERNEL32.dll
 0002:00000080       __imp_SetEvent             0000000140020080     kernel32:KERNEL32.dll
 0002:00000088       __imp_WaitForSingleObject  0000000140020088     kernel32:KERNEL32.dll
 0002:00000090       __imp_SleepEx              0000000140020090     kernel32:KERNEL32.dll
 0002:00000098       __imp_GetSystemTimeAsFileTime 0000000140020098     kernel32:KERNEL32.dll
 0002:000000a0       __imp_GetCurrentThreadId   00000001400200a0     kernel32:KERNEL32.dll
 0002:000000a8       __imp_GetCurrentProcessId  00000001400200a8     kernel32:KERNEL32.dll
 0002:000000b0       __imp_QueryPerformanceCounter 00000001400200b0     kernel32:KERNEL32.dll
 0002:000000b8       __imp_IsProcessorFeaturePresent 00000001400200b8     kernel32:KERNEL32.dll
 0002:000000c0       __imp_IsDebuggerPresent    00000001400200c0     kernel32:KERNEL32.dll
 0002:000000c8       __imp_DecodePointer        00000001400200c8     kernel32:KERNEL32.dll
 0002:000000d0       __imp_EncodePointer        00000001400200d0     kernel32:KERNEL32.dll
 0002:000000d8       __imp_WideCharToMultiByte  00000001400200d8     kernel32:KERNEL32.dll
 0002:000000e0       __imp_MultiByteToWideChar  00000001400200e0     kernel32:KERNEL32.dll
 0002:000000e8       __imp_AreFileApisANSI      00000001400200e8     kernel32:KERNEL32.dll
 0002:000000f0       __imp_GetProcAddress       00000001400200f0     kernel32:KERNEL32.dll
 0002:000000f8       __imp_GetModuleHandleA     00000001400200f8     kernel32:KERNEL32.dll
 0002:00000100       __imp_DeviceIoControl      0000000140020100     kernel32:KERNEL32.dll
 0002:00000108       __imp_RemoveDirectoryW     0000000140020108     kernel32:KERNEL32.dll
 0002:00000110       __imp_GetFileTime          0000000140020110     kernel32:KERNEL32.dll
 0002:00000118       __imp_GetFileAttributesW   0000000140020118     kernel32:KERNEL32.dll
 0002:00000120       __imp_FindNextFileW        0000000140020120     kernel32:KERNEL32.dll
 0002:00000128       __imp_FindFirstFileW       0000000140020128     kernel32:KERNEL32.dll
 0002:00000130       __imp_FindClose            0000000140020130     kernel32:KERNEL32.dll
 0002:00000138       __imp_DeleteFileW          0000000140020138     kernel32:KERNEL32.dll
 0002:00000140       __imp_CreateFileW          0000000140020140     kernel32:KERNEL32.dll
 0002:00000148       __imp_FormatMessageA       0000000140020148     kernel32:KERNEL32.dll
 0002:00000150       __imp_LocalFree            0000000140020150     kernel32:KERNEL32.dll
 0002:00000158       __imp_GetSystemInfo        0000000140020158     kernel32:KERNEL32.dll
 0002:00000160       __imp_VerifyVersionInfoW   0000000140020160     kernel32:KERNEL32.dll
 0002:00000168       __imp_WaitForMultipleObjects 0000000140020168     kernel32:KERNEL32.dll
 0002:00000170       __imp_TlsSetValue          0000000140020170     kernel32:KERNEL32.dll
 0002:00000178       __imp_TlsGetValue          0000000140020178     kernel32:KERNEL32.dll
 0002:00000180       __imp_TerminateThread      0000000140020180     kernel32:KERNEL32.dll
 0002:00000188       __imp_QueueUserAPC         0000000140020188     kernel32:KERNEL32.dll
 0002:00000190       __imp_SetWaitableTimer     0000000140020190     kernel32:KERNEL32.dll
 0002:00000198       __imp_CreateEventW         0000000140020198     kernel32:KERNEL32.dll
 0002:000001a0       \177KERNEL32_NULL_THUNK_DATA 00000001400201a0     kernel32:KERNEL32.dll
 0002:000001a8       __imp_?in@?$codecvt@_WDH@std@@QEBAHAEAHPEBD1AEAPEBDPEA_W3AEAPEA_W@Z 00000001400201a8     msvcprt:MSVCP120.dll
 0002:000001b0       __imp_?out@?$codecvt@_WDH@std@@QEBAHAEAHPEB_W1AEAPEB_WPEAD3AEAPEAD@Z 00000001400201b0     msvcprt:MSVCP120.dll
 0002:000001b8       __imp_??0_Lockit@std@@QEAA@H@Z 00000001400201b8     msvcprt:MSVCP120.dll
 0002:000001c0       __imp_??1_Lockit@std@@QEAA@XZ 00000001400201c0     msvcprt:MSVCP120.dll
 0002:000001c8       __imp_??4?$_Yarn@D@std@@QEAAAEAV01@PEBD@Z 00000001400201c8     msvcprt:MSVCP120.dll
 0002:000001d0       __imp_??Bid@locale@std@@QEAA_KXZ 00000001400201d0     msvcprt:MSVCP120.dll
 0002:000001d8       __imp_?_New_Locimp@_Locimp@locale@std@@CAPEAV123@AEBV123@@Z 00000001400201d8     msvcprt:MSVCP120.dll
 0002:000001e0       __imp_?_Locimp_Addfac@_Locimp@locale@std@@CAXPEAV123@PEAVfacet@23@_K@Z 00000001400201e0     msvcprt:MSVCP120.dll
 0002:000001e8       __imp_?_Init@locale@std@@CAPEAV_Locimp@12@_N@Z 00000001400201e8     msvcprt:MSVCP120.dll
 0002:000001f0       __imp_?_Getgloballocale@locale@std@@CAPEAV_Locimp@12@XZ 00000001400201f0     msvcprt:MSVCP120.dll
 0002:000001f8       __imp_??0?$codecvt@_WDH@std@@QEAA@_K@Z 00000001400201f8     msvcprt:MSVCP120.dll
 0002:00000200       __imp_?_Getcat@?$codecvt@_WDH@std@@SA_KPEAPEBVfacet@locale@2@PEBV42@@Z 0000000140020200     msvcprt:MSVCP120.dll
 0002:00000208       __imp_?_Decref@facet@locale@std@@UEAAPEAV_Facet_base@3@XZ 0000000140020208     msvcprt:MSVCP120.dll
 0002:00000210       __imp_?_Incref@facet@locale@std@@UEAAXXZ 0000000140020210     msvcprt:MSVCP120.dll
 0002:00000218       __imp_??_7_Facet_base@std@@6B@ 0000000140020218     msvcprt:MSVCP120.dll
 0002:00000220       __imp_??_7facet@locale@std@@6B@ 0000000140020220     msvcprt:MSVCP120.dll
 0002:00000228       __imp_??_7codecvt_base@std@@6B@ 0000000140020228     msvcprt:MSVCP120.dll
 0002:00000230       __imp_?id@?$codecvt@_WDH@std@@2V0locale@2@A 0000000140020230     msvcprt:MSVCP120.dll
 0002:00000238       __imp_??_7?$codecvt@_WDH@std@@6B@ 0000000140020238     msvcprt:MSVCP120.dll
 0002:00000240       __imp_?_Unlock@?$basic_streambuf@DU?$char_traits@D@std@@@std@@UEAAXXZ 0000000140020240     msvcprt:MSVCP120.dll
 0002:00000248       __imp_?_Lock@?$basic_streambuf@DU?$char_traits@D@std@@@std@@UEAAXXZ 0000000140020248     msvcprt:MSVCP120.dll
 0002:00000250       __imp_??1?$basic_ostream@DU?$char_traits@D@std@@@std@@UEAA@XZ 0000000140020250     msvcprt:MSVCP120.dll
 0002:00000258       __imp_?_Pninc@?$basic_streambuf@DU?$char_traits@D@std@@@std@@IEAAPEADXZ 0000000140020258     msvcprt:MSVCP120.dll
 0002:00000260       __imp_??1?$basic_streambuf@DU?$char_traits@D@std@@@std@@UEAA@XZ 0000000140020260     msvcprt:MSVCP120.dll
 0002:00000268       __imp_?_Ios_base_dtor@ios_base@std@@CAXPEAV12@@Z 0000000140020268     msvcprt:MSVCP120.dll
 0002:00000270       __imp_?_Winerror_map@std@@YAPEBDH@Z 0000000140020270     msvcprt:MSVCP120.dll
 0002:00000278       __imp_?_Syserror_map@std@@YAPEBDH@Z 0000000140020278     msvcprt:MSVCP120.dll
 0002:00000280       __imp_?_Xout_of_range@std@@YAXPEBD@Z 0000000140020280     msvcprt:MSVCP120.dll
 0002:00000288       __imp_?_Xlength_error@std@@YAXPEBD@Z 0000000140020288     msvcprt:MSVCP120.dll
 0002:00000290       __imp_?_Xbad_alloc@std@@YAXXZ 0000000140020290     msvcprt:MSVCP120.dll
 0002:00000298       __imp_?setbuf@?$basic_streambuf@DU?$char_traits@D@std@@@std@@MEAAPEAV12@PEAD_J@Z 0000000140020298     msvcprt:MSVCP120.dll
 0002:000002a0       __imp_?showmanyc@?$basic_streambuf@DU?$char_traits@D@std@@@std@@MEAA_JXZ 00000001400202a0     msvcprt:MSVCP120.dll
 0002:000002a8       __imp_?sync@?$basic_streambuf@DU?$char_traits@D@std@@@std@@MEAAHXZ 00000001400202a8     msvcprt:MSVCP120.dll
 0002:000002b0       __imp_?uflow@?$basic_streambuf@DU?$char_traits@D@std@@@std@@MEAAHXZ 00000001400202b0     msvcprt:MSVCP120.dll
 0002:000002b8       __imp_?xsgetn@?$basic_streambuf@DU?$char_traits@D@std@@@std@@MEAA_JPEAD_J@Z 00000001400202b8     msvcprt:MSVCP120.dll
 0002:000002c0       __imp_?xsputn@?$basic_streambuf@DU?$char_traits@D@std@@@std@@MEAA_JPEBD_J@Z 00000001400202c0     msvcprt:MSVCP120.dll
 0002:000002c8       __imp_?_BADOFF@std@@3_JB   00000001400202c8     msvcprt:MSVCP120.dll
 0002:000002d0       __imp_??_7ios_base@std@@6B@ 00000001400202d0     msvcprt:MSVCP120.dll
 0002:000002d8       __imp_??_7?$basic_ios@DU?$char_traits@D@std@@@std@@6B@ 00000001400202d8     msvcprt:MSVCP120.dll
 0002:000002e0       __imp_?uncaught_exception@std@@YA_NXZ 00000001400202e0     msvcprt:MSVCP120.dll
 0002:000002e8       __imp_?sputc@?$basic_streambuf@DU?$char_traits@D@std@@@std@@QEAAHD@Z 00000001400202e8     msvcprt:MSVCP120.dll
 0002:000002f0       __imp_?imbue@?$basic_streambuf@DU?$char_traits@D@std@@@std@@MEAAXAEBVlocale@2@@Z 00000001400202f0     msvcprt:MSVCP120.dll
 0002:000002f8       __imp_?sputn@?$basic_streambuf@DU?$char_traits@D@std@@@std@@QEAA_JPEBD_J@Z 00000001400202f8     msvcprt:MSVCP120.dll
 0002:00000300       __imp_?setstate@?$basic_ios@DU?$char_traits@D@std@@@std@@QEAAXH_N@Z 0000000140020300     msvcprt:MSVCP120.dll
 0002:00000308       __imp_?widen@?$basic_ios@DU?$char_traits@D@std@@@std@@QEBADD@Z 0000000140020308     msvcprt:MSVCP120.dll
 0002:00000310       __imp_?_Osfx@?$basic_ostream@DU?$char_traits@D@std@@@std@@QEAAXXZ 0000000140020310     msvcprt:MSVCP120.dll
 0002:00000318       __imp_??6?$basic_ostream@DU?$char_traits@D@std@@@std@@QEAAAEAV01@P6AAEAV01@AEAV01@@Z@Z 0000000140020318     msvcprt:MSVCP120.dll
 0002:00000320       __imp_??6?$basic_ostream@DU?$char_traits@D@std@@@std@@QEAAAEAV01@G@Z 0000000140020320     msvcprt:MSVCP120.dll
 0002:00000328       __imp_?put@?$basic_ostream@DU?$char_traits@D@std@@@std@@QEAAAEAV12@D@Z 0000000140020328     msvcprt:MSVCP120.dll
 0002:00000330       __imp_?flush@?$basic_ostream@DU?$char_traits@D@std@@@std@@QEAAAEAV12@XZ 0000000140020330     msvcprt:MSVCP120.dll
 0002:00000338       __imp_?cout@std@@3V?$basic_ostream@DU?$char_traits@D@std@@@1@A 0000000140020338     msvcprt:MSVCP120.dll
 0002:00000340       __imp_??6?$basic_ostream@DU?$char_traits@D@std@@@std@@QEAAAEAV01@I@Z 0000000140020340     msvcprt:MSVCP120.dll
 0002:00000348       __imp_??6?$basic_ostream@DU?$char_traits@D@std@@@std@@QEAAAEAV01@_K@Z 0000000140020348     msvcprt:MSVCP120.dll
 0002:00000350       __imp__FNan                0000000140020350     msvcprt:MSVCP120.dll
 0002:00000358       __imp_??0?$basic_streambuf@DU?$char_traits@D@std@@@std@@IEAA@XZ 0000000140020358     msvcprt:MSVCP120.dll
 0002:00000360       __imp_??1?$basic_ios@DU?$char_traits@D@std@@@std@@UEAA@XZ 0000000140020360     msvcprt:MSVCP120.dll
 0002:00000368       __imp_??0?$basic_ostream@DU?$char_traits@D@std@@@std@@QEAA@PEAV?$basic_streambuf@DU?$char_traits@D@std@@@1@_N@Z 0000000140020368     msvcprt:MSVCP120.dll
 0002:00000370       \177MSVCP120_NULL_THUNK_DATA 0000000140020370     msvcprt:MSVCP120.dll
 0002:00000378       __imp_malloc               0000000140020378     MSVCRT:MSVCR120.dll
 0002:00000380       __imp_free                 0000000140020380     MSVCRT:MSVCR120.dll
 0002:00000388       __imp_memset               0000000140020388     MSVCRT:MSVCR120.dll
 0002:00000390       __imp___C_specific_handler 0000000140020390     MSVCRT:MSVCR120.dll
 0002:00000398       __imp__beginthreadex       0000000140020398     MSVCRT:MSVCR120.dll
 0002:000003a0       __imp_??8type_info@@QEBA_NAEBV0@@Z 00000001400203a0     MSVCRT:MSVCR120.dll
 0002:000003a8       __imp_memcpy               00000001400203a8     MSVCRT:MSVCR120.dll
 0002:000003b0       __imp___CxxFrameHandler3   00000001400203b0     MSVCRT:MSVCR120.dll
 0002:000003b8       __imp__CxxThrowException   00000001400203b8     MSVCRT:MSVCR120.dll
 0002:000003c0       __imp_?what@exception@std@@UEBAPEBDXZ 00000001400203c0     MSVCRT:MSVCR120.dll
 0002:000003c8       __imp_??1exception@std@@UEAA@XZ 00000001400203c8     MSVCRT:MSVCR120.dll
 0002:000003d0       __imp_??0exception@std@@QEAA@AEBV01@@Z 00000001400203d0     MSVCRT:MSVCR120.dll
 0002:000003d8       __imp_??0exception@std@@QEAA@AEBQEBD@Z 00000001400203d8     MSVCRT:MSVCR120.dll
 0002:000003e0       __imp_memmove              00000001400203e0     MSVCRT:MSVCR120.dll
 0002:000003e8       __imp_??3@YAXPEAX@Z        00000001400203e8     MSVCRT:MSVCR120.dll
 0002:000003f0       __imp_??2@YAPEAX_K@Z       00000001400203f0     MSVCRT:MSVCR120.dll
 0002:000003f8       __imp__purecall            00000001400203f8     MSVCRT:MSVCR120.dll
 0002:00000400       __imp_??0exception@std@@QEAA@AEBQEBDH@Z 0000000140020400     MSVCRT:MSVCR120.dll
 0002:00000408       __imp_??_V@YAXPEAX@Z       0000000140020408     MSVCRT:MSVCR120.dll
 0002:00000410       __imp_memcmp               0000000140020410     MSVCRT:MSVCR120.dll
 0002:00000418       __imp_strcpy_s             0000000140020418     MSVCRT:MSVCR120.dll
 0002:00000420       __imp_sprintf_s            0000000140020420     MSVCRT:MSVCR120.dll
 0002:00000428       __imp_strerror             0000000140020428     MSVCRT:MSVCR120.dll
 0002:00000430       __imp_??_U@YAPEAX_K@Z      0000000140020430     MSVCRT:MSVCR120.dll
 0002:00000438       __imp_??0bad_cast@std@@QEAA@PEBD@Z 0000000140020438     MSVCRT:MSVCR120.dll
 0002:00000440       __imp_??0bad_cast@std@@QEAA@AEBV01@@Z 0000000140020440     MSVCRT:MSVCR120.dll
 0002:00000448       __imp_??1bad_cast@std@@UEAA@XZ 0000000140020448     MSVCRT:MSVCR120.dll
 0002:00000450       __imp__stricmp             0000000140020450     MSVCRT:MSVCR120.dll
 0002:00000458       __imp__lock                0000000140020458     MSVCRT:MSVCR120.dll
 0002:00000460       __imp__unlock              0000000140020460     MSVCRT:MSVCR120.dll
 0002:00000468       __imp__calloc_crt          0000000140020468     MSVCRT:MSVCR120.dll
 0002:00000470       __imp___dllonexit          0000000140020470     MSVCRT:MSVCR120.dll
 0002:00000478       __imp__onexit              0000000140020478     MSVCRT:MSVCR120.dll
 0002:00000480       __imp__XcptFilter          0000000140020480     MSVCRT:MSVCR120.dll
 0002:00000488       __imp__amsg_exit           0000000140020488     MSVCRT:MSVCR120.dll
 0002:00000490       __imp___getmainargs        0000000140020490     MSVCRT:MSVCR120.dll
 0002:00000498       __imp___set_app_type       0000000140020498     MSVCRT:MSVCR120.dll
 0002:000004a0       __imp_exit                 00000001400204a0     MSVCRT:MSVCR120.dll
 0002:000004a8       __imp__exit                00000001400204a8     MSVCRT:MSVCR120.dll
 0002:000004b0       __imp__cexit               00000001400204b0     MSVCRT:MSVCR120.dll
 0002:000004b8       __imp__configthreadlocale  00000001400204b8     MSVCRT:MSVCR120.dll
 0002:000004c0       __imp___setusermatherr     00000001400204c0     MSVCRT:MSVCR120.dll
 0002:000004c8       __imp__initterm_e          00000001400204c8     MSVCRT:MSVCR120.dll
 0002:000004d0       __imp__initterm            00000001400204d0     MSVCRT:MSVCR120.dll
 0002:000004d8       __imp___crtSetUnhandledExceptionFilter 00000001400204d8     MSVCRT:MSVCR120.dll
 0002:000004e0       __imp_?terminate@@YAXXZ    00000001400204e0     MSVCRT:MSVCR120.dll
 0002:000004e8       __imp_?_type_info_dtor_internal_method@type_info@@QEAAXXZ 00000001400204e8     MSVCRT:MSVCR120.dll
 0002:000004f0       __imp___crtCapturePreviousContext 00000001400204f0     MSVCRT:MSVCR120.dll
 0002:000004f8       __imp___crtTerminateProcess 00000001400204f8     MSVCRT:MSVCR120.dll
 0002:00000500       __imp___crtUnhandledException 0000000140020500     MSVCRT:MSVCR120.dll
 0002:00000508       __imp___crt_debugger_hook  0000000140020508     MSVCRT:MSVCR120.dll
 0002:00000510       __imp__commode             0000000140020510     MSVCRT:MSVCR120.dll
 0002:00000518       __imp__fmode               0000000140020518     MSVCRT:MSVCR120.dll
 0002:00000520       __imp___initenv            0000000140020520     MSVCRT:MSVCR120.dll
 0002:00000528       \177MSVCR120_NULL_THUNK_DATA 0000000140020528     MSVCRT:MSVCR120.dll
 0002:00000530       __imp_?setApplicationDescription@QCommandLineParser@@QEAAXAEBVQString@@@Z 0000000140020530     Qt5Core:Qt5Core.dll
 0002:00000538       __imp_?addPositionalArgument@QCommandLineParser@@QEAAXAEBVQString@@00@Z 0000000140020538     Qt5Core:Qt5Core.dll
 0002:00000540       __imp_?process@QCommandLineParser@@QEAAXAEBVQCoreApplication@@@Z 0000000140020540     Qt5Core:Qt5Core.dll
 0002:00000548       __imp_??1Connection@QMetaObject@@QEAA@XZ 0000000140020548     Qt5Core:Qt5Core.dll
 0002:00000550       __imp_?fromStdString@QString@@SA?AV1@AEBV?$basic_string@DU?$char_traits@D@std@@V?$allocator@D@2@@std@@@Z 0000000140020550     Qt5Core:Qt5Core.dll
 0002:00000558       __imp_?connect@QObject@@SA?AVConnection@QMetaObject@@PEBV1@PEBD01W4ConnectionType@Qt@@@Z 0000000140020558     Qt5Core:Qt5Core.dll
 0002:00000560       __imp_??0QTimer@@QEAA@PEAVQObject@@@Z 0000000140020560     Qt5Core:Qt5Core.dll
 0002:00000568       __imp_??1QTimer@@UEAA@XZ   0000000140020568     Qt5Core:Qt5Core.dll
 0002:00000570       __imp_?start@QTimer@@QEAAXH@Z 0000000140020570     Qt5Core:Qt5Core.dll
 0002:00000578       __imp_?stop@QTimer@@QEAAXXZ 0000000140020578     Qt5Core:Qt5Core.dll
 0002:00000580       __imp_?childEvent@QObject@@MEAAXPEAVQChildEvent@@@Z 0000000140020580     Qt5Core:Qt5Core.dll
 0002:00000588       __imp_?connectNotify@QObject@@MEAAXAEBVQMetaMethod@@@Z 0000000140020588     Qt5Core:Qt5Core.dll
 0002:00000590       __imp_?customEvent@QObject@@MEAAXPEAVQEvent@@@Z 0000000140020590     Qt5Core:Qt5Core.dll
 0002:00000598       __imp_?disconnectNotify@QObject@@MEAAXAEBVQMetaMethod@@@Z 0000000140020598     Qt5Core:Qt5Core.dll
 0002:000005a0       __imp_?event@QObject@@UEAA_NPEAVQEvent@@@Z 00000001400205a0     Qt5Core:Qt5Core.dll
 0002:000005a8       __imp_?eventFilter@QObject@@UEAA_NPEAV1@PEAVQEvent@@@Z 00000001400205a8     Qt5Core:Qt5Core.dll
 0002:000005b0       __imp_?metaObject@QTimer@@UEBAPEBUQMetaObject@@XZ 00000001400205b0     Qt5Core:Qt5Core.dll
 0002:000005b8       __imp_?qt_metacall@QTimer@@UEAAHW4Call@QMetaObject@@HPEAPEAX@Z 00000001400205b8     Qt5Core:Qt5Core.dll
 0002:000005c0       __imp_?qt_metacast@QTimer@@UEAAPEAXPEBD@Z 00000001400205c0     Qt5Core:Qt5Core.dll
 0002:000005c8       __imp_?timerEvent@QObject@@MEAAXPEAVQTimerEvent@@@Z 00000001400205c8     Qt5Core:Qt5Core.dll
 0002:000005d0       __imp_?timerEvent@QTimer@@MEAAXPEAVQTimerEvent@@@Z 00000001400205d0     Qt5Core:Qt5Core.dll
 0002:000005d8       __imp_?qRegisterResourceData@@YA_NHPEBE00@Z 00000001400205d8     Qt5Core:Qt5Core.dll
 0002:000005e0       __imp_?qUnregisterResourceData@@YA_NHPEBE00@Z 00000001400205e0     Qt5Core:Qt5Core.dll
 0002:000005e8       __imp_?dynamicMetaObject@QObjectData@@QEBAPEAUQMetaObject@@XZ 00000001400205e8     Qt5Core:Qt5Core.dll
 0002:000005f0       __imp_?addHelpOption@QCommandLineParser@@QEAA?AVQCommandLineOption@@XZ 00000001400205f0     Qt5Core:Qt5Core.dll
 0002:000005f8       __imp_?addVersionOption@QCommandLineParser@@QEAA?AVQCommandLineOption@@XZ 00000001400205f8     Qt5Core:Qt5Core.dll
 0002:00000600       __imp_??1QCommandLineParser@@QEAA@XZ 0000000140020600     Qt5Core:Qt5Core.dll
 0002:00000608       __imp_??0QCommandLineParser@@QEAA@XZ 0000000140020608     Qt5Core:Qt5Core.dll
 0002:00000610       __imp_?setApplicationVersion@QCoreApplication@@SAXAEBVQString@@@Z 0000000140020610     Qt5Core:Qt5Core.dll
 0002:00000618       __imp_?applicationName@QCoreApplication@@SA?AVQString@@XZ 0000000140020618     Qt5Core:Qt5Core.dll
 0002:00000620       __imp_?setApplicationName@QCoreApplication@@SAXAEBVQString@@@Z 0000000140020620     Qt5Core:Qt5Core.dll
 0002:00000628       __imp_?setOrganizationName@QCoreApplication@@SAXAEBVQString@@@Z 0000000140020628     Qt5Core:Qt5Core.dll
 0002:00000630       __imp_??1QCommandLineOption@@QEAA@XZ 0000000140020630     Qt5Core:Qt5Core.dll
 0002:00000638       __imp_?fromAscii_helper@QString@@CAPEAU?$QTypedArrayData@G@@PEBDH@Z 0000000140020638     Qt5Core:Qt5Core.dll
 0002:00000640       __imp_??0QString@@QEAA@XZ  0000000140020640     Qt5Core:Qt5Core.dll
 0002:00000648       __imp_??1QString@@QEAA@XZ  0000000140020648     Qt5Core:Qt5Core.dll
 0002:00000650       \177Qt5Core_NULL_THUNK_DATA 0000000140020650     Qt5Core:Qt5Core.dll
 0002:00000658       __imp_?staticMetaObject@QMainWindow@@2UQMetaObject@@B 0000000140020658     Qt5Widgets:Qt5Widgets.dll
 0002:00000660       __imp_?qt_metacall@QMainWindow@@UEAAHW4Call@QMetaObject@@HPEAPEAX@Z 0000000140020660     Qt5Widgets:Qt5Widgets.dll
 0002:00000668       __imp_?qt_metacast@QMainWindow@@UEAAPEAXPEBD@Z 0000000140020668     Qt5Widgets:Qt5Widgets.dll
 0002:00000670       __imp_?widget@QLayoutItem@@UEAAPEAVQWidget@@XZ 0000000140020670     Qt5Widgets:Qt5Widgets.dll
 0002:00000678       __imp_?wheelEvent@QWidget@@MEAAXPEAVQWheelEvent@@@Z 0000000140020678     Qt5Widgets:Qt5Widgets.dll
 0002:00000680       __imp_?wheelEvent@QPlainTextEdit@@MEAAXPEAVQWheelEvent@@@Z 0000000140020680     Qt5Widgets:Qt5Widgets.dll
 0002:00000688       __imp_?viewportSizeHint@QAbstractScrollArea@@MEBA?AVQSize@@XZ 0000000140020688     Qt5Widgets:Qt5Widgets.dll
 0002:00000690       __imp_?viewportEvent@QAbstractScrollArea@@MEAA_NPEAVQEvent@@@Z 0000000140020690     Qt5Widgets:Qt5Widgets.dll
 0002:00000698       __imp_?timerEvent@QPlainTextEdit@@MEAAXPEAVQTimerEvent@@@Z 0000000140020698     Qt5Widgets:Qt5Widgets.dll
 0002:000006a0       __imp_?timerEvent@QAbstractButton@@MEAAXPEAVQTimerEvent@@@Z 00000001400206a0     Qt5Widgets:Qt5Widgets.dll
 0002:000006a8       __imp_?takeAt@QBoxLayout@@UEAAPEAVQLayoutItem@@H@Z 00000001400206a8     Qt5Widgets:Qt5Widgets.dll
 0002:000006b0       __imp_?tabletEvent@QWidget@@MEAAXPEAVQTabletEvent@@@Z 00000001400206b0     Qt5Widgets:Qt5Widgets.dll
 0002:000006b8       __imp_?spacerItem@QLayoutItem@@UEAAPEAVQSpacerItem@@XZ 00000001400206b8     Qt5Widgets:Qt5Widgets.dll
 0002:000006c0       __imp_?sizeHint@QWidget@@UEBA?AVQSize@@XZ 00000001400206c0     Qt5Widgets:Qt5Widgets.dll
 0002:000006c8       __imp_?sizeHint@QPushButton@@UEBA?AVQSize@@XZ 00000001400206c8     Qt5Widgets:Qt5Widgets.dll
 0002:000006d0       __imp_?sizeHint@QBoxLayout@@UEBA?AVQSize@@XZ 00000001400206d0     Qt5Widgets:Qt5Widgets.dll
 0002:000006d8       __imp_?sizeHint@QAbstractScrollArea@@UEBA?AVQSize@@XZ 00000001400206d8     Qt5Widgets:Qt5Widgets.dll
 0002:000006e0       __imp_?showEvent@QWidget@@MEAAXPEAVQShowEvent@@@Z 00000001400206e0     Qt5Widgets:Qt5Widgets.dll
 0002:000006e8       __imp_?showEvent@QPlainTextEdit@@MEAAXPEAVQShowEvent@@@Z 00000001400206e8     Qt5Widgets:Qt5Widgets.dll
 0002:000006f0       __imp_?sharedPainter@QWidget@@MEBAPEAVQPainter@@XZ 00000001400206f0     Qt5Widgets:Qt5Widgets.dll
 0002:000006f8       __imp_?setupViewport@QAbstractScrollArea@@UEAAXPEAVQWidget@@@Z 00000001400206f8     Qt5Widgets:Qt5Widgets.dll
 0002:00000700       __imp_?setVisible@QWidget@@UEAAX_N@Z 0000000140020700     Qt5Widgets:Qt5Widgets.dll
 0002:00000708       __imp_?setGeometry@QBoxLayout@@UEAAXAEBVQRect@@@Z 0000000140020708     Qt5Widgets:Qt5Widgets.dll
 0002:00000710       __imp_?scrollContentsBy@QPlainTextEdit@@MEAAXHH@Z 0000000140020710     Qt5Widgets:Qt5Widgets.dll
 0002:00000718       __imp_?resizeEvent@QWidget@@MEAAXPEAVQResizeEvent@@@Z 0000000140020718     Qt5Widgets:Qt5Widgets.dll
 0002:00000720       __imp_?resizeEvent@QPlainTextEdit@@MEAAXPEAVQResizeEvent@@@Z 0000000140020720     Qt5Widgets:Qt5Widgets.dll
 0002:00000728       __imp_?show@QWidget@@QEAAXXZ 0000000140020728     Qt5Widgets:Qt5Widgets.dll
 0002:00000730       __imp_??0QApplication@@QEAA@AEAHPEAPEADH@Z 0000000140020730     Qt5Widgets:Qt5Widgets.dll
 0002:00000738       __imp_??1QApplication@@UEAA@XZ 0000000140020738     Qt5Widgets:Qt5Widgets.dll
 0002:00000740       __imp_?exec@QApplication@@SAHXZ 0000000140020740     Qt5Widgets:Qt5Widgets.dll
 0002:00000748       __imp_??1QMainWindow@@UEAA@XZ 0000000140020748     Qt5Widgets:Qt5Widgets.dll
 0002:00000750       __imp_??0QWidget@@QEAA@PEAV0@V?$QFlags@W4WindowType@Qt@@@@@Z 0000000140020750     Qt5Widgets:Qt5Widgets.dll
 0002:00000758       __imp_??1QWidget@@UEAA@XZ  0000000140020758     Qt5Widgets:Qt5Widgets.dll
 0002:00000760       __imp_?setEnabled@QWidget@@QEAAX_N@Z 0000000140020760     Qt5Widgets:Qt5Widgets.dll
 0002:00000768       __imp_?update@QWidget@@QEAAXXZ 0000000140020768     Qt5Widgets:Qt5Widgets.dll
 0002:00000770       __imp_?setLayout@QWidget@@QEAAXPEAVQLayout@@@Z 0000000140020770     Qt5Widgets:Qt5Widgets.dll
 0002:00000778       __imp_?setText@QAbstractButton@@QEAAXAEBVQString@@@Z 0000000140020778     Qt5Widgets:Qt5Widgets.dll
 0002:00000780       __imp_?setCheckable@QAbstractButton@@QEAAX_N@Z 0000000140020780     Qt5Widgets:Qt5Widgets.dll
 0002:00000788       __imp_?isChecked@QAbstractButton@@QEBA_NXZ 0000000140020788     Qt5Widgets:Qt5Widgets.dll
 0002:00000790       __imp_?addWidget@QBoxLayout@@QEAAXPEAVQWidget@@HV?$QFlags@W4AlignmentFlag@Qt@@@@@Z 0000000140020790     Qt5Widgets:Qt5Widgets.dll
 0002:00000798       __imp_??0QVBoxLayout@@QEAA@PEAVQWidget@@@Z 0000000140020798     Qt5Widgets:Qt5Widgets.dll
 0002:000007a0       __imp_?redirected@QWidget@@MEBAPEAVQPaintDevice@@PEAVQPoint@@@Z 00000001400207a0     Qt5Widgets:Qt5Widgets.dll
 0002:000007a8       __imp_?qt_metacast@QWidget@@UEAAPEAXPEBD@Z 00000001400207a8     Qt5Widgets:Qt5Widgets.dll
 0002:000007b0       __imp_?qt_metacast@QVBoxLayout@@UEAAPEAXPEBD@Z 00000001400207b0     Qt5Widgets:Qt5Widgets.dll
 0002:000007b8       __imp_?qt_metacast@QPushButton@@UEAAPEAXPEBD@Z 00000001400207b8     Qt5Widgets:Qt5Widgets.dll
 0002:000007c0       __imp_?qt_metacast@QPlainTextEdit@@UEAAPEAXPEBD@Z 00000001400207c0     Qt5Widgets:Qt5Widgets.dll
 0002:000007c8       __imp_?qt_metacall@QWidget@@UEAAHW4Call@QMetaObject@@HPEAPEAX@Z 00000001400207c8     Qt5Widgets:Qt5Widgets.dll
 0002:000007d0       __imp_?qt_metacall@QVBoxLayout@@UEAAHW4Call@QMetaObject@@HPEAPEAX@Z 00000001400207d0     Qt5Widgets:Qt5Widgets.dll
 0002:000007d8       __imp_?qt_metacall@QPushButton@@UEAAHW4Call@QMetaObject@@HPEAPEAX@Z 00000001400207d8     Qt5Widgets:Qt5Widgets.dll
 0002:000007e0       __imp_?qt_metacall@QPlainTextEdit@@UEAAHW4Call@QMetaObject@@HPEAPEAX@Z 00000001400207e0     Qt5Widgets:Qt5Widgets.dll
 0002:000007e8       __imp_?paintEvent@QWidget@@MEAAXPEAVQPaintEvent@@@Z 00000001400207e8     Qt5Widgets:Qt5Widgets.dll
 0002:000007f0       __imp_?paintEvent@QPushButton@@MEAAXPEAVQPaintEvent@@@Z 00000001400207f0     Qt5Widgets:Qt5Widgets.dll
 0002:000007f8       __imp_?paintEvent@QPlainTextEdit@@MEAAXPEAVQPaintEvent@@@Z 00000001400207f8     Qt5Widgets:Qt5Widgets.dll
 0002:00000800       __imp_?paintEngine@QWidget@@UEBAPEAVQPaintEngine@@XZ 0000000140020800     Qt5Widgets:Qt5Widgets.dll
 0002:00000808       __imp_?nextCheckState@QAbstractButton@@MEAAXXZ 0000000140020808     Qt5Widgets:Qt5Widgets.dll
 0002:00000810       __imp_?nativeEvent@QWidget@@MEAA_NAEBVQByteArray@@PEAXPEAJ@Z 0000000140020810     Qt5Widgets:Qt5Widgets.dll
 0002:00000818       __imp_?moveEvent@QWidget@@MEAAXPEAVQMoveEvent@@@Z 0000000140020818     Qt5Widgets:Qt5Widgets.dll
 0002:00000820       __imp_?mouseReleaseEvent@QWidget@@MEAAXPEAVQMouseEvent@@@Z 0000000140020820     Qt5Widgets:Qt5Widgets.dll
 0002:00000828       __imp_?mouseReleaseEvent@QPlainTextEdit@@MEAAXPEAVQMouseEvent@@@Z 0000000140020828     Qt5Widgets:Qt5Widgets.dll
 0002:00000830       __imp_?mouseReleaseEvent@QAbstractButton@@MEAAXPEAVQMouseEvent@@@Z 0000000140020830     Qt5Widgets:Qt5Widgets.dll
 0002:00000838       __imp_?mousePressEvent@QWidget@@MEAAXPEAVQMouseEvent@@@Z 0000000140020838     Qt5Widgets:Qt5Widgets.dll
 0002:00000840       __imp_?mousePressEvent@QPlainTextEdit@@MEAAXPEAVQMouseEvent@@@Z 0000000140020840     Qt5Widgets:Qt5Widgets.dll
 0002:00000848       __imp_?mousePressEvent@QAbstractButton@@MEAAXPEAVQMouseEvent@@@Z 0000000140020848     Qt5Widgets:Qt5Widgets.dll
 0002:00000850       __imp_?mouseMoveEvent@QWidget@@MEAAXPEAVQMouseEvent@@@Z 0000000140020850     Qt5Widgets:Qt5Widgets.dll
 0002:00000858       __imp_?mouseMoveEvent@QPlainTextEdit@@MEAAXPEAVQMouseEvent@@@Z 0000000140020858     Qt5Widgets:Qt5Widgets.dll
 0002:00000860       __imp_?mouseMoveEvent@QAbstractButton@@MEAAXPEAVQMouseEvent@@@Z 0000000140020860     Qt5Widgets:Qt5Widgets.dll
 0002:00000868       __imp_?mouseDoubleClickEvent@QWidget@@MEAAXPEAVQMouseEvent@@@Z 0000000140020868     Qt5Widgets:Qt5Widgets.dll
 0002:00000870       __imp_?mouseDoubleClickEvent@QPlainTextEdit@@MEAAXPEAVQMouseEvent@@@Z 0000000140020870     Qt5Widgets:Qt5Widgets.dll
 0002:00000878       __imp_?minimumSizeHint@QWidget@@UEBA?AVQSize@@XZ 0000000140020878     Qt5Widgets:Qt5Widgets.dll
 0002:00000880       __imp_?minimumSizeHint@QPushButton@@UEBA?AVQSize@@XZ 0000000140020880     Qt5Widgets:Qt5Widgets.dll
 0002:00000888       __imp_?minimumSizeHint@QAbstractScrollArea@@UEBA?AVQSize@@XZ 0000000140020888     Qt5Widgets:Qt5Widgets.dll
 0002:00000890       __imp_?minimumSize@QBoxLayout@@UEBA?AVQSize@@XZ 0000000140020890     Qt5Widgets:Qt5Widgets.dll
 0002:00000898       __imp_?minimumHeightForWidth@QBoxLayout@@UEBAHH@Z 0000000140020898     Qt5Widgets:Qt5Widgets.dll
 0002:000008a0       __imp_?metric@QWidget@@MEBAHW4PaintDeviceMetric@QPaintDevice@@@Z 00000001400208a0     Qt5Widgets:Qt5Widgets.dll
 0002:000008a8       __imp_?metaObject@QWidget@@UEBAPEBUQMetaObject@@XZ 00000001400208a8     Qt5Widgets:Qt5Widgets.dll
 0002:000008b0       __imp_?metaObject@QVBoxLayout@@UEBAPEBUQMetaObject@@XZ 00000001400208b0     Qt5Widgets:Qt5Widgets.dll
 0002:000008b8       __imp_?metaObject@QPushButton@@UEBAPEBUQMetaObject@@XZ 00000001400208b8     Qt5Widgets:Qt5Widgets.dll
 0002:000008c0       __imp_?metaObject@QPlainTextEdit@@UEBAPEBUQMetaObject@@XZ 00000001400208c0     Qt5Widgets:Qt5Widgets.dll
 0002:000008c8       __imp_?maximumSize@QBoxLayout@@UEBA?AVQSize@@XZ 00000001400208c8     Qt5Widgets:Qt5Widgets.dll
 0002:000008d0       __imp_?loadResource@QPlainTextEdit@@UEAA?AVQVariant@@HAEBVQUrl@@@Z 00000001400208d0     Qt5Widgets:Qt5Widgets.dll
 0002:000008d8       __imp_?leaveEvent@QWidget@@MEAAXPEAVQEvent@@@Z 00000001400208d8     Qt5Widgets:Qt5Widgets.dll
 0002:000008e0       __imp_?layout@QLayout@@UEAAPEAV1@XZ 00000001400208e0     Qt5Widgets:Qt5Widgets.dll
 0002:000008e8       __imp_?keyReleaseEvent@QWidget@@MEAAXPEAVQKeyEvent@@@Z 00000001400208e8     Qt5Widgets:Qt5Widgets.dll
 0002:000008f0       __imp_?keyReleaseEvent@QPlainTextEdit@@MEAAXPEAVQKeyEvent@@@Z 00000001400208f0     Qt5Widgets:Qt5Widgets.dll
 0002:000008f8       __imp_?keyReleaseEvent@QAbstractButton@@MEAAXPEAVQKeyEvent@@@Z 00000001400208f8     Qt5Widgets:Qt5Widgets.dll
 0002:00000900       __imp_?keyPressEvent@QWidget@@MEAAXPEAVQKeyEvent@@@Z 0000000140020900     Qt5Widgets:Qt5Widgets.dll
 0002:00000908       __imp_?keyPressEvent@QPushButton@@MEAAXPEAVQKeyEvent@@@Z 0000000140020908     Qt5Widgets:Qt5Widgets.dll
 0002:00000910       __imp_?keyPressEvent@QPlainTextEdit@@MEAAXPEAVQKeyEvent@@@Z 0000000140020910     Qt5Widgets:Qt5Widgets.dll
 0002:00000918       __imp_?itemAt@QBoxLayout@@UEBAPEAVQLayoutItem@@H@Z 0000000140020918     Qt5Widgets:Qt5Widgets.dll
 0002:00000920       __imp_?isEmpty@QLayout@@UEBA_NXZ 0000000140020920     Qt5Widgets:Qt5Widgets.dll
 0002:00000928       __imp_?invalidate@QBoxLayout@@UEAAXXZ 0000000140020928     Qt5Widgets:Qt5Widgets.dll
 0002:00000930       __imp_?insertFromMimeData@QPlainTextEdit@@MEAAXPEBVQMimeData@@@Z 0000000140020930     Qt5Widgets:Qt5Widgets.dll
 0002:00000938       __imp_?inputMethodQuery@QWidget@@UEBA?AVQVariant@@W4InputMethodQuery@Qt@@@Z 0000000140020938     Qt5Widgets:Qt5Widgets.dll
 0002:00000940       __imp_?inputMethodQuery@QPlainTextEdit@@UEBA?AVQVariant@@W4InputMethodQuery@Qt@@@Z 0000000140020940     Qt5Widgets:Qt5Widgets.dll
 0002:00000948       __imp_?inputMethodEvent@QWidget@@MEAAXPEAVQInputMethodEvent@@@Z 0000000140020948     Qt5Widgets:Qt5Widgets.dll
 0002:00000950       __imp_?inputMethodEvent@QPlainTextEdit@@MEAAXPEAVQInputMethodEvent@@@Z 0000000140020950     Qt5Widgets:Qt5Widgets.dll
 0002:00000958       __imp_?initPainter@QWidget@@MEBAXPEAVQPainter@@@Z 0000000140020958     Qt5Widgets:Qt5Widgets.dll
 0002:00000960       __imp_?indexOf@QLayout@@UEBAHPEAVQWidget@@@Z 0000000140020960     Qt5Widgets:Qt5Widgets.dll
 0002:00000968       __imp_?hitButton@QAbstractButton@@MEBA_NAEBVQPoint@@@Z 0000000140020968     Qt5Widgets:Qt5Widgets.dll
 0002:00000970       __imp_?hideEvent@QWidget@@MEAAXPEAVQHideEvent@@@Z 0000000140020970     Qt5Widgets:Qt5Widgets.dll
 0002:00000978       __imp_?heightForWidth@QWidget@@UEBAHH@Z 0000000140020978     Qt5Widgets:Qt5Widgets.dll
 0002:00000980       __imp_?heightForWidth@QBoxLayout@@UEBAHH@Z 0000000140020980     Qt5Widgets:Qt5Widgets.dll
 0002:00000988       __imp_?hasHeightForWidth@QWidget@@UEBA_NXZ 0000000140020988     Qt5Widgets:Qt5Widgets.dll
 0002:00000990       __imp_?hasHeightForWidth@QBoxLayout@@UEBA_NXZ 0000000140020990     Qt5Widgets:Qt5Widgets.dll
 0002:00000998       __imp_?geometry@QLayout@@UEBA?AVQRect@@XZ 0000000140020998     Qt5Widgets:Qt5Widgets.dll
 0002:000009a0       __imp_?focusOutEvent@QWidget@@MEAAXPEAVQFocusEvent@@@Z 00000001400209a0     Qt5Widgets:Qt5Widgets.dll
 0002:000009a8       __imp_?focusOutEvent@QPushButton@@MEAAXPEAVQFocusEvent@@@Z 00000001400209a8     Qt5Widgets:Qt5Widgets.dll
 0002:000009b0       __imp_?focusOutEvent@QPlainTextEdit@@MEAAXPEAVQFocusEvent@@@Z 00000001400209b0     Qt5Widgets:Qt5Widgets.dll
 0002:000009b8       __imp_?focusNextPrevChild@QWidget@@MEAA_N_N@Z 00000001400209b8     Qt5Widgets:Qt5Widgets.dll
 0002:000009c0       __imp_?focusNextPrevChild@QPlainTextEdit@@MEAA_N_N@Z 00000001400209c0     Qt5Widgets:Qt5Widgets.dll
 0002:000009c8       __imp_?focusInEvent@QWidget@@MEAAXPEAVQFocusEvent@@@Z 00000001400209c8     Qt5Widgets:Qt5Widgets.dll
 0002:000009d0       __imp_?focusInEvent@QPushButton@@MEAAXPEAVQFocusEvent@@@Z 00000001400209d0     Qt5Widgets:Qt5Widgets.dll
 0002:000009d8       __imp_?focusInEvent@QPlainTextEdit@@MEAAXPEAVQFocusEvent@@@Z 00000001400209d8     Qt5Widgets:Qt5Widgets.dll
 0002:000009e0       __imp_?expandingDirections@QBoxLayout@@UEBA?AV?$QFlags@W4Orientation@Qt@@@@XZ 00000001400209e0     Qt5Widgets:Qt5Widgets.dll
 0002:000009e8       __imp_?eventFilter@QAbstractScrollArea@@MEAA_NPEAVQObject@@PEAVQEvent@@@Z 00000001400209e8     Qt5Widgets:Qt5Widgets.dll
 0002:000009f0       __imp_?event@QWidget@@MEAA_NPEAVQEvent@@@Z 00000001400209f0     Qt5Widgets:Qt5Widgets.dll
 0002:000009f8       __imp_?event@QPushButton@@MEAA_NPEAVQEvent@@@Z 00000001400209f8     Qt5Widgets:Qt5Widgets.dll
 0002:00000a00       __imp_?event@QPlainTextEdit@@MEAA_NPEAVQEvent@@@Z 0000000140020a00     Qt5Widgets:Qt5Widgets.dll
 0002:00000a08       __imp_?event@QMainWindow@@MEAA_NPEAVQEvent@@@Z 0000000140020a08     Qt5Widgets:Qt5Widgets.dll
 0002:00000a10       __imp_?enterEvent@QWidget@@MEAAXPEAVQEvent@@@Z 0000000140020a10     Qt5Widgets:Qt5Widgets.dll
 0002:00000a18       __imp_?dropEvent@QWidget@@MEAAXPEAVQDropEvent@@@Z 0000000140020a18     Qt5Widgets:Qt5Widgets.dll
 0002:00000a20       __imp_?dropEvent@QPlainTextEdit@@MEAAXPEAVQDropEvent@@@Z 0000000140020a20     Qt5Widgets:Qt5Widgets.dll
 0002:00000a28       __imp_?dragMoveEvent@QWidget@@MEAAXPEAVQDragMoveEvent@@@Z 0000000140020a28     Qt5Widgets:Qt5Widgets.dll
 0002:00000a30       __imp_?dragMoveEvent@QPlainTextEdit@@MEAAXPEAVQDragMoveEvent@@@Z 0000000140020a30     Qt5Widgets:Qt5Widgets.dll
 0002:00000a38       __imp_?dragLeaveEvent@QWidget@@MEAAXPEAVQDragLeaveEvent@@@Z 0000000140020a38     Qt5Widgets:Qt5Widgets.dll
 0002:00000a40       __imp_?dragLeaveEvent@QPlainTextEdit@@MEAAXPEAVQDragLeaveEvent@@@Z 0000000140020a40     Qt5Widgets:Qt5Widgets.dll
 0002:00000a48       __imp_?dragEnterEvent@QWidget@@MEAAXPEAVQDragEnterEvent@@@Z 0000000140020a48     Qt5Widgets:Qt5Widgets.dll
 0002:00000a50       __imp_?dragEnterEvent@QPlainTextEdit@@MEAAXPEAVQDragEnterEvent@@@Z 0000000140020a50     Qt5Widgets:Qt5Widgets.dll
 0002:00000a58       __imp_?doSetTextCursor@QPlainTextEdit@@MEAAXAEBVQTextCursor@@@Z 0000000140020a58     Qt5Widgets:Qt5Widgets.dll
 0002:00000a60       __imp_?devType@QWidget@@UEBAHXZ 0000000140020a60     Qt5Widgets:Qt5Widgets.dll
 0002:00000a68       __imp_?createPopupMenu@QMainWindow@@UEAAPEAVQMenu@@XZ 0000000140020a68     Qt5Widgets:Qt5Widgets.dll
 0002:00000a70       __imp_?createMimeDataFromSelection@QPlainTextEdit@@MEBAPEAVQMimeData@@XZ 0000000140020a70     Qt5Widgets:Qt5Widgets.dll
 0002:00000a78       __imp_?count@QBoxLayout@@UEBAHXZ 0000000140020a78     Qt5Widgets:Qt5Widgets.dll
 0002:00000a80       __imp_?controlTypes@QLayout@@UEBA?AV?$QFlags@W4ControlType@QSizePolicy@@@@XZ 0000000140020a80     Qt5Widgets:Qt5Widgets.dll
 0002:00000a88       __imp_?contextMenuEvent@QWidget@@MEAAXPEAVQContextMenuEvent@@@Z 0000000140020a88     Qt5Widgets:Qt5Widgets.dll
 0002:00000a90       __imp_?contextMenuEvent@QPlainTextEdit@@MEAAXPEAVQContextMenuEvent@@@Z 0000000140020a90     Qt5Widgets:Qt5Widgets.dll
 0002:00000a98       __imp_?contextMenuEvent@QMainWindow@@MEAAXPEAVQContextMenuEvent@@@Z 0000000140020a98     Qt5Widgets:Qt5Widgets.dll
 0002:00000aa0       __imp_?closeEvent@QWidget@@MEAAXPEAVQCloseEvent@@@Z 0000000140020aa0     Qt5Widgets:Qt5Widgets.dll
 0002:00000aa8       __imp_?childEvent@QLayout@@MEAAXPEAVQChildEvent@@@Z 0000000140020aa8     Qt5Widgets:Qt5Widgets.dll
 0002:00000ab0       __imp_?checkStateSet@QAbstractButton@@MEAAXXZ 0000000140020ab0     Qt5Widgets:Qt5Widgets.dll
 0002:00000ab8       __imp_?changeEvent@QWidget@@MEAAXPEAVQEvent@@@Z 0000000140020ab8     Qt5Widgets:Qt5Widgets.dll
 0002:00000ac0       __imp_?changeEvent@QPlainTextEdit@@MEAAXPEAVQEvent@@@Z 0000000140020ac0     Qt5Widgets:Qt5Widgets.dll
 0002:00000ac8       __imp_?changeEvent@QAbstractButton@@MEAAXPEAVQEvent@@@Z 0000000140020ac8     Qt5Widgets:Qt5Widgets.dll
 0002:00000ad0       __imp_?canInsertFromMimeData@QPlainTextEdit@@MEBA_NPEBVQMimeData@@@Z 0000000140020ad0     Qt5Widgets:Qt5Widgets.dll
 0002:00000ad8       __imp_?addItem@QBoxLayout@@UEAAXPEAVQLayoutItem@@@Z 0000000140020ad8     Qt5Widgets:Qt5Widgets.dll
 0002:00000ae0       __imp_?actionEvent@QWidget@@MEAAXPEAVQActionEvent@@@Z 0000000140020ae0     Qt5Widgets:Qt5Widgets.dll
 0002:00000ae8       __imp_?setPlainText@QPlainTextEdit@@QEAAXAEBVQString@@@Z 0000000140020ae8     Qt5Widgets:Qt5Widgets.dll
 0002:00000af0       __imp_??1QPlainTextEdit@@UEAA@XZ 0000000140020af0     Qt5Widgets:Qt5Widgets.dll
 0002:00000af8       __imp_??0QPlainTextEdit@@QEAA@PEAVQWidget@@@Z 0000000140020af8     Qt5Widgets:Qt5Widgets.dll
 0002:00000b00       __imp_?setCentralWidget@QMainWindow@@QEAAXPEAVQWidget@@@Z 0000000140020b00     Qt5Widgets:Qt5Widgets.dll
 0002:00000b08       __imp_??0QMainWindow@@QEAA@PEAVQWidget@@V?$QFlags@W4WindowType@Qt@@@@@Z 0000000140020b08     Qt5Widgets:Qt5Widgets.dll
 0002:00000b10       __imp_??1QPushButton@@UEAA@XZ 0000000140020b10     Qt5Widgets:Qt5Widgets.dll
 0002:00000b18       __imp_??0QPushButton@@QEAA@AEBVQString@@PEAVQWidget@@@Z 0000000140020b18     Qt5Widgets:Qt5Widgets.dll
 0002:00000b20       __imp_??1QVBoxLayout@@UEAA@XZ 0000000140020b20     Qt5Widgets:Qt5Widgets.dll
 0002:00000b28       \177Qt5Widgets_NULL_THUNK_DATA 0000000140020b28     Qt5Widgets:Qt5Widgets.dll
 0002:00000b30       __imp_WSASendTo            0000000140020b30     ws2_32:WS2_32.dll
 0002:00000b38       __imp_freeaddrinfo         0000000140020b38     ws2_32:WS2_32.dll
 0002:00000b40       __imp_getaddrinfo          0000000140020b40     ws2_32:WS2_32.dll
 0002:00000b48       __imp_WSASocketW           0000000140020b48     ws2_32:WS2_32.dll
 0002:00000b50       __imp_WSASend              0000000140020b50     ws2_32:WS2_32.dll
 0002:00000b58       __imp_WSARecvFrom          0000000140020b58     ws2_32:WS2_32.dll
 0002:00000b60       __imp_WSAGetLastError      0000000140020b60     ws2_32:WS2_32.dll
 0002:00000b68       __imp_WSASetLastError      0000000140020b68     ws2_32:WS2_32.dll
 0002:00000b70       __imp_setsockopt           0000000140020b70     ws2_32:WS2_32.dll
 0002:00000b78       __imp_select               0000000140020b78     ws2_32:WS2_32.dll
 0002:00000b80       __imp_ioctlsocket          0000000140020b80     ws2_32:WS2_32.dll
 0002:00000b88       __imp_closesocket          0000000140020b88     ws2_32:WS2_32.dll
 0002:00000b90       __imp_WSACleanup           0000000140020b90     ws2_32:WS2_32.dll
 0002:00000b98       __imp_WSAStartup           0000000140020b98     ws2_32:WS2_32.dll
 0002:00000ba0       \177WS2_32_NULL_THUNK_DATA 0000000140020ba0     ws2_32:WS2_32.dll
 0002:00000ba8       __imp_??0?$PCLBase@UPointXYZRGB@pcl@@@pcl@@QEAA@XZ 0000000140020ba8     pcl_common_release:pcl_common_release.dll
 0002:00000bb0       __imp_?setInputCloud@?$PCLBase@UPointXYZRGB@pcl@@@pcl@@UEAAXAEBV?$shared_ptr@$$CBV?$PointCloud@UPointXYZRGB@pcl@@@pcl@@@boost@@@Z 0000000140020bb0     pcl_common_release:pcl_common_release.dll
 0002:00000bb8       __imp_?print@console@pcl@@YAXW4VERBOSITY_LEVEL@12@PEBDZZ 0000000140020bb8     pcl_common_release:pcl_common_release.dll
 0002:00000bc0       __imp_?setIndices@?$PCLBase@UPointXYZRGB@pcl@@@pcl@@UEAAXAEBV?$shared_ptr@V?$vector@HV?$allocator@H@std@@@std@@@boost@@@Z 0000000140020bc0     pcl_common_release:pcl_common_release.dll
 0002:00000bc8       __imp_?setIndices@?$PCLBase@UPointXYZRGB@pcl@@@pcl@@UEAAXAEBV?$shared_ptr@$$CBV?$vector@HV?$allocator@H@std@@@std@@@boost@@@Z 0000000140020bc8     pcl_common_release:pcl_common_release.dll
 0002:00000bd0       __imp_?setIndices@?$PCLBase@UPointXYZRGB@pcl@@@pcl@@UEAAXAEBV?$shared_ptr@$$CBUPointIndices@pcl@@@boost@@@Z 0000000140020bd0     pcl_common_release:pcl_common_release.dll
 0002:00000bd8       __imp_?setIndices@?$PCLBase@UPointXYZRGB@pcl@@@pcl@@UEAAX_K000@Z 0000000140020bd8     pcl_common_release:pcl_common_release.dll
 0002:00000be0       __imp_?initCompute@?$PCLBase@UPointXYZRGB@pcl@@@pcl@@IEAA_NXZ 0000000140020be0     pcl_common_release:pcl_common_release.dll
 0002:00000be8       __imp_?deinitCompute@?$PCLBase@UPointXYZRGB@pcl@@@pcl@@IEAA_NXZ 0000000140020be8     pcl_common_release:pcl_common_release.dll
 0002:00000bf0       \177pcl_common_release_NULL_THUNK_DATA 0000000140020bf0     pcl_common_release:pcl_common_release.dll
 0002:00000bf8       __imp_?applyFilter@?$StatisticalOutlierRemoval@UPointXYZRGB@pcl@@@pcl@@MEAAXAEAV?$PointCloud@UPointXYZRGB@pcl@@@2@@Z 0000000140020bf8     pcl_filters_release:pcl_filters_release.dll
 0002:00000c00       __imp_?applyFilterIndices@?$StatisticalOutlierRemoval@UPointXYZRGB@pcl@@@pcl@@IEAAXAEAV?$vector@HV?$allocator@H@std@@@std@@@Z 0000000140020c00     pcl_filters_release:pcl_filters_release.dll
 0002:00000c08       __imp_??$removeNaNFromPointCloud@UPointXYZRGB@pcl@@@pcl@@YAXAEBV?$PointCloud@UPointXYZRGB@pcl@@@0@AEAV10@AEAV?$vector@HV?$allocator@H@std@@@std@@@Z 0000000140020c08     pcl_filters_release:pcl_filters_release.dll
 0002:00000c10       \177pcl_filters_release_NULL_THUNK_DATA 0000000140020c10     pcl_filters_release:pcl_filters_release.dll
 0002:00000c18       __imp_?readHeader@PLYReader@pcl@@UEAAHAEBV?$basic_string@DU?$char_traits@D@std@@V?$allocator@D@2@@std@@AEAUPCLPointCloud2@2@AEAV?$Matrix@M$03$00$0A@$03$00@Eigen@@AEAV?$Quaternion@M$0A@@7@AEAH4AEAIH@Z 0000000140020c18     pcl_io_release:pcl_io_release.dll
 0002:00000c20       __imp_?read@PLYReader@pcl@@UEAAHAEBV?$basic_string@DU?$char_traits@D@std@@V?$allocator@D@2@@std@@AEAUPCLPointCloud2@2@AEAV?$Matrix@M$03$00$0A@$03$00@Eigen@@AEAV?$Quaternion@M$0A@@7@AEAHH@Z 0000000140020c20     pcl_io_release:pcl_io_release.dll
 0002:00000c28       __imp_?writeBinary@PLYWriter@pcl@@QEAAHAEBV?$basic_string@DU?$char_traits@D@std@@V?$allocator@D@2@@std@@AEBUPCLPointCloud2@2@AEBV?$Matrix@M$03$00$0A@$03$00@Eigen@@AEBV?$Quaternion@M$0A@@7@_N@Z 0000000140020c28     pcl_io_release:pcl_io_release.dll
 0002:00000c30       __imp_?writeASCII@PLYWriter@pcl@@QEAAHAEBV?$basic_string@DU?$char_traits@D@std@@V?$allocator@D@2@@std@@AEBUPCLPointCloud2@2@AEBV?$Matrix@M$03$00$0A@$03$00@Eigen@@AEBV?$Quaternion@M$0A@@7@H_N@Z 0000000140020c30     pcl_io_release:pcl_io_release.dll
 0002:00000c38       \177pcl_io_release_NULL_THUNK_DATA 0000000140020c38     pcl_io_release:pcl_io_release.dll
 0002:00000c40       __xc_a                     0000000140020c40     MSVCRT:cinitexe.obj
 0002:00000ef0       __xc_z                     0000000140020ef0     MSVCRT:cinitexe.obj
 0002:00000ef8       __xi_a                     0000000140020ef8     MSVCRT:cinitexe.obj
 0002:00000f18       __xi_z                     0000000140020f18     MSVCRT:cinitexe.obj
 0002:00001140       ??_7runtime_error@std@@6B@ 0000000140021140     main.obj
 0002:00001158       ??_7error_category@std@@6B@ 0000000140021158     main.obj
 0002:00001188       ??_C@_02LMMGGCAJ@?3?5?$AA@ 0000000140021188     main.obj
 0002:00001198       ??_7_Generic_error_category@std@@6B@ 0000000140021198     main.obj
 0002:000011c8       ??_C@_07DCLBNMLN@generic?$AA@ 00000001400211c8     main.obj
 0002:000011d0       ??_C@_0O@BFJCFAAK@unknown?5error?$AA@ 00000001400211d0     main.obj
 0002:000011e8       ??_7_Iostream_error_category@std@@6B@ 00000001400211e8     main.obj
 0002:00001218       ??_C@_08LLGCOLLL@iostream?$AA@ 0000000140021218     main.obj
 0002:00001228       ??_C@_0BG@PADBLCHM@iostream?5stream?5error?$AA@ 0000000140021228     main.obj
 0002:00001248       ??_7_System_error_category@std@@6B@ 0000000140021248     main.obj
 0002:00001278       ??_C@_06FHFOAHML@system?$AA@ 0000000140021278     main.obj
 0002:00001288       ??_7error_category@system@boost@@6B@ 0000000140021288     main.obj
 0002:000012c0       ??_7exception@boost@@6B@   00000001400212c0     main.obj
 0002:000012d0       ??_7clone_base@exception_detail@boost@@6B@ 00000001400212d0     main.obj
 0002:000012f0       ??_7system_error@system@boost@@6B@ 00000001400212f0     main.obj
 0002:00001308       ??_7misc_category@detail@error@asio@boost@@6B@ 0000000140021308     main.obj
 0002:00001338       ??_C@_09FLGJABBF@asio?4misc?$AA@ 0000000140021338     main.obj
 0002:00001348       ??_C@_0N@IIJCFAFG@Already?5open?$AA@ 0000000140021348     main.obj
 0002:00001358       ??_C@_0M@JLKPDLNL@End?5of?5file?$AA@ 0000000140021358     main.obj
 0002:00001368       ??_C@_0BC@PBFILDFO@Element?5not?5found?$AA@ 0000000140021368     main.obj
 0002:00001380       ??_C@_0DK@IEHIHFKF@The?5descriptor?5does?5not?5fit?5into@ 0000000140021380     main.obj
 0002:000013c0       ??_C@_0BA@MDJOCIOE@asio?4misc?5error?$AA@ 00000001400213c0     main.obj
 0002:000013d0       ??_C@_03GIEDOLBE@tss?$AA@  00000001400213d0     main.obj
 0002:000013d8       ??_C@_07BDHGFFM@winsock?$AA@ 00000001400213d8     main.obj
 0002:000013e8       ??_7?$basic_stringbuf@DU?$char_traits@D@std@@V?$allocator@D@2@@std@@6B@ 00000001400213e8     main.obj
 0002:00001468       ??_7?$basic_ostringstream@DU?$char_traits@D@std@@V?$allocator@D@2@@std@@6B@ 0000000140021468     main.obj
 0002:00001470       ??_C@_09OOCHMGDL@QtProject?$AA@ 0000000140021470     main.obj
 0002:00001480       ??_C@_0BE@DOIIJDHG@Application?5Example?$AA@ 0000000140021480     main.obj
 0002:00001494       ??_C@_05DGPLNBJH@5?49?42?$AA@ 0000000140021494     main.obj
 0002:000014a0       ??_C@_0BC@MJEKBNHM@The?5file?5to?5open?4?$AA@ 00000001400214a0     main.obj
 0002:000014b4       ??_C@_04DAMGJPCA@file?$AA@ 00000001400214b4     main.obj
 0002:000014c0       ??_C@_0BA@JFNIOLAK@string?5too?5long?$AA@ 00000001400214c0     main.obj
 0002:000014d0       ??_C@_0BI@CFPLBAOH@invalid?5string?5position?$AA@ 00000001400214d0     main.obj
 0002:000014f0       ??_7?$error_info_injector@Vsystem_error@system@boost@@@exception_detail@boost@@6Bsystem_error@system@2@@ 00000001400214f0     main.obj
 0002:00001508       ??_7?$error_info_injector@Vsystem_error@system@boost@@@exception_detail@boost@@6Bexception@2@@ 0000000140021508     main.obj
 0002:00001518       ??_7?$clone_impl@U?$error_info_injector@Vsystem_error@system@boost@@@exception_detail@boost@@@exception_detail@boost@@6Bsystem_error@system@2@@ 0000000140021518     main.obj
 0002:00001530       ??_7?$clone_impl@U?$error_info_injector@Vsystem_error@system@boost@@@exception_detail@boost@@@exception_detail@boost@@6Bexception@2@@ 0000000140021530     main.obj
 0002:00001540       ??_7?$clone_impl@U?$error_info_injector@Vsystem_error@system@boost@@@exception_detail@boost@@@exception_detail@boost@@6B@ 0000000140021540     main.obj
 0002:00001558       ??_8?$clone_impl@U?$error_info_injector@Vsystem_error@system@boost@@@exception_detail@boost@@@exception_detail@boost@@7B@ 0000000140021558     main.obj
 0002:00001b80       ??_7_Ref_count_base@std@@6B@ 0000000140021b80     udp_func.obj
 0002:00001ba0       ??_C@_00CNPNBAHC@?$AA@     0000000140021ba0     udp_func.obj
 0002:00001bb0       ??_7service@io_service@asio@boost@@6B@ 0000000140021bb0     udp_func.obj
 0002:00001bc8       ??_C@_05IGMCOAJJ@mutex?$AA@ 0000000140021bc8     udp_func.obj
 0002:00001bd8       ??_7func_base@win_thread@detail@asio@boost@@6B@ 0000000140021bd8     udp_func.obj
 0002:00001be8       ??_C@_0BD@EOBIIGFM@thread?4entry_event?$AA@ 0000000140021be8     udp_func.obj
 0002:00001c00       ??_C@_0BC@CKCFMILN@thread?4exit_event?$AA@ 0000000140021c00     udp_func.obj
 0002:00001c14       ??_C@_06FJHNOCKE@thread?$AA@ 0000000140021c14     udp_func.obj
 0002:00001c28       ??_7win_iocp_io_service@detail@asio@boost@@6B@ 0000000140021c28     udp_func.obj
 0002:00001c40       ??_C@_04KLBEPGAE@iocp?$AA@ 0000000140021c40     udp_func.obj
 0002:00001c48       ??_C@_04FNAPHAJI@pqcs?$AA@ 0000000140021c48     udp_func.obj
 0002:00001c58       ??_7?$resolver_service@Vudp@ip@asio@boost@@@ip@asio@boost@@6B@ 0000000140021c58     udp_func.obj
 0002:00001c78       ??_7?$datagram_socket_service@Vudp@ip@asio@boost@@@asio@boost@@6B@ 0000000140021c78     udp_func.obj
 0002:00001c90       ??_C@_0CN@MEMBCEBJ@Package?5received?5by?5luxor?5has?5wr@ 0000000140021c90     udp_func.obj
 0002:00001cc0       ??_C@_0DP@PIBDJHMB@Package?5received?5from?5luxor?5does@ 0000000140021cc0     udp_func.obj
 0002:00001d00       ??_C@_05HDLIEMLG@?6id?3?5?$AA@ 0000000140021d00     udp_func.obj
 0002:00001d08       ??_C@_0BN@IHBFAJFP@?6?9?9?9?6Exception?3?6frame_type?3?5?$AA@ 0000000140021d08     udp_func.obj
 0002:00001d28       ??_C@_0DI@JLJEALOA@Package?5received?5from?5luxor?5does@ 0000000140021d28     udp_func.obj
 0002:00001d60       ??_C@_0DI@LBHLDCBE@Package?5received?5from?5luxor?5does@ 0000000140021d60     udp_func.obj
 0002:00001d98       ??_C@_07CPEIJHB@resolve?$AA@ 0000000140021d98     udp_func.obj
 0002:00001da0       ??_C@_04PMOCAHAA@open?$AA@ 0000000140021da0     udp_func.obj
 0002:00001da8       ??_C@_0BD@OLBABOEK@vector?$DMT?$DO?5too?5long?$AA@ 0000000140021da8     udp_func.obj
 0002:00001dc0       ??_C@_0BB@MOGOBHAF@list?$DMT?$DO?5too?5long?$AA@ 0000000140021dc0     udp_func.obj
 0002:00001de0       ??_7?$func@Vwork_io_service_runner@resolver_service_base@detail@asio@boost@@@win_thread@detail@asio@boost@@6B@ 0000000140021de0     udp_func.obj
 0002:00001df0       ??_C@_0N@JOBPFBCC@receive_from?$AA@ 0000000140021df0     udp_func.obj
 0002:00001e08       ??_7?$_Ref_count_del@XUnoop_deleter@socket_ops@detail@asio@boost@@@std@@6B@ 0000000140021e08     udp_func.obj
 0002:00001e30       ??_7?$_Ref_count@V?$vector@V?$basic_resolver_entry@Vudp@ip@asio@boost@@@ip@asio@boost@@V?$allocator@V?$basic_resolver_entry@Vudp@ip@asio@boost@@@ip@asio@boost@@@std@@@std@@@std@@6B@ 0000000140021e30     udp_func.obj
 0002:00001e50       __xmm@00000011000000020000000200000400 0000000140021e50     udp_func.obj
 0002:00002df0       ??_7bad_exception@std@@6B@ 0000000140022df0     processply.obj
 0002:00002e08       ??_7bad_alloc@std@@6B@     0000000140022e08     processply.obj
 0002:00002e18       ??_C@_0P@GHFPNOJB@bad?5allocation?$AA@ 0000000140022e18     processply.obj
 0002:00002e30       ??_7sp_counted_base@detail@boost@@6B@ 0000000140022e30     processply.obj
 0002:00002e60       ??_7bad_alloc_@exception_detail@boost@@6Bexception@2@@ 0000000140022e60     processply.obj
 0002:00002e70       ??_7bad_alloc_@exception_detail@boost@@6Bbad_alloc@std@@@ 0000000140022e70     processply.obj
 0002:00002e88       ??_7bad_exception_@exception_detail@boost@@6Bexception@2@@ 0000000140022e88     processply.obj
 0002:00002e98       ??_7bad_exception_@exception_detail@boost@@6Bbad_exception@std@@@ 0000000140022e98     processply.obj
 0002:00002eb0       ??_7FileReader@pcl@@6B@    0000000140022eb0     processply.obj
 0002:00002ed0       ??_7FileWriter@pcl@@6B@    0000000140022ed0     processply.obj
 0002:00002ee8       ??_7PLYReader@pcl@@6B@     0000000140022ee8     processply.obj
 0002:00002f08       ??_7PLYWriter@pcl@@6B@     0000000140022f08     processply.obj
 0002:00002f18       ??_C@_01EEMJAFIK@?6?$AA@   0000000140022f18     processply.obj
 0002:00002f20       ??_C@_0BK@BNILNPIH@StatisticalOutlierRemoval?$AA@ 0000000140022f20     processply.obj
 0002:00002f48       ??_7?$PointCloud@UPointXYZRGB@pcl@@@pcl@@6B@ 0000000140022f48     processply.obj
 0002:00002f50       ??_C@_0N@CHFCKKOM@luxor_clouds?$AA@ 0000000140022f50     processply.obj
 0002:00002f60       ??_C@_02MCBMIIIH@?5?6?$AA@ 0000000140022f60     processply.obj
 0002:00002f68       ??_C@_0BE@KAIMHGFN@Couldn?8t?5read?5file?5?$AA@ 0000000140022f68     processply.obj
 0002:00002f80       ??_C@_0BD@IJHMDAAL@?5data?5points?5from?5?$AA@ 0000000140022f80     processply.obj
 0002:00002f94       ??_C@_03MHLONNLM@?5?$DN?5?$AA@ 0000000140022f94     processply.obj
 0002:00002f98       ??_C@_03NONHGIEJ@?5?$CK?5?$AA@ 0000000140022f98     processply.obj
 0002:00002fa0       ??_C@_07OAKJIGCF@Loaded?5?$AA@ 0000000140022fa0     processply.obj
 0002:00002fa8       ??_C@_0P@KHHHLPJK@?6?5and?5has?5size?$AA@ 0000000140022fa8     processply.obj
 0002:00002fb8       ??_C@_0BM@DHHLJJBK@new?5pointcloud?5is?5saved?5at?5?$AA@ 0000000140022fb8     processply.obj
 0002:00002fe0       ??_7?$PCLBase@UPointXYZRGB@pcl@@@pcl@@6B@ 0000000140022fe0     processply.obj
 0002:00003018       ??_7?$Filter@UPointXYZRGB@pcl@@@pcl@@6B@ 0000000140023018     processply.obj
 0002:00003058       ??_7?$FilterIndices@UPointXYZRGB@pcl@@@pcl@@6B@ 0000000140023058     processply.obj
 0002:000030a0       ??_7?$StatisticalOutlierRemoval@UPointXYZRGB@pcl@@@pcl@@6B@ 00000001400230a0     processply.obj
 0002:000030e0       ??_C@_04JDCDMJOA@?4ply?$AA@ 00000001400230e0     processply.obj
 0002:000030e8       ??_C@_0P@OKADBKMH@Nothing?5found?6?$AA@ 00000001400230e8     processply.obj
 0002:000030f8       ??_C@_0BA@HOFLEANN@Last?5modified?3?5?$AA@ 00000001400230f8     processply.obj
 0002:00003108       ??_C@_0BE@EGOEEME@Cleared?5directory?3?6?$AA@ 0000000140023108     processply.obj
 0002:00003128       ??_7?$clone_impl@Ubad_alloc_@exception_detail@boost@@@exception_detail@boost@@6Bexception@2@@ 0000000140023128     processply.obj
 0002:00003138       ??_7?$clone_impl@Ubad_alloc_@exception_detail@boost@@@exception_detail@boost@@6Bbad_alloc@std@@@ 0000000140023138     processply.obj
 0002:00003150       ??_7?$clone_impl@Ubad_alloc_@exception_detail@boost@@@exception_detail@boost@@6B@ 0000000140023150     processply.obj
 0002:00003168       ??_8?$clone_impl@Ubad_alloc_@exception_detail@boost@@@exception_detail@boost@@7B@ 0000000140023168     processply.obj
 0002:00003170       ??_C@_0EK@NKFOMGAE@C?3?2Software?2VS2013?2boost?2include@ 0000000140023170     processply.obj
 0002:000031c0       ??_C@_0IK@LHEHAGMH@class?5boost?3?3exception_ptr?5__cde@ 00000001400231c0     processply.obj
 0002:00003258       ??_7?$clone_impl@Ubad_exception_@exception_detail@boost@@@exception_detail@boost@@6Bexception@2@@ 0000000140023258     processply.obj
 0002:00003268       ??_7?$clone_impl@Ubad_exception_@exception_detail@boost@@@exception_detail@boost@@6Bbad_exception@std@@@ 0000000140023268     processply.obj
 0002:00003280       ??_7?$clone_impl@Ubad_exception_@exception_detail@boost@@@exception_detail@boost@@6B@ 0000000140023280     processply.obj
 0002:00003298       ??_8?$clone_impl@Ubad_exception_@exception_detail@boost@@@exception_detail@boost@@7B@ 0000000140023298     processply.obj
 0002:000032a0       ??_C@_0IO@BHMGIOEK@class?5boost?3?3exception_ptr?5__cde@ 00000001400232a0     processply.obj
 0002:00003330       ??_C@_0O@DPKOEFFH@bad?5exception?$AA@ 0000000140023330     processply.obj
 0002:00003348       ??_7?$sp_counted_impl_p@Udir_itr_imp@detail@filesystem@boost@@@detail@boost@@6B@ 0000000140023348     processply.obj
 0002:00003378       ??_7?$sp_counted_impl_p@V?$vector@HV?$allocator@H@std@@@std@@@detail@boost@@6B@ 0000000140023378     processply.obj
 0002:000033a8       ??_7?$sp_counted_impl_p@V?$PointCloud@UPointXYZRGB@pcl@@@pcl@@@detail@boost@@6B@ 00000001400233a8     processply.obj
 0002:000033d8       ??_7?$sp_counted_impl_p@V?$clone_impl@Ubad_alloc_@exception_detail@boost@@@exception_detail@boost@@@detail@boost@@6B@ 00000001400233d8     processply.obj
 0002:00003408       ??_7?$sp_counted_impl_p@V?$clone_impl@Ubad_exception_@exception_detail@boost@@@exception_detail@boost@@@detail@boost@@6B@ 0000000140023408     processply.obj
 0002:00003430       ?value@?$name@U_PointXYZRGB@pcl@@Ux@fields@2@$0A@@traits@pcl@@2QBDB 0000000140023430     processply.obj
 0002:00003438       ??_C@_0CG@HKAFFHMJ@Failed?5to?5find?5match?5for?5field?5?8@ 0000000140023438     processply.obj
 0002:00003460       ?value@?$name@U_PointXYZRGB@pcl@@Uy@fields@2@$0A@@traits@pcl@@2QBDB 0000000140023460     processply.obj
 0002:00003464       ?value@?$name@U_PointXYZRGB@pcl@@Uz@fields@2@$0A@@traits@pcl@@2QBDB 0000000140023464     processply.obj
 0002:00003468       ?value@?$name@U_PointXYZRGB@pcl@@Urgb@fields@2@$0A@@traits@pcl@@2QBDB 0000000140023468     processply.obj
 0002:0000346c       ??_C@_04CLILDBFP@rgba?$AA@ 000000014002346c     processply.obj
 0002:00003478       __real@3ff0000000000000    0000000140023478     processply.obj
 0002:00003480       __xmm@3f800000000000000000000000000000 0000000140023480     processply.obj
 0002:00003798       ??_8?$basic_ostringstream@DU?$char_traits@D@std@@V?$allocator@D@2@@std@@7B@ 0000000140023798     processcontrol.obj
 0002:000037a0       ??_C@_09PFCHIMEP@127?40?40?41?$AA@ 00000001400237a0     processcontrol.obj
 0002:000037ac       ??_C@_05DNLNILHG@20123?$AA@ 00000001400237ac     processcontrol.obj
 0002:000037b4       ??_C@_05PBLBJKJM@Mode2?$AA@ 00000001400237b4     processcontrol.obj
 0002:000037bc       ??_C@_05NKJMMJFP@Mode1?$AA@ 00000001400237bc     processcontrol.obj
 0002:000037d0       ??_C@_0EM@BHLKDHAN@C?3?1Users?1dbutov?1Desktop?1Jacob_De@ 00000001400237d0     processcontrol.obj
 0002:00003820       ??_C@_0CH@HCHONKEG@Camera?5Settings?9?$DO?5Trigger?5to?5Sof@ 0000000140023820     processcontrol.obj
 0002:00003848       ??_C@_0CP@MFIHOGCG@Make?5sure?5that?5Luxor?53D?5Aquisiti@ 0000000140023848     processcontrol.obj
 0002:00003878       ??_C@_0M@DKMLENP@UDP?5Port?5?3?5?$AA@ 0000000140023878     processcontrol.obj
 0002:00003888       ??_C@_09MDMDAMCD@UDP?5ID?5?3?5?$AA@ 0000000140023888     processcontrol.obj
 0002:00003898       ??_C@_0BG@IGEMNBJK@Sent?5trigger?5request?4?$AA@ 0000000140023898     processcontrol.obj
 0002:000038b0       ??_C@_0BK@PFEBEFAG@Oups?$CB?5Could?5not?5trigger?4?6?$AA@ 00000001400238b0     processcontrol.obj
 0002:000038d0       ??_C@_0CG@JGEOCKAF@Under?5Luxor?9?$DOViewer?5for?5visualiz@ 00000001400238d0     processcontrol.obj
 0002:000038f8       ??_C@_0DG@IHDEBLGJ@Luxor?5Triggered?0?5object?5detected@ 00000001400238f8     processcontrol.obj
 0002:00003930       ??_C@_0CL@HFOJLBIO@Oups?$CB?5Could?5not?5trigger?5or?5detec@ 0000000140023930     processcontrol.obj
 0002:00003960       ??_C@_0BD@NIJCHJPK@?5on?5UDP_STATUS_OK?6?$AA@ 0000000140023960     processcontrol.obj
 0002:00003978       ??_C@_0CN@PCOJEFON@Trigger?5request?5failed?5because?5L@ 0000000140023978     processcontrol.obj
 0002:000039a8       ??_C@_0DB@CHADCIII@No?5UDP?5connection?5could?5be?5estab@ 00000001400239a8     processcontrol.obj
 0002:000039e0       ??_C@_0BN@NPHIGJFL@Aquisition?5Mode?5switched?5to?5?$AA@ 00000001400239e0     processcontrol.obj
 0002:00003b90       ??_C@_02DPKJAMEF@?$CFd?$AA@ 0000000140023b90     festo_udp_func.obj
 0002:00003b98       ??_C@_0BF@EDHEGBJB@path?5length?5too?5long?$AA@ 0000000140023b98     festo_udp_func.obj
 0002:00003bb0       ??_C@_0CD@CLBNMAAE@UDP?3?5data_size?3?5unknown?5frame?5ty@ 0000000140023bb0     festo_udp_func.obj
 0002:00003bd8       ??_C@_0BA@IEEGLONE@ReferenceRework?$AA@ 0000000140023bd8     festo_udp_func.obj
 0002:00003bf0       ??_C@_0FB@JKOJLBC@Package?5received?5from?5luxor?5does@ 0000000140023bf0     festo_udp_func.obj
 0002:00003c48       ??_C@_0BM@KDPFECPJ@Unhandeled?5Exception?5caught?$AA@ 0000000140023c48     festo_udp_func.obj
 0002:00003c68       ??_C@_07BNDDMCBA@send_to?$AA@ 0000000140023c68     festo_udp_func.obj
 0002:00003c78       ??_7?$sp_counted_impl_p@V?$vector@EV?$allocator@E@std@@@std@@@detail@boost@@6B@ 0000000140023c78     festo_udp_func.obj
 0002:00003ca0       ??_C@_0BE@JONHPENG@map?1set?$DMT?$DO?5too?5long?$AA@ 0000000140023ca0     festo_udp_func.obj
 0002:00003d38       ??_SQTimer@@6B@            0000000140023d38     mainwindow.obj
 0002:00003d98       ??_SQWidget@@6BQObject@@@  0000000140023d98     mainwindow.obj
 0002:00003f08       ??_SQWidget@@6BQPaintDevice@@@ 0000000140023f08     mainwindow.obj
 0002:00003f48       ??_SQVBoxLayout@@6BQObject@@@ 0000000140023f48     mainwindow.obj
 0002:00003fd8       ??_SQVBoxLayout@@6BQLayoutItem@@@ 0000000140023fd8     mainwindow.obj
 0002:00004068       ??_SQPushButton@@6BQObject@@@ 0000000140024068     mainwindow.obj
 0002:000041f8       ??_SQPushButton@@6BQPaintDevice@@@ 00000001400241f8     mainwindow.obj
 0002:00004238       ??_SQPlainTextEdit@@6BQObject@@@ 0000000140024238     mainwindow.obj
 0002:000043f8       ??_SQPlainTextEdit@@6BQPaintDevice@@@ 00000001400243f8     mainwindow.obj
 0002:00004438       ??_7MainWindow@@6BQObject@@@ 0000000140024438     mainwindow.obj
 0002:000045b0       ??_7MainWindow@@6BQPaintDevice@@@ 00000001400245b0     mainwindow.obj
 0002:000045e8       ??_C@_0M@HMMMBMOM@Scan?5Object?$AA@ 00000001400245e8     mainwindow.obj
 0002:000045f8       ??_C@_0O@OLNBGLJJ@Detect?5object?$AA@ 00000001400245f8     mainwindow.obj
 0002:00004608       ??_C@_0BL@JMMKFMEH@Start?5continuous?5detection?$AA@ 0000000140024608     mainwindow.obj
 0002:00004628       ??_C@_0BA@MFFAOCPL@1btn1_clicked?$CI?$CJ?$AA@ 0000000140024628     mainwindow.obj
 0002:00004638       ??_C@_0L@OELOHDKG@2clicked?$CI?$CJ?$AA@ 0000000140024638     mainwindow.obj
 0002:00004648       ??_C@_0BA@LCMODAAL@1btn2_clicked?$CI?$CJ?$AA@ 0000000140024648     mainwindow.obj
 0002:00004658       ??_C@_0BA@CJGLHMGE@1btn3_clicked?$CI?$CJ?$AA@ 0000000140024658     mainwindow.obj
 0002:00004668       ??_C@_0N@MAEGFJEH@1timerfire?$CI?$CJ?$AA@ 0000000140024668     mainwindow.obj
 0002:00004678       ??_C@_0L@CHKJBFLD@2timeout?$CI?$CJ?$AA@ 0000000140024678     mainwindow.obj
 0002:00004688       ??_C@_0BK@HCDBLCCB@Stop?5continuous?5detection?$AA@ 0000000140024688     mainwindow.obj
 0002:000046a8       ??_C@_0BH@KFJBEHA@Continuous?5trigger?4?4?4?6?$AA@ 00000001400246a8     mainwindow.obj
 0002:000046c0       ??_C@_0N@OPODIKLJ@?4?4?4stopped?4?6?$AA@ 00000001400246c0     mainwindow.obj
 0002:0001b5f8       ??_7generic_error_category@?A0x268fe48c@system@boost@@6B@ 000000014003b5f8     libboost_system-vc120-mt-1_63:error_code.obj
 0002:0001b630       ??_7system_error_category@?A0x268fe48c@system@boost@@6B@ 000000014003b630     libboost_system-vc120-mt-1_63:error_code.obj
 0002:0001b660       ??_C@_0O@NIPGCINC@Unknown?5error?$AA@ 000000014003b660     libboost_system-vc120-mt-1_63:error_code.obj
 0002:0001b6c0       ??_C@_0CL@DAOCCAGO@boost?3?3filesystem?3?3path?5codecvt?5@ 000000014003b6c0     libboost_filesystem-vc120-mt-1_63:path_traits.obj
 0002:0001b6f0       ??_C@_0CK@LBJGOPEN@boost?3?3filesystem?3?3path?5codecvt?5@ 000000014003b6f0     libboost_filesystem-vc120-mt-1_63:path_traits.obj
 0002:0001b728       ??_C@_15DJBMFJKF@?$AA?1?$AA?2?$AA?$AA@ 000000014003b728     libboost_filesystem-vc120-mt-1_63:path.obj
 0002:0001b730       ??_C@_13CGOKJPIL@?$AA?1?$AA?$AA@ 000000014003b730     libboost_filesystem-vc120-mt-1_63:path.obj
 0002:0001b734       ??_C@_13FPGAJAPJ@?$AA?2?$AA?$AA@ 000000014003b734     libboost_filesystem-vc120-mt-1_63:path.obj
 0002:0001b968       ??_C@_01NBENCBCI@?$CK?$AA@ 000000014003b968     libboost_filesystem-vc120-mt-1_63:path.obj
 0002:0001b978       ??_7windows_file_codecvt@@6B@ 000000014003b978     libboost_filesystem-vc120-mt-1_63:path.obj
 0002:0001b9c8       ??_C@_13JOFGPIOO@?$AA?4?$AA?$AA@ 000000014003b9c8     libboost_filesystem-vc120-mt-1_63:path.obj
 0002:0001b9cc       ??_C@_15DDHGOCBH@?$AA?4?$AA?4?$AA?$AA@ 000000014003b9cc     libboost_filesystem-vc120-mt-1_63:path.obj
 0002:0001b9d8       ??_C@_08EPJLHIJG@bad?5cast?$AA@ 000000014003b9d8     libboost_filesystem-vc120-mt-1_63:path.obj
 0002:0001bc70       ??_7filesystem_error@filesystem@boost@@6B@ 000000014003bc70     libboost_filesystem-vc120-mt-1_63:operations.obj
 0002:0001bc80       ??_C@_03NONCDIOG@?3?5?$CC?$AA@ 000000014003bc80     libboost_filesystem-vc120-mt-1_63:operations.obj
 0002:0001bc84       ??_C@_01BJJEKLCA@?$CC?$AA@ 000000014003bc84     libboost_filesystem-vc120-mt-1_63:operations.obj
 0002:0001bc88       ??_C@_03KLKADAKF@?0?5?$CC?$AA@ 000000014003bc88     libboost_filesystem-vc120-mt-1_63:operations.obj
 0002:0001bc90       ??_C@_0BK@FHFLIGPD@boost?3?3filesystem?3?3remove?$AA@ 000000014003bc90     libboost_filesystem-vc120-mt-1_63:operations.obj
 0002:0001bcac       ??_C@_04JLMDILM@?4exe?$AA@ 000000014003bcac     libboost_filesystem-vc120-mt-1_63:operations.obj
 0002:0001bcb4       ??_C@_04PNGHFIJN@?4com?$AA@ 000000014003bcb4     libboost_filesystem-vc120-mt-1_63:operations.obj
 0002:0001bcbc       ??_C@_04NEEFLLOK@?4bat?$AA@ 000000014003bcbc     libboost_filesystem-vc120-mt-1_63:operations.obj
 0002:0001bcc4       ??_C@_04CPCBDHLK@?4cmd?$AA@ 000000014003bcc4     libboost_filesystem-vc120-mt-1_63:operations.obj
 0002:0001bcd0       ??_C@_0BK@GFJAGKGI@boost?3?3filesystem?3?3status?$AA@ 000000014003bcd0     libboost_filesystem-vc120-mt-1_63:operations.obj
 0002:0001bcf0       ??_C@_0BA@LGDMGDBA@CreateHardLinkW?$AA@ 000000014003bcf0     libboost_filesystem-vc120-mt-1_63:operations.obj
 0002:0001bd00       ??_C@_0N@MDJJJHMB@kernel32?4dll?$AA@ 000000014003bd00     libboost_filesystem-vc120-mt-1_63:operations.obj
 0002:0001bd10       ??_C@_0BE@FKKLLFLM@CreateSymbolicLinkW?$AA@ 000000014003bd10     libboost_filesystem-vc120-mt-1_63:operations.obj
 0002:0001bd28       ??_C@_0CD@NHIDKKOH@boost?3?3filesystem?3?3last_write_ti@ 000000014003bd28     libboost_filesystem-vc120-mt-1_63:operations.obj
 0002:0001bd50       ??_C@_0BO@GMHHEACA@boost?3?3filesystem?3?3remove_all?$AA@ 000000014003bd50     libboost_filesystem-vc120-mt-1_63:operations.obj
 0002:0001bd70       ??_C@_15PKPONJIK@?$AA?2?$AA?$CK?$AA?$AA@ 000000014003bd70     libboost_filesystem-vc120-mt-1_63:operations.obj
 0002:0001bd78       ??_C@_13BBDEGPLJ@?$AA?$CK?$AA?$AA@ 000000014003bd78     libboost_filesystem-vc120-mt-1_63:operations.obj
 0002:0001bd80       ??_C@_0DB@FHOPMNHO@boost?3?3filesystem?3?3directory_ite@ 000000014003bd80     libboost_filesystem-vc120-mt-1_63:operations.obj
 0002:0001bdb8       ??_C@_0DC@BFHABOFO@boost?3?3filesystem?3?3directory_ite@ 000000014003bdb8     libboost_filesystem-vc120-mt-1_63:operations.obj
 0002:0001bdf8       ??_7?$sp_counted_impl_p@Um_imp@filesystem_error@filesystem@boost@@@detail@boost@@6B@ 000000014003bdf8     libboost_filesystem-vc120-mt-1_63:operations.obj
 0002:0001be78       ??_7codecvt_error_cat@?A0x07dec8fe@@6B@ 000000014003be78     libboost_filesystem-vc120-mt-1_63:codecvt_error_category.obj
 0002:0001bea8       ??_C@_07EJEMPOEO@codecvt?$AA@ 000000014003bea8     libboost_filesystem-vc120-mt-1_63:codecvt_error_category.obj
 0002:0001beb0       ??_C@_02MFDMBIJM@ok?$AA@   000000014003beb0     libboost_filesystem-vc120-mt-1_63:codecvt_error_category.obj
 0002:0001beb8       ??_C@_07JHIHCBKH@partial?$AA@ 000000014003beb8     libboost_filesystem-vc120-mt-1_63:codecvt_error_category.obj
 0002:0001bec0       ??_C@_05KKCIMGE@error?$AA@ 000000014003bec0     libboost_filesystem-vc120-mt-1_63:codecvt_error_category.obj
 0002:0001bec8       ??_C@_06MGEDHICE@noconv?$AA@ 000000014003bec8     libboost_filesystem-vc120-mt-1_63:codecvt_error_category.obj
 0002:0001bed8       ??_7type_info@@6B@         000000014003bed8     MSVCRT:ti_inst.obj
 0002:0001bef0       _load_config_used          000000014003bef0     MSVCRT:loadcfg.obj
 0002:0001bff0       ??_R1A@?0A@EA@exception@std@@8 000000014003bff0     main.obj
 0002:0001c018       ??_R3exception@std@@8      000000014003c018     main.obj
 0002:0001c030       ??_R2exception@std@@8      000000014003c030     main.obj
 0002:0001c040       ??_R4?$basic_stringbuf@DU?$char_traits@D@std@@V?$allocator@D@2@@std@@6B@ 000000014003c040     main.obj
 0002:0001c068       ??_R3?$basic_stringbuf@DU?$char_traits@D@std@@V?$allocator@D@2@@std@@8 000000014003c068     main.obj
 0002:0001c080       ??_R2?$basic_stringbuf@DU?$char_traits@D@std@@V?$allocator@D@2@@std@@8 000000014003c080     main.obj
 0002:0001c098       ??_R1A@?0A@EA@?$basic_stringbuf@DU?$char_traits@D@std@@V?$allocator@D@2@@std@@8 000000014003c098     main.obj
 0002:0001c0c0       ??_R1A@?0A@EA@?$basic_streambuf@DU?$char_traits@D@std@@@std@@8 000000014003c0c0     main.obj
 0002:0001c0e8       ??_R3?$basic_streambuf@DU?$char_traits@D@std@@@std@@8 000000014003c0e8     main.obj
 0002:0001c100       ??_R2?$basic_streambuf@DU?$char_traits@D@std@@@std@@8 000000014003c100     main.obj
 0002:0001c110       ??_R4?$basic_ostringstream@DU?$char_traits@D@std@@V?$allocator@D@2@@std@@6B@ 000000014003c110     main.obj
 0002:0001c138       ??_R3?$basic_ostringstream@DU?$char_traits@D@std@@V?$allocator@D@2@@std@@8 000000014003c138     main.obj
 0002:0001c150       ??_R2?$basic_ostringstream@DU?$char_traits@D@std@@V?$allocator@D@2@@std@@8 000000014003c150     main.obj
 0002:0001c180       ??_R1A@?0A@EA@?$basic_ostringstream@DU?$char_traits@D@std@@V?$allocator@D@2@@std@@8 000000014003c180     main.obj
 0002:0001c1a8       ??_R1A@?0A@EA@?$basic_ostream@DU?$char_traits@D@std@@@std@@8 000000014003c1a8     main.obj
 0002:0001c1d0       ??_R3?$basic_ostream@DU?$char_traits@D@std@@@std@@8 000000014003c1d0     main.obj
 0002:0001c1e8       ??_R2?$basic_ostream@DU?$char_traits@D@std@@@std@@8 000000014003c1e8     main.obj
 0002:0001c210       ??_R1A@A@3FA@?$basic_ios@DU?$char_traits@D@std@@@std@@8 000000014003c210     main.obj
 0002:0001c238       ??_R3?$basic_ios@DU?$char_traits@D@std@@@std@@8 000000014003c238     main.obj
 0002:0001c250       ??_R2?$basic_ios@DU?$char_traits@D@std@@@std@@8 000000014003c250     main.obj
 0002:0001c270       ??_R1A@?0A@EA@?$basic_ios@DU?$char_traits@D@std@@@std@@8 000000014003c270     main.obj
 0002:0001c298       ??_R1A@?0A@EA@ios_base@std@@8 000000014003c298     main.obj
 0002:0001c2c0       ??_R3ios_base@std@@8       000000014003c2c0     main.obj
 0002:0001c2d8       ??_R2ios_base@std@@8       000000014003c2d8     main.obj
 0002:0001c2f0       ??_R17?0A@EA@?$_Iosb@H@std@@8 000000014003c2f0     main.obj
 0002:0001c318       ??_R3?$_Iosb@H@std@@8      000000014003c318     main.obj
 0002:0001c330       ??_R2?$_Iosb@H@std@@8      000000014003c330     main.obj
 0002:0001c340       ??_R1A@?0A@EA@?$_Iosb@H@std@@8 000000014003c340     main.obj
 0002:0001c368       ??_R1A@A@3EA@ios_base@std@@8 000000014003c368     main.obj
 0002:0001c390       ??_R17A@3EA@?$_Iosb@H@std@@8 000000014003c390     main.obj
 0002:0001c3b8       ??_R4runtime_error@std@@6B@ 000000014003c3b8     main.obj
 0002:0001c3e0       ??_R3runtime_error@std@@8  000000014003c3e0     main.obj
 0002:0001c3f8       ??_R2runtime_error@std@@8  000000014003c3f8     main.obj
 0002:0001c410       ??_R1A@?0A@EA@runtime_error@std@@8 000000014003c410     main.obj
 0002:0001c438       ??_R4error_category@std@@6B@ 000000014003c438     main.obj
 0002:0001c460       ??_R3error_category@std@@8 000000014003c460     main.obj
 0002:0001c478       ??_R2error_category@std@@8 000000014003c478     main.obj
 0002:0001c488       ??_R1A@?0A@EA@error_category@std@@8 000000014003c488     main.obj
 0002:0001c4b0       ??_R4_Generic_error_category@std@@6B@ 000000014003c4b0     main.obj
 0002:0001c4d8       ??_R3_Generic_error_category@std@@8 000000014003c4d8     main.obj
 0002:0001c4f0       ??_R2_Generic_error_category@std@@8 000000014003c4f0     main.obj
 0002:0001c508       ??_R1A@?0A@EA@_Generic_error_category@std@@8 000000014003c508     main.obj
 0002:0001c530       ??_R4_Iostream_error_category@std@@6B@ 000000014003c530     main.obj
 0002:0001c558       ??_R3_Iostream_error_category@std@@8 000000014003c558     main.obj
 0002:0001c570       ??_R2_Iostream_error_category@std@@8 000000014003c570     main.obj
 0002:0001c590       ??_R1A@?0A@EA@_Iostream_error_category@std@@8 000000014003c590     main.obj
 0002:0001c5b8       ??_R4_System_error_category@std@@6B@ 000000014003c5b8     main.obj
 0002:0001c5e0       ??_R3_System_error_category@std@@8 000000014003c5e0     main.obj
 0002:0001c5f8       ??_R2_System_error_category@std@@8 000000014003c5f8     main.obj
 0002:0001c618       ??_R1A@?0A@EA@_System_error_category@std@@8 000000014003c618     main.obj
 0002:0001c640       ??_R4error_category@system@boost@@6B@ 000000014003c640     main.obj
 0002:0001c668       ??_R3error_category@system@boost@@8 000000014003c668     main.obj
 0002:0001c680       ??_R2error_category@system@boost@@8 000000014003c680     main.obj
 0002:0001c698       ??_R1A@?0A@EA@error_category@system@boost@@8 000000014003c698     main.obj
 0002:0001c6c0       ??_R17?0A@EA@noncopyable@noncopyable_@boost@@8 000000014003c6c0     main.obj
 0002:0001c6e8       ??_R3noncopyable@noncopyable_@boost@@8 000000014003c6e8     main.obj
 0002:0001c700       ??_R2noncopyable@noncopyable_@boost@@8 000000014003c700     main.obj
 0002:0001c710       ??_R1A@?0A@EA@noncopyable@noncopyable_@boost@@8 000000014003c710     main.obj
 0002:0001c738       ??_R4exception@boost@@6B@  000000014003c738     main.obj
 0002:0001c760       ??_R3exception@boost@@8    000000014003c760     main.obj
 0002:0001c778       ??_R2exception@boost@@8    000000014003c778     main.obj
 0002:0001c788       ??_R1A@?0A@EA@exception@boost@@8 000000014003c788     main.obj
 0002:0001c7b0       ??_R4clone_base@exception_detail@boost@@6B@ 000000014003c7b0     main.obj
 0002:0001c7d8       ??_R3clone_base@exception_detail@boost@@8 000000014003c7d8     main.obj
 0002:0001c7f0       ??_R2clone_base@exception_detail@boost@@8 000000014003c7f0     main.obj
 0002:0001c800       ??_R1A@?0A@EA@clone_base@exception_detail@boost@@8 000000014003c800     main.obj
 0002:0001c828       ??_R4system_error@system@boost@@6B@ 000000014003c828     main.obj
 0002:0001c850       ??_R3system_error@system@boost@@8 000000014003c850     main.obj
 0002:0001c868       ??_R2system_error@system@boost@@8 000000014003c868     main.obj
 0002:0001c888       ??_R1A@?0A@EA@system_error@system@boost@@8 000000014003c888     main.obj
 0002:0001c8b0       ??_R4misc_category@detail@error@asio@boost@@6B@ 000000014003c8b0     main.obj
 0002:0001c8d8       ??_R3misc_category@detail@error@asio@boost@@8 000000014003c8d8     main.obj
 0002:0001c8f0       ??_R2misc_category@detail@error@asio@boost@@8 000000014003c8f0     main.obj
 0002:0001c910       ??_R1A@?0A@EA@misc_category@detail@error@asio@boost@@8 000000014003c910     main.obj
 0002:0001c938       ??_R4?$error_info_injector@Vsystem_error@system@boost@@@exception_detail@boost@@6Bsystem_error@system@2@@ 000000014003c938     main.obj
 0002:0001c960       ??_R3?$error_info_injector@Vsystem_error@system@boost@@@exception_detail@boost@@8 000000014003c960     main.obj
 0002:0001c978       ??_R2?$error_info_injector@Vsystem_error@system@boost@@@exception_detail@boost@@8 000000014003c978     main.obj
 0002:0001c9a8       ??_R1A@?0A@EA@?$error_info_injector@Vsystem_error@system@boost@@@exception_detail@boost@@8 000000014003c9a8     main.obj
 0002:0001c9d0       ??_R1EI@?0A@EA@exception@boost@@8 000000014003c9d0     main.obj
 0002:0001c9f8       ??_R4?$error_info_injector@Vsystem_error@system@boost@@@exception_detail@boost@@6Bexception@2@@ 000000014003c9f8     main.obj
 0002:0001ca20       ??_R4?$clone_impl@U?$error_info_injector@Vsystem_error@system@boost@@@exception_detail@boost@@@exception_detail@boost@@6Bsystem_error@system@2@@ 000000014003ca20     main.obj
 0002:0001ca48       ??_R3?$clone_impl@U?$error_info_injector@Vsystem_error@system@boost@@@exception_detail@boost@@@exception_detail@boost@@8 000000014003ca48     main.obj
 0002:0001ca60       ??_R2?$clone_impl@U?$error_info_injector@Vsystem_error@system@boost@@@exception_detail@boost@@@exception_detail@boost@@8 000000014003ca60     main.obj
 0002:0001caa0       ??_R1A@?0A@EA@?$clone_impl@U?$error_info_injector@Vsystem_error@system@boost@@@exception_detail@boost@@@exception_detail@boost@@8 000000014003caa0     main.obj
 0002:0001cac8       ??_R1A@HA@3FA@clone_base@exception_detail@boost@@8 000000014003cac8     main.obj
 0002:0001caf0       ??_R4?$clone_impl@U?$error_info_injector@Vsystem_error@system@boost@@@exception_detail@boost@@@exception_detail@boost@@6Bexception@2@@ 000000014003caf0     main.obj
 0002:0001cb18       ??_R4?$clone_impl@U?$error_info_injector@Vsystem_error@system@boost@@@exception_detail@boost@@@exception_detail@boost@@6B@ 000000014003cb18     main.obj
 0002:0001cb40       ??_R4_Ref_count_base@std@@6B@ 000000014003cb40     udp_func.obj
 0002:0001cb68       ??_R3_Ref_count_base@std@@8 000000014003cb68     udp_func.obj
 0002:0001cb80       ??_R2_Ref_count_base@std@@8 000000014003cb80     udp_func.obj
 0002:0001cb90       ??_R1A@?0A@EA@_Ref_count_base@std@@8 000000014003cb90     udp_func.obj
 0002:0001cbb8       ??_R4win_iocp_io_service@detail@asio@boost@@6B@ 000000014003cbb8     udp_func.obj
 0002:0001cbe0       ??_R3win_iocp_io_service@detail@asio@boost@@8 000000014003cbe0     udp_func.obj
 0002:0001cbf8       ??_R2win_iocp_io_service@detail@asio@boost@@8 000000014003cbf8     udp_func.obj
 0002:0001cc20       ??_R1A@?0A@EA@win_iocp_io_service@detail@asio@boost@@8 000000014003cc20     udp_func.obj
 0002:0001cc48       ??_R1A@?0A@EA@?$service_base@Vwin_iocp_io_service@detail@asio@boost@@@detail@asio@boost@@8 000000014003cc48     udp_func.obj
 0002:0001cc70       ??_R3?$service_base@Vwin_iocp_io_service@detail@asio@boost@@@detail@asio@boost@@8 000000014003cc70     udp_func.obj
 0002:0001cc88       ??_R2?$service_base@Vwin_iocp_io_service@detail@asio@boost@@@detail@asio@boost@@8 000000014003cc88     udp_func.obj
 0002:0001cca8       ??_R1A@?0A@EA@service@io_service@asio@boost@@8 000000014003cca8     udp_func.obj
 0002:0001ccd0       ??_R3service@io_service@asio@boost@@8 000000014003ccd0     udp_func.obj
 0002:0001cce8       ??_R2service@io_service@asio@boost@@8 000000014003cce8     udp_func.obj
 0002:0001cd00       ??_R17?0A@EN@noncopyable@detail@asio@boost@@8 000000014003cd00     udp_func.obj
 0002:0001cd28       ??_R3noncopyable@detail@asio@boost@@8 000000014003cd28     udp_func.obj
 0002:0001cd40       ??_R2noncopyable@detail@asio@boost@@8 000000014003cd40     udp_func.obj
 0002:0001cd50       ??_R1A@?0A@EA@noncopyable@detail@asio@boost@@8 000000014003cd50     udp_func.obj
 0002:0001cd78       ??_R4service@io_service@asio@boost@@6B@ 000000014003cd78     udp_func.obj
 0002:0001cda0       ??_R4func_base@win_thread@detail@asio@boost@@6B@ 000000014003cda0     udp_func.obj
 0002:0001cdc8       ??_R3func_base@win_thread@detail@asio@boost@@8 000000014003cdc8     udp_func.obj
 0002:0001cde0       ??_R2func_base@win_thread@detail@asio@boost@@8 000000014003cde0     udp_func.obj
 0002:0001cdf0       ??_R1A@?0A@EA@func_base@win_thread@detail@asio@boost@@8 000000014003cdf0     udp_func.obj
 0002:0001ce18       ??_R4?$datagram_socket_service@Vudp@ip@asio@boost@@@asio@boost@@6B@ 000000014003ce18     udp_func.obj
 0002:0001ce40       ??_R3?$datagram_socket_service@Vudp@ip@asio@boost@@@asio@boost@@8 000000014003ce40     udp_func.obj
 0002:0001ce58       ??_R2?$datagram_socket_service@Vudp@ip@asio@boost@@@asio@boost@@8 000000014003ce58     udp_func.obj
 0002:0001ce80       ??_R1A@?0A@EA@?$datagram_socket_service@Vudp@ip@asio@boost@@@asio@boost@@8 000000014003ce80     udp_func.obj
 0002:0001cea8       ??_R1A@?0A@EA@?$service_base@V?$datagram_socket_service@Vudp@ip@asio@boost@@@asio@boost@@@detail@asio@boost@@8 000000014003cea8     udp_func.obj
 0002:0001ced0       ??_R3?$service_base@V?$datagram_socket_service@Vudp@ip@asio@boost@@@asio@boost@@@detail@asio@boost@@8 000000014003ced0     udp_func.obj
 0002:0001cee8       ??_R2?$service_base@V?$datagram_socket_service@Vudp@ip@asio@boost@@@asio@boost@@@detail@asio@boost@@8 000000014003cee8     udp_func.obj
 0002:0001cf08       ??_R4?$resolver_service@Vudp@ip@asio@boost@@@ip@asio@boost@@6B@ 000000014003cf08     udp_func.obj
 0002:0001cf30       ??_R3?$resolver_service@Vudp@ip@asio@boost@@@ip@asio@boost@@8 000000014003cf30     udp_func.obj
 0002:0001cf48       ??_R2?$resolver_service@Vudp@ip@asio@boost@@@ip@asio@boost@@8 000000014003cf48     udp_func.obj
 0002:0001cf70       ??_R1A@?0A@EA@?$resolver_service@Vudp@ip@asio@boost@@@ip@asio@boost@@8 000000014003cf70     udp_func.obj
 0002:0001cf98       ??_R1A@?0A@EA@?$service_base@V?$resolver_service@Vudp@ip@asio@boost@@@ip@asio@boost@@@detail@asio@boost@@8 000000014003cf98     udp_func.obj
 0002:0001cfc0       ??_R3?$service_base@V?$resolver_service@Vudp@ip@asio@boost@@@ip@asio@boost@@@detail@asio@boost@@8 000000014003cfc0     udp_func.obj
 0002:0001cfd8       ??_R2?$service_base@V?$resolver_service@Vudp@ip@asio@boost@@@ip@asio@boost@@@detail@asio@boost@@8 000000014003cfd8     udp_func.obj
 0002:0001cff8       ??_R4?$func@Vwork_io_service_runner@resolver_service_base@detail@asio@boost@@@win_thread@detail@asio@boost@@6B@ 000000014003cff8     udp_func.obj
 0002:0001d020       ??_R3?$func@Vwork_io_service_runner@resolver_service_base@detail@asio@boost@@@win_thread@detail@asio@boost@@8 000000014003d020     udp_func.obj
 0002:0001d038       ??_R2?$func@Vwork_io_service_runner@resolver_service_base@detail@asio@boost@@@win_thread@detail@asio@boost@@8 000000014003d038     udp_func.obj
 0002:0001d050       ??_R1A@?0A@EA@?$func@Vwork_io_service_runner@resolver_service_base@detail@asio@boost@@@win_thread@detail@asio@boost@@8 000000014003d050     udp_func.obj
 0002:0001d078       ??_R4?$_Ref_count_del@XUnoop_deleter@socket_ops@detail@asio@boost@@@std@@6B@ 000000014003d078     udp_func.obj
 0002:0001d0a0       ??_R3?$_Ref_count_del@XUnoop_deleter@socket_ops@detail@asio@boost@@@std@@8 000000014003d0a0     udp_func.obj
 0002:0001d0b8       ??_R2?$_Ref_count_del@XUnoop_deleter@socket_ops@detail@asio@boost@@@std@@8 000000014003d0b8     udp_func.obj
 0002:0001d0d0       ??_R1A@?0A@EA@?$_Ref_count_del@XUnoop_deleter@socket_ops@detail@asio@boost@@@std@@8 000000014003d0d0     udp_func.obj
 0002:0001d0f8       ??_R4?$_Ref_count@V?$vector@V?$basic_resolver_entry@Vudp@ip@asio@boost@@@ip@asio@boost@@V?$allocator@V?$basic_resolver_entry@Vudp@ip@asio@boost@@@ip@asio@boost@@@std@@@std@@@std@@6B@ 000000014003d0f8     udp_func.obj
 0002:0001d120       ??_R3?$_Ref_count@V?$vector@V?$basic_resolver_entry@Vudp@ip@asio@boost@@@ip@asio@boost@@V?$allocator@V?$basic_resolver_entry@Vudp@ip@asio@boost@@@ip@asio@boost@@@std@@@std@@@std@@8 000000014003d120     udp_func.obj
 0002:0001d138       ??_R2?$_Ref_count@V?$vector@V?$basic_resolver_entry@Vudp@ip@asio@boost@@@ip@asio@boost@@V?$allocator@V?$basic_resolver_entry@Vudp@ip@asio@boost@@@ip@asio@boost@@@std@@@std@@@std@@8 000000014003d138     udp_func.obj
 0002:0001d150       ??_R1A@?0A@EA@?$_Ref_count@V?$vector@V?$basic_resolver_entry@Vudp@ip@asio@boost@@@ip@asio@boost@@V?$allocator@V?$basic_resolver_entry@Vudp@ip@asio@boost@@@ip@asio@boost@@@std@@@std@@@std@@8 000000014003d150     udp_func.obj
 0002:0001d178       ??_R4bad_exception@std@@6B@ 000000014003d178     processply.obj
 0002:0001d1a0       ??_R3bad_exception@std@@8  000000014003d1a0     processply.obj
 0002:0001d1b8       ??_R2bad_exception@std@@8  000000014003d1b8     processply.obj
 0002:0001d1d0       ??_R1A@?0A@EA@bad_exception@std@@8 000000014003d1d0     processply.obj
 0002:0001d1f8       ??_R4bad_alloc@std@@6B@    000000014003d1f8     processply.obj
 0002:0001d220       ??_R3bad_alloc@std@@8      000000014003d220     processply.obj
 0002:0001d238       ??_R2bad_alloc@std@@8      000000014003d238     processply.obj
 0002:0001d250       ??_R1A@?0A@EA@bad_alloc@std@@8 000000014003d250     processply.obj
 0002:0001d278       ??_R4sp_counted_base@detail@boost@@6B@ 000000014003d278     processply.obj
 0002:0001d2a0       ??_R3sp_counted_base@detail@boost@@8 000000014003d2a0     processply.obj
 0002:0001d2b8       ??_R2sp_counted_base@detail@boost@@8 000000014003d2b8     processply.obj
 0002:0001d2c8       ??_R1A@?0A@EA@sp_counted_base@detail@boost@@8 000000014003d2c8     processply.obj
 0002:0001d2f0       ??_R4bad_alloc_@exception_detail@boost@@6Bexception@2@@ 000000014003d2f0     processply.obj
 0002:0001d318       ??_R3bad_alloc_@exception_detail@boost@@8 000000014003d318     processply.obj
 0002:0001d330       ??_R2bad_alloc_@exception_detail@boost@@8 000000014003d330     processply.obj
 0002:0001d358       ??_R1A@?0A@EA@bad_alloc_@exception_detail@boost@@8 000000014003d358     processply.obj
 0002:0001d380       ??_R1CI@?0A@EA@bad_alloc@std@@8 000000014003d380     processply.obj
 0002:0001d3a8       ??_R1CI@?0A@EA@exception@std@@8 000000014003d3a8     processply.obj
 0002:0001d3d0       ??_R4bad_alloc_@exception_detail@boost@@6Bbad_alloc@std@@@ 000000014003d3d0     processply.obj
 0002:0001d3f8       ??_R4bad_exception_@exception_detail@boost@@6Bexception@2@@ 000000014003d3f8     processply.obj
 0002:0001d420       ??_R3bad_exception_@exception_detail@boost@@8 000000014003d420     processply.obj
 0002:0001d438       ??_R2bad_exception_@exception_detail@boost@@8 000000014003d438     processply.obj
 0002:0001d460       ??_R1A@?0A@EA@bad_exception_@exception_detail@boost@@8 000000014003d460     processply.obj
 0002:0001d488       ??_R1CI@?0A@EA@bad_exception@std@@8 000000014003d488     processply.obj
 0002:0001d4b0       ??_R4bad_exception_@exception_detail@boost@@6Bbad_exception@std@@@ 000000014003d4b0     processply.obj
 0002:0001d4d8       ??_R4FileReader@pcl@@6B@   000000014003d4d8     processply.obj
 0002:0001d500       ??_R3FileReader@pcl@@8     000000014003d500     processply.obj
 0002:0001d518       ??_R2FileReader@pcl@@8     000000014003d518     processply.obj
 0002:0001d528       ??_R1A@?0A@EA@FileReader@pcl@@8 000000014003d528     processply.obj
 0002:0001d550       ??_R4FileWriter@pcl@@6B@   000000014003d550     processply.obj
 0002:0001d578       ??_R3FileWriter@pcl@@8     000000014003d578     processply.obj
 0002:0001d590       ??_R2FileWriter@pcl@@8     000000014003d590     processply.obj
 0002:0001d5a0       ??_R1A@?0A@EA@FileWriter@pcl@@8 000000014003d5a0     processply.obj
 0002:0001d5c8       ??_R4PLYReader@pcl@@6B@    000000014003d5c8     processply.obj
 0002:0001d5f0       ??_R3PLYReader@pcl@@8      000000014003d5f0     processply.obj
 0002:0001d608       ??_R2PLYReader@pcl@@8      000000014003d608     processply.obj
 0002:0001d620       ??_R1A@?0A@EA@PLYReader@pcl@@8 000000014003d620     processply.obj
 0002:0001d648       ??_R4PLYWriter@pcl@@6B@    000000014003d648     processply.obj
 0002:0001d670       ??_R3PLYWriter@pcl@@8      000000014003d670     processply.obj
 0002:0001d688       ??_R2PLYWriter@pcl@@8      000000014003d688     processply.obj
 0002:0001d6a0       ??_R1A@?0A@EA@PLYWriter@pcl@@8 000000014003d6a0     processply.obj
 0002:0001d6c8       ??_R4?$PointCloud@UPointXYZRGB@pcl@@@pcl@@6B@ 000000014003d6c8     processply.obj
 0002:0001d6f0       ??_R3?$PointCloud@UPointXYZRGB@pcl@@@pcl@@8 000000014003d6f0     processply.obj
 0002:0001d708       ??_R2?$PointCloud@UPointXYZRGB@pcl@@@pcl@@8 000000014003d708     processply.obj
 0002:0001d718       ??_R1A@?0A@EA@?$PointCloud@UPointXYZRGB@pcl@@@pcl@@8 000000014003d718     processply.obj
 0002:0001d740       ??_R4?$StatisticalOutlierRemoval@UPointXYZRGB@pcl@@@pcl@@6B@ 000000014003d740     processply.obj
 0002:0001d768       ??_R3?$StatisticalOutlierRemoval@UPointXYZRGB@pcl@@@pcl@@8 000000014003d768     processply.obj
 0002:0001d780       ??_R2?$StatisticalOutlierRemoval@UPointXYZRGB@pcl@@@pcl@@8 000000014003d780     processply.obj
 0002:0001d7a8       ??_R1A@?0A@EA@?$StatisticalOutlierRemoval@UPointXYZRGB@pcl@@@pcl@@8 000000014003d7a8     processply.obj
 0002:0001d7d0       ??_R1A@?0A@EA@?$FilterIndices@UPointXYZRGB@pcl@@@pcl@@8 000000014003d7d0     processply.obj
 0002:0001d7f8       ??_R3?$FilterIndices@UPointXYZRGB@pcl@@@pcl@@8 000000014003d7f8     processply.obj
 0002:0001d810       ??_R2?$FilterIndices@UPointXYZRGB@pcl@@@pcl@@8 000000014003d810     processply.obj
 0002:0001d830       ??_R1A@?0A@EA@?$Filter@UPointXYZRGB@pcl@@@pcl@@8 000000014003d830     processply.obj
 0002:0001d858       ??_R3?$Filter@UPointXYZRGB@pcl@@@pcl@@8 000000014003d858     processply.obj
 0002:0001d870       ??_R2?$Filter@UPointXYZRGB@pcl@@@pcl@@8 000000014003d870     processply.obj
 0002:0001d888       ??_R1A@?0A@EA@?$PCLBase@UPointXYZRGB@pcl@@@pcl@@8 000000014003d888     processply.obj
 0002:0001d8b0       ??_R3?$PCLBase@UPointXYZRGB@pcl@@@pcl@@8 000000014003d8b0     processply.obj
 0002:0001d8c8       ??_R2?$PCLBase@UPointXYZRGB@pcl@@@pcl@@8 000000014003d8c8     processply.obj
 0002:0001d8d8       ??_R4?$FilterIndices@UPointXYZRGB@pcl@@@pcl@@6B@ 000000014003d8d8     processply.obj
 0002:0001d900       ??_R4?$Filter@UPointXYZRGB@pcl@@@pcl@@6B@ 000000014003d900     processply.obj
 0002:0001d928       ??_R4?$PCLBase@UPointXYZRGB@pcl@@@pcl@@6B@ 000000014003d928     processply.obj
 0002:0001d950       ??_R1A@EA@3FA@clone_base@exception_detail@boost@@8 000000014003d950     processply.obj
 0002:0001d978       ??_R4?$clone_impl@Ubad_alloc_@exception_detail@boost@@@exception_detail@boost@@6Bexception@2@@ 000000014003d978     processply.obj
 0002:0001d9a0       ??_R3?$clone_impl@Ubad_alloc_@exception_detail@boost@@@exception_detail@boost@@8 000000014003d9a0     processply.obj
 0002:0001d9b8       ??_R2?$clone_impl@Ubad_alloc_@exception_detail@boost@@@exception_detail@boost@@8 000000014003d9b8     processply.obj
 0002:0001d9f0       ??_R1A@?0A@EA@?$clone_impl@Ubad_alloc_@exception_detail@boost@@@exception_detail@boost@@8 000000014003d9f0     processply.obj
 0002:0001da18       ??_R4?$clone_impl@Ubad_alloc_@exception_detail@boost@@@exception_detail@boost@@6Bbad_alloc@std@@@ 000000014003da18     processply.obj
 0002:0001da40       ??_R4?$clone_impl@Ubad_alloc_@exception_detail@boost@@@exception_detail@boost@@6B@ 000000014003da40     processply.obj
 0002:0001da68       ??_R4?$clone_impl@Ubad_exception_@exception_detail@boost@@@exception_detail@boost@@6Bexception@2@@ 000000014003da68     processply.obj
 0002:0001da90       ??_R3?$clone_impl@Ubad_exception_@exception_detail@boost@@@exception_detail@boost@@8 000000014003da90     processply.obj
 0002:0001daa8       ??_R2?$clone_impl@Ubad_exception_@exception_detail@boost@@@exception_detail@boost@@8 000000014003daa8     processply.obj
 0002:0001dae0       ??_R1A@?0A@EA@?$clone_impl@Ubad_exception_@exception_detail@boost@@@exception_detail@boost@@8 000000014003dae0     processply.obj
 0002:0001db08       ??_R4?$clone_impl@Ubad_exception_@exception_detail@boost@@@exception_detail@boost@@6Bbad_exception@std@@@ 000000014003db08     processply.obj
 0002:0001db30       ??_R4?$clone_impl@Ubad_exception_@exception_detail@boost@@@exception_detail@boost@@6B@ 000000014003db30     processply.obj
 0002:0001db58       ??_R4?$sp_counted_impl_p@Udir_itr_imp@detail@filesystem@boost@@@detail@boost@@6B@ 000000014003db58     processply.obj
 0002:0001db80       ??_R3?$sp_counted_impl_p@Udir_itr_imp@detail@filesystem@boost@@@detail@boost@@8 000000014003db80     processply.obj
 0002:0001db98       ??_R2?$sp_counted_impl_p@Udir_itr_imp@detail@filesystem@boost@@@detail@boost@@8 000000014003db98     processply.obj
 0002:0001dbb0       ??_R1A@?0A@EA@?$sp_counted_impl_p@Udir_itr_imp@detail@filesystem@boost@@@detail@boost@@8 000000014003dbb0     processply.obj
 0002:0001dbd8       ??_R4?$sp_counted_impl_p@V?$vector@HV?$allocator@H@std@@@std@@@detail@boost@@6B@ 000000014003dbd8     processply.obj
 0002:0001dc00       ??_R3?$sp_counted_impl_p@V?$vector@HV?$allocator@H@std@@@std@@@detail@boost@@8 000000014003dc00     processply.obj
 0002:0001dc18       ??_R2?$sp_counted_impl_p@V?$vector@HV?$allocator@H@std@@@std@@@detail@boost@@8 000000014003dc18     processply.obj
 0002:0001dc30       ??_R1A@?0A@EA@?$sp_counted_impl_p@V?$vector@HV?$allocator@H@std@@@std@@@detail@boost@@8 000000014003dc30     processply.obj
 0002:0001dc58       ??_R4?$sp_counted_impl_p@V?$PointCloud@UPointXYZRGB@pcl@@@pcl@@@detail@boost@@6B@ 000000014003dc58     processply.obj
 0002:0001dc80       ??_R3?$sp_counted_impl_p@V?$PointCloud@UPointXYZRGB@pcl@@@pcl@@@detail@boost@@8 000000014003dc80     processply.obj
 0002:0001dc98       ??_R2?$sp_counted_impl_p@V?$PointCloud@UPointXYZRGB@pcl@@@pcl@@@detail@boost@@8 000000014003dc98     processply.obj
 0002:0001dcb0       ??_R1A@?0A@EA@?$sp_counted_impl_p@V?$PointCloud@UPointXYZRGB@pcl@@@pcl@@@detail@boost@@8 000000014003dcb0     processply.obj
 0002:0001dcd8       ??_R4?$sp_counted_impl_p@V?$clone_impl@Ubad_alloc_@exception_detail@boost@@@exception_detail@boost@@@detail@boost@@6B@ 000000014003dcd8     processply.obj
 0002:0001dd00       ??_R3?$sp_counted_impl_p@V?$clone_impl@Ubad_alloc_@exception_detail@boost@@@exception_detail@boost@@@detail@boost@@8 000000014003dd00     processply.obj
 0002:0001dd18       ??_R2?$sp_counted_impl_p@V?$clone_impl@Ubad_alloc_@exception_detail@boost@@@exception_detail@boost@@@detail@boost@@8 000000014003dd18     processply.obj
 0002:0001dd30       ??_R1A@?0A@EA@?$sp_counted_impl_p@V?$clone_impl@Ubad_alloc_@exception_detail@boost@@@exception_detail@boost@@@detail@boost@@8 000000014003dd30     processply.obj
 0002:0001dd58       ??_R4?$sp_counted_impl_p@V?$clone_impl@Ubad_exception_@exception_detail@boost@@@exception_detail@boost@@@detail@boost@@6B@ 000000014003dd58     processply.obj
 0002:0001dd80       ??_R3?$sp_counted_impl_p@V?$clone_impl@Ubad_exception_@exception_detail@boost@@@exception_detail@boost@@@detail@boost@@8 000000014003dd80     processply.obj
 0002:0001dd98       ??_R2?$sp_counted_impl_p@V?$clone_impl@Ubad_exception_@exception_detail@boost@@@exception_detail@boost@@@detail@boost@@8 000000014003dd98     processply.obj
 0002:0001ddb0       ??_R1A@?0A@EA@?$sp_counted_impl_p@V?$clone_impl@Ubad_exception_@exception_detail@boost@@@exception_detail@boost@@@detail@boost@@8 000000014003ddb0     processply.obj
 0002:0001ddd8       ??_R4?$sp_counted_impl_p@V?$vector@EV?$allocator@E@std@@@std@@@detail@boost@@6B@ 000000014003ddd8     festo_udp_func.obj
 0002:0001de00       ??_R3?$sp_counted_impl_p@V?$vector@EV?$allocator@E@std@@@std@@@detail@boost@@8 000000014003de00     festo_udp_func.obj
 0002:0001de18       ??_R2?$sp_counted_impl_p@V?$vector@EV?$allocator@E@std@@@std@@@detail@boost@@8 000000014003de18     festo_udp_func.obj
 0002:0001de30       ??_R1A@?0A@EA@?$sp_counted_impl_p@V?$vector@EV?$allocator@E@std@@@std@@@detail@boost@@8 000000014003de30     festo_udp_func.obj
 0002:0001de58       ??_R4QWidget@@6BQObject@@@ 000000014003de58     mainwindow.obj
 0002:0001de80       ??_R3QWidget@@8            000000014003de80     mainwindow.obj
 0002:0001de98       ??_R2QWidget@@8            000000014003de98     mainwindow.obj
 0002:0001deb8       ??_R1A@?0A@EA@QWidget@@8   000000014003deb8     mainwindow.obj
 0002:0001dee0       ??_R1A@?0A@EA@QObject@@8   000000014003dee0     mainwindow.obj
 0002:0001df08       ??_R3QObject@@8            000000014003df08     mainwindow.obj
 0002:0001df20       ??_R2QObject@@8            000000014003df20     mainwindow.obj
 0002:0001df30       ??_R1BA@?0A@EA@QPaintDevice@@8 000000014003df30     mainwindow.obj
 0002:0001df58       ??_R3QPaintDevice@@8       000000014003df58     mainwindow.obj
 0002:0001df70       ??_R2QPaintDevice@@8       000000014003df70     mainwindow.obj
 0002:0001df80       ??_R1A@?0A@EA@QPaintDevice@@8 000000014003df80     mainwindow.obj
 0002:0001dfa8       ??_R4QWidget@@6BQPaintDevice@@@ 000000014003dfa8     mainwindow.obj
 0002:0001dfd0       ??_R4QTimer@@6B@           000000014003dfd0     mainwindow.obj
 0002:0001dff8       ??_R3QTimer@@8             000000014003dff8     mainwindow.obj
 0002:0001e010       ??_R2QTimer@@8             000000014003e010     mainwindow.obj
 0002:0001e028       ??_R1A@?0A@EA@QTimer@@8    000000014003e028     mainwindow.obj
 0002:0001e050       ??_R4QVBoxLayout@@6BQObject@@@ 000000014003e050     mainwindow.obj
 0002:0001e078       ??_R3QVBoxLayout@@8        000000014003e078     mainwindow.obj
 0002:0001e090       ??_R2QVBoxLayout@@8        000000014003e090     mainwindow.obj
 0002:0001e0c0       ??_R1A@?0A@EA@QVBoxLayout@@8 000000014003e0c0     mainwindow.obj
 0002:0001e0e8       ??_R1A@?0A@EA@QBoxLayout@@8 000000014003e0e8     mainwindow.obj
 0002:0001e110       ??_R3QBoxLayout@@8         000000014003e110     mainwindow.obj
 0002:0001e128       ??_R2QBoxLayout@@8         000000014003e128     mainwindow.obj
 0002:0001e150       ??_R1A@?0A@EA@QLayout@@8   000000014003e150     mainwindow.obj
 0002:0001e178       ??_R3QLayout@@8            000000014003e178     mainwindow.obj
 0002:0001e190       ??_R2QLayout@@8            000000014003e190     mainwindow.obj
 0002:0001e1b0       ??_R1BA@?0A@EA@QLayoutItem@@8 000000014003e1b0     mainwindow.obj
 0002:0001e1d8       ??_R3QLayoutItem@@8        000000014003e1d8     mainwindow.obj
 0002:0001e1f0       ??_R2QLayoutItem@@8        000000014003e1f0     mainwindow.obj
 0002:0001e200       ??_R1A@?0A@EA@QLayoutItem@@8 000000014003e200     mainwindow.obj
 0002:0001e228       ??_R4QVBoxLayout@@6BQLayoutItem@@@ 000000014003e228     mainwindow.obj
 0002:0001e250       ??_R4QPushButton@@6BQObject@@@ 000000014003e250     mainwindow.obj
 0002:0001e278       ??_R3QPushButton@@8        000000014003e278     mainwindow.obj
 0002:0001e290       ??_R2QPushButton@@8        000000014003e290     mainwindow.obj
 0002:0001e2c0       ??_R1A@?0A@EA@QPushButton@@8 000000014003e2c0     mainwindow.obj
 0002:0001e2e8       ??_R1A@?0A@EA@QAbstractButton@@8 000000014003e2e8     mainwindow.obj
 0002:0001e310       ??_R3QAbstractButton@@8    000000014003e310     mainwindow.obj
 0002:0001e328       ??_R2QAbstractButton@@8    000000014003e328     mainwindow.obj
 0002:0001e350       ??_R4QPushButton@@6BQPaintDevice@@@ 000000014003e350     mainwindow.obj
 0002:0001e378       ??_R4QPlainTextEdit@@6BQObject@@@ 000000014003e378     mainwindow.obj
 0002:0001e3a0       ??_R3QPlainTextEdit@@8     000000014003e3a0     mainwindow.obj
 0002:0001e3b8       ??_R2QPlainTextEdit@@8     000000014003e3b8     mainwindow.obj
 0002:0001e3f0       ??_R1A@?0A@EA@QPlainTextEdit@@8 000000014003e3f0     mainwindow.obj
 0002:0001e418       ??_R1A@?0A@EA@QAbstractScrollArea@@8 000000014003e418     mainwindow.obj
 0002:0001e440       ??_R3QAbstractScrollArea@@8 000000014003e440     mainwindow.obj
 0002:0001e458       ??_R2QAbstractScrollArea@@8 000000014003e458     mainwindow.obj
 0002:0001e488       ??_R1A@?0A@EA@QFrame@@8    000000014003e488     mainwindow.obj
 0002:0001e4b0       ??_R3QFrame@@8             000000014003e4b0     mainwindow.obj
 0002:0001e4c8       ??_R2QFrame@@8             000000014003e4c8     mainwindow.obj
 0002:0001e4f0       ??_R4QPlainTextEdit@@6BQPaintDevice@@@ 000000014003e4f0     mainwindow.obj
 0002:0001e518       ??_R4MainWindow@@6BQObject@@@ 000000014003e518     mainwindow.obj
 0002:0001e540       ??_R3MainWindow@@8         000000014003e540     mainwindow.obj
 0002:0001e558       ??_R2MainWindow@@8         000000014003e558     mainwindow.obj
 0002:0001e588       ??_R1A@?0A@EA@MainWindow@@8 000000014003e588     mainwindow.obj
 0002:0001e5b0       ??_R1A@?0A@EA@QMainWindow@@8 000000014003e5b0     mainwindow.obj
 0002:0001e5d8       ??_R3QMainWindow@@8        000000014003e5d8     mainwindow.obj
 0002:0001e5f0       ??_R2QMainWindow@@8        000000014003e5f0     mainwindow.obj
 0002:0001e618       ??_R4MainWindow@@6BQPaintDevice@@@ 000000014003e618     mainwindow.obj
 0002:0001e640       ??_R4generic_error_category@?A0x268fe48c@system@boost@@6B@ 000000014003e640     libboost_system-vc120-mt-1_63:error_code.obj
 0002:0001e668       ??_R3generic_error_category@?A0x268fe48c@system@boost@@8 000000014003e668     libboost_system-vc120-mt-1_63:error_code.obj
 0002:0001e680       ??_R2generic_error_category@?A0x268fe48c@system@boost@@8 000000014003e680     libboost_system-vc120-mt-1_63:error_code.obj
 0002:0001e6a0       ??_R1A@?0A@EA@generic_error_category@?A0x268fe48c@system@boost@@8 000000014003e6a0     libboost_system-vc120-mt-1_63:error_code.obj
 0002:0001e6c8       ??_R4system_error_category@?A0x268fe48c@system@boost@@6B@ 000000014003e6c8     libboost_system-vc120-mt-1_63:error_code.obj
 0002:0001e6f0       ??_R3system_error_category@?A0x268fe48c@system@boost@@8 000000014003e6f0     libboost_system-vc120-mt-1_63:error_code.obj
 0002:0001e708       ??_R2system_error_category@?A0x268fe48c@system@boost@@8 000000014003e708     libboost_system-vc120-mt-1_63:error_code.obj
 0002:0001e728       ??_R1A@?0A@EA@system_error_category@?A0x268fe48c@system@boost@@8 000000014003e728     libboost_system-vc120-mt-1_63:error_code.obj
 0002:0001e750       ??_R1A@?0A@EA@facet@locale@std@@8 000000014003e750     libboost_filesystem-vc120-mt-1_63:path.obj
 0002:0001e778       ??_R3facet@locale@std@@8   000000014003e778     libboost_filesystem-vc120-mt-1_63:path.obj
 0002:0001e790       ??_R2facet@locale@std@@8   000000014003e790     libboost_filesystem-vc120-mt-1_63:path.obj
 0002:0001e7a8       ??_R1A@?0A@EA@_Facet_base@std@@8 000000014003e7a8     libboost_filesystem-vc120-mt-1_63:path.obj
 0002:0001e7d0       ??_R3_Facet_base@std@@8    000000014003e7d0     libboost_filesystem-vc120-mt-1_63:path.obj
 0002:0001e7e8       ??_R2_Facet_base@std@@8    000000014003e7e8     libboost_filesystem-vc120-mt-1_63:path.obj
 0002:0001e7f8       ??_R3?$codecvt@_WDH@std@@8 000000014003e7f8     libboost_filesystem-vc120-mt-1_63:path.obj
 0002:0001e810       ??_R2?$codecvt@_WDH@std@@8 000000014003e810     libboost_filesystem-vc120-mt-1_63:path.obj
 0002:0001e838       ??_R1A@?0A@EA@?$codecvt@_WDH@std@@8 000000014003e838     libboost_filesystem-vc120-mt-1_63:path.obj
 0002:0001e860       ??_R1A@?0A@EA@codecvt_base@std@@8 000000014003e860     libboost_filesystem-vc120-mt-1_63:path.obj
 0002:0001e888       ??_R3codecvt_base@std@@8   000000014003e888     libboost_filesystem-vc120-mt-1_63:path.obj
 0002:0001e8a0       ??_R2codecvt_base@std@@8   000000014003e8a0     libboost_filesystem-vc120-mt-1_63:path.obj
 0002:0001e8c0       ??_R4windows_file_codecvt@@6B@ 000000014003e8c0     libboost_filesystem-vc120-mt-1_63:path.obj
 0002:0001e8e8       ??_R3windows_file_codecvt@@8 000000014003e8e8     libboost_filesystem-vc120-mt-1_63:path.obj
 0002:0001e900       ??_R2windows_file_codecvt@@8 000000014003e900     libboost_filesystem-vc120-mt-1_63:path.obj
 0002:0001e930       ??_R1A@?0A@EA@windows_file_codecvt@@8 000000014003e930     libboost_filesystem-vc120-mt-1_63:path.obj
 0002:0001e958       ??_R4filesystem_error@filesystem@boost@@6B@ 000000014003e958     libboost_filesystem-vc120-mt-1_63:operations.obj
 0002:0001e980       ??_R3filesystem_error@filesystem@boost@@8 000000014003e980     libboost_filesystem-vc120-mt-1_63:operations.obj
 0002:0001e998       ??_R2filesystem_error@filesystem@boost@@8 000000014003e998     libboost_filesystem-vc120-mt-1_63:operations.obj
 0002:0001e9c0       ??_R1A@?0A@EA@filesystem_error@filesystem@boost@@8 000000014003e9c0     libboost_filesystem-vc120-mt-1_63:operations.obj
 0002:0001e9e8       ??_R4?$sp_counted_impl_p@Um_imp@filesystem_error@filesystem@boost@@@detail@boost@@6B@ 000000014003e9e8     libboost_filesystem-vc120-mt-1_63:operations.obj
 0002:0001ea10       ??_R3?$sp_counted_impl_p@Um_imp@filesystem_error@filesystem@boost@@@detail@boost@@8 000000014003ea10     libboost_filesystem-vc120-mt-1_63:operations.obj
 0002:0001ea28       ??_R2?$sp_counted_impl_p@Um_imp@filesystem_error@filesystem@boost@@@detail@boost@@8 000000014003ea28     libboost_filesystem-vc120-mt-1_63:operations.obj
 0002:0001ea40       ??_R1A@?0A@EA@?$sp_counted_impl_p@Um_imp@filesystem_error@filesystem@boost@@@detail@boost@@8 000000014003ea40     libboost_filesystem-vc120-mt-1_63:operations.obj
 0002:0001ea68       ??_R4codecvt_error_cat@?A0x07dec8fe@@6B@ 000000014003ea68     libboost_filesystem-vc120-mt-1_63:codecvt_error_category.obj
 0002:0001ea90       ??_R3codecvt_error_cat@?A0x07dec8fe@@8 000000014003ea90     libboost_filesystem-vc120-mt-1_63:codecvt_error_category.obj
 0002:0001eaa8       ??_R2codecvt_error_cat@?A0x07dec8fe@@8 000000014003eaa8     libboost_filesystem-vc120-mt-1_63:codecvt_error_category.obj
 0002:0001eac8       ??_R1A@?0A@EA@codecvt_error_cat@?A0x07dec8fe@@8 000000014003eac8     libboost_filesystem-vc120-mt-1_63:codecvt_error_category.obj
 0002:0001eaf0       ??_R4type_info@@6B@        000000014003eaf0     MSVCRT:ti_inst.obj
 0002:0001eb18       ??_R3type_info@@8          000000014003eb18     MSVCRT:ti_inst.obj
 0002:0001eb30       ??_R2type_info@@8          000000014003eb30     MSVCRT:ti_inst.obj
 0002:0001eb40       ??_R1A@?0A@EA@type_info@@8 000000014003eb40     MSVCRT:ti_inst.obj
 0002:0001eb68       __rtc_iaa                  000000014003eb68     MSVCRT:initsect.obj
 0002:0001eb70       __rtc_izz                  000000014003eb70     MSVCRT:initsect.obj
 0002:0001eb78       __rtc_taa                  000000014003eb78     MSVCRT:initsect.obj
 0002:0001eb80       __rtc_tzz                  000000014003eb80     MSVCRT:initsect.obj
 0002:00024f90       _CT??_R0?AVruntime_error@std@@@8??0runtime_error@std@@QEAA@AEBV01@@Z24 0000000140044f90     main.obj
 0002:00024fb8       _CT??_R0?AVexception@std@@@8??0exception@std@@QEAA@AEBV01@@Z24 0000000140044fb8     main.obj
 0002:00024fe0       _CT??_R0?AVsystem_error@system@boost@@@8??0system_error@system@boost@@QEAA@AEBV012@@Z72 0000000140044fe0     main.obj
 0002:00025008       _TI7?AV?$clone_impl@U?$error_info_injector@Vsystem_error@system@boost@@@exception_detail@boost@@@exception_detail@boost@@ 0000000140045008     main.obj
 0002:00025028       _CTA7?AV?$clone_impl@U?$error_info_injector@Vsystem_error@system@boost@@@exception_detail@boost@@@exception_detail@boost@@ 0000000140045028     main.obj
 0002:00025068       _CT??_R0?AV?$clone_impl@U?$error_info_injector@Vsystem_error@system@boost@@@exception_detail@boost@@@exception_detail@boost@@@8??0?$clone_impl@U?$error_info_injector@Vsystem_error@system@boost@@@exception_detail@boost@@@exception_detail@boost@@QEAA@AEBV012@@Z136 0000000140045068     main.obj
 0002:00025090       _CT??_R0?AU?$error_info_injector@Vsystem_error@system@boost@@@exception_detail@boost@@@8??0?$error_info_injector@Vsystem_error@system@boost@@@exception_detail@boost@@QEAA@AEBU012@@Z112 0000000140045090     main.obj
 0002:000250b8       _CT??_R0?AVexception@boost@@@8??0exception@boost@@QEAA@AEBV01@@Z4072 00000001400450b8     main.obj
 0002:000250e0       _CT??_R0?AVclone_base@exception_detail@boost@@@8??0clone_base@exception_detail@boost@@QEAA@AEBV012@@Z801124 00000001400450e0     main.obj
 0002:00025108       _TI2?AVruntime_error@std@@ 0000000140045108     udp_func.obj
 0002:00025128       _CTA2?AVruntime_error@std@@ 0000000140045128     udp_func.obj
 0002:00025140       _TI2?AVbad_alloc@std@@     0000000140045140     processply.obj
 0002:00025160       _CTA2?AVbad_alloc@std@@    0000000140045160     processply.obj
 0002:00025178       _CT??_R0?AVbad_alloc@std@@@8??0bad_alloc@std@@QEAA@AEBV01@@Z24 0000000140045178     processply.obj
 0002:000251a0       _CT??_R0?AVclone_base@exception_detail@boost@@@8??0clone_base@exception_detail@boost@@QEAA@AEBV012@@Z80644 00000001400451a0     processply.obj
 0002:000251c8       _CT??_R0?AVexception@boost@@@8??0exception@boost@@QEAA@AEBV01@@Z40 00000001400451c8     processply.obj
 0002:000251f0       _CT??_R0?AVexception@std@@@8??0exception@std@@QEAA@AEBV01@@Z2440 00000001400451f0     processply.obj
 0002:00025218       _TI6?AV?$clone_impl@Ubad_alloc_@exception_detail@boost@@@exception_detail@boost@@ 0000000140045218     processply.obj
 0002:00025238       _CTA6?AV?$clone_impl@Ubad_alloc_@exception_detail@boost@@@exception_detail@boost@@ 0000000140045238     processply.obj
 0002:00025270       _CT??_R0?AV?$clone_impl@Ubad_alloc_@exception_detail@boost@@@exception_detail@boost@@@8??0?$clone_impl@Ubad_alloc_@exception_detail@boost@@@exception_detail@boost@@QEAA@AEBV012@@Z88 0000000140045270     processply.obj
 0002:00025298       _CT??_R0?AUbad_alloc_@exception_detail@boost@@@8??0bad_alloc_@exception_detail@boost@@QEAA@AEBU012@@Z64 0000000140045298     processply.obj
 0002:000252c0       _CT??_R0?AVbad_alloc@std@@@8??0bad_alloc@std@@QEAA@AEBV01@@Z2440 00000001400452c0     processply.obj
 0002:000252e8       _TI6?AV?$clone_impl@Ubad_exception_@exception_detail@boost@@@exception_detail@boost@@ 00000001400452e8     processply.obj
 0002:00025308       _CTA6?AV?$clone_impl@Ubad_exception_@exception_detail@boost@@@exception_detail@boost@@ 0000000140045308     processply.obj
 0002:00025340       _CT??_R0?AV?$clone_impl@Ubad_exception_@exception_detail@boost@@@exception_detail@boost@@@8??0?$clone_impl@Ubad_exception_@exception_detail@boost@@@exception_detail@boost@@QEAA@AEBV012@@Z88 0000000140045340     processply.obj
 0002:00025368       _CT??_R0?AUbad_exception_@exception_detail@boost@@@8??0bad_exception_@exception_detail@boost@@QEAA@AEBU012@@Z64 0000000140045368     processply.obj
 0002:00025390       _CT??_R0?AVbad_exception@std@@@8??0bad_exception@std@@QEAA@AEBV01@@Z2440 0000000140045390     processply.obj
 0002:000253b8       _TI3?AVsystem_error@system@boost@@ 00000001400453b8     libboost_filesystem-vc120-mt-1_63:path_traits.obj
 0002:000253d8       _CTA3?AVsystem_error@system@boost@@ 00000001400453d8     libboost_filesystem-vc120-mt-1_63:path_traits.obj
 0002:000253f8       _TI2?AVbad_cast@std@@      00000001400453f8     libboost_filesystem-vc120-mt-1_63:path.obj
 0002:00025418       _CTA2?AVbad_cast@std@@     0000000140045418     libboost_filesystem-vc120-mt-1_63:path.obj
 0002:00025430       _CT??_R0?AVbad_cast@std@@@8??0bad_cast@std@@QEAA@AEBV01@@Z24 0000000140045430     libboost_filesystem-vc120-mt-1_63:path.obj
 0002:00025458       _TI4?AVfilesystem_error@filesystem@boost@@ 0000000140045458     libboost_filesystem-vc120-mt-1_63:operations.obj
 0002:00025478       _CTA4?AVfilesystem_error@filesystem@boost@@ 0000000140045478     libboost_filesystem-vc120-mt-1_63:operations.obj
 0002:000254a0       _CT??_R0?AVfilesystem_error@filesystem@boost@@@8??0filesystem_error@filesystem@boost@@QEAA@AEBV012@@Z88 00000001400454a0     libboost_filesystem-vc120-mt-1_63:operations.obj
 0002:000254c4       __IMPORT_DESCRIPTOR_pcl_common_release 00000001400454c4     pcl_common_release:pcl_common_release.dll
 0002:000254d8       __IMPORT_DESCRIPTOR_pcl_filters_release 00000001400454d8     pcl_filters_release:pcl_filters_release.dll
 0002:000254ec       __IMPORT_DESCRIPTOR_pcl_io_release 00000001400454ec     pcl_io_release:pcl_io_release.dll
 0002:00025500       __IMPORT_DESCRIPTOR_Qt5Widgets 0000000140045500     Qt5Widgets:Qt5Widgets.dll
 0002:00025514       __IMPORT_DESCRIPTOR_Qt5Core 0000000140045514     Qt5Core:Qt5Core.dll
 0002:00025528       __IMPORT_DESCRIPTOR_MSVCP120 0000000140045528     msvcprt:MSVCP120.dll
 0002:0002553c       __IMPORT_DESCRIPTOR_WS2_32 000000014004553c     ws2_32:WS2_32.dll
 0002:00025550       __IMPORT_DESCRIPTOR_MSVCR120 0000000140045550     MSVCRT:MSVCR120.dll
 0002:00025564       __IMPORT_DESCRIPTOR_ADVAPI32 0000000140045564     Advapi32:ADVAPI32.dll
 0002:00025578       __IMPORT_DESCRIPTOR_KERNEL32 0000000140045578     kernel32:KERNEL32.dll
 0002:0002558c       __NULL_IMPORT_DESCRIPTOR   000000014004558c     pcl_common_release:pcl_common_release.dll
 0003:00000000       ?_Generic_object@?$_Error_objects@H@std@@2V_Generic_error_category@2@A 000000014004b000     main.obj
 0003:00000008       ?_Iostream_object@?$_Error_objects@H@std@@2V_Iostream_error_category@2@A 000000014004b008     main.obj
 0003:00000010       ?_System_object@?$_Error_objects@H@std@@2V_System_error_category@2@A 000000014004b010     main.obj
 0003:00000018       ?error@?A0x3b5a753b@placeholders@asio@boost@@3AEAU?$arg@$00@4@EA 000000014004b018     main.obj
 0003:00000020       ?bytes_transferred@?A0x3b5a753b@placeholders@asio@boost@@3AEAU?$arg@$01@4@EA 000000014004b020     main.obj
 0003:00000028       ?iterator@?A0x3b5a753b@placeholders@asio@boost@@3AEAU?$arg@$01@4@EA 000000014004b028     main.obj
 0003:00000030       ?signal_number@?A0x3b5a753b@placeholders@asio@boost@@3AEAU?$arg@$01@4@EA 000000014004b030     main.obj
 0003:00000038       ?error@?A0x3f3fc891@placeholders@asio@boost@@3AEAU?$arg@$00@4@EA 000000014004b038     udp_func.obj
 0003:00000040       ?bytes_transferred@?A0x3f3fc891@placeholders@asio@boost@@3AEAU?$arg@$01@4@EA 000000014004b040     udp_func.obj
 0003:00000048       ?iterator@?A0x3f3fc891@placeholders@asio@boost@@3AEAU?$arg@$01@4@EA 000000014004b048     udp_func.obj
 0003:00000050       ?signal_number@?A0x3f3fc891@placeholders@asio@boost@@3AEAU?$arg@$01@4@EA 000000014004b050     udp_func.obj
 0003:00000058       ?error@?A0xd89daa84@placeholders@asio@boost@@3AEAU?$arg@$00@4@EA 000000014004b058     processcontrol.obj
 0003:00000060       ?bytes_transferred@?A0xd89daa84@placeholders@asio@boost@@3AEAU?$arg@$01@4@EA 000000014004b060     processcontrol.obj
 0003:00000068       ?iterator@?A0xd89daa84@placeholders@asio@boost@@3AEAU?$arg@$01@4@EA 000000014004b068     processcontrol.obj
 0003:00000070       ?signal_number@?A0xd89daa84@placeholders@asio@boost@@3AEAU?$arg@$01@4@EA 000000014004b070     processcontrol.obj
 0003:00000078       ?error@?A0xe6bc5bfa@placeholders@asio@boost@@3AEAU?$arg@$00@4@EA 000000014004b078     festo_udp_func.obj
 0003:00000080       ?bytes_transferred@?A0xe6bc5bfa@placeholders@asio@boost@@3AEAU?$arg@$01@4@EA 000000014004b080     festo_udp_func.obj
 0003:00000088       ?iterator@?A0xe6bc5bfa@placeholders@asio@boost@@3AEAU?$arg@$01@4@EA 000000014004b088     festo_udp_func.obj
 0003:00000090       ?signal_number@?A0xe6bc5bfa@placeholders@asio@boost@@3AEAU?$arg@$01@4@EA 000000014004b090     festo_udp_func.obj
 0003:00000098       ?staticMetaObject@MainWindow@@2UQMetaObject@@B 000000014004b098     moc_mainwindow.obj
 0003:000000c8       ?separator_string@?A0x2a37e08c@@3PEB_WEB 000000014004b0c8     libboost_filesystem-vc120-mt-1_63:path.obj
 0003:000000d0       ?preferred_separator_string@?A0x2a37e08c@@3PEB_WEB 000000014004b0d0     libboost_filesystem-vc120-mt-1_63:path.obj
 0003:000000e0       __security_cookie          000000014004b0e0     MSVCRT:gs_cookie.obj
 0003:000000e8       __security_cookie_complement 000000014004b0e8     MSVCRT:gs_cookie.obj
 0003:000000f0       _fltused                   000000014004b0f0     MSVCRT:dllsupp.obj
 0003:00000100       __defaultmatherr           000000014004b100     MSVCRT:merr.obj
 0003:00000104       __globallocalestatus       000000014004b104     MSVCRT:xthdloc.obj
 0003:00000108       __native_dllmain_reason    000000014004b108     MSVCRT:natstart.obj
 0003:00000110       ??_R0?AVruntime_error@std@@@8 000000014004b110     main.obj
 0003:00000138       ??_R0?AVexception@std@@@8  000000014004b138     main.obj
 0003:00000160       ??_R0?AVsystem_error@system@boost@@@8 000000014004b160     main.obj
 0003:00000190       ??_R0?AV?$clone_impl@U?$error_info_injector@Vsystem_error@system@boost@@@exception_detail@boost@@@exception_detail@boost@@@8 000000014004b190     main.obj
 0003:00000220       ??_R0?AU?$error_info_injector@Vsystem_error@system@boost@@@exception_detail@boost@@@8 000000014004b220     main.obj
 0003:00000280       ??_R0?AVexception@boost@@@8 000000014004b280     main.obj
 0003:000002a8       ??_R0?AVclone_base@exception_detail@boost@@@8 000000014004b2a8     main.obj
 0003:000002e0       ??_R0?AV?$basic_stringbuf@DU?$char_traits@D@std@@V?$allocator@D@2@@std@@@8 000000014004b2e0     main.obj
 0003:00000340       ??_R0?AV?$basic_streambuf@DU?$char_traits@D@std@@@std@@@8 000000014004b340     main.obj
 0003:00000390       ??_R0?AV?$basic_ostringstream@DU?$char_traits@D@std@@V?$allocator@D@2@@std@@@8 000000014004b390     main.obj
 0003:000003f0       ??_R0?AV?$basic_ostream@DU?$char_traits@D@std@@@std@@@8 000000014004b3f0     main.obj
 0003:00000438       ??_R0?AV?$basic_ios@DU?$char_traits@D@std@@@std@@@8 000000014004b438     main.obj
 0003:00000478       ??_R0?AVios_base@std@@@8   000000014004b478     main.obj
 0003:000004a0       ??_R0?AV?$_Iosb@H@std@@@8  000000014004b4a0     main.obj
 0003:000004c8       ??_R0?AVerror_category@std@@@8 000000014004b4c8     main.obj
 0003:000004f8       ??_R0?AV_Generic_error_category@std@@@8 000000014004b4f8     main.obj
 0003:00000530       ??_R0?AV_Iostream_error_category@std@@@8 000000014004b530     main.obj
 0003:00000568       ??_R0?AV_System_error_category@std@@@8 000000014004b568     main.obj
 0003:000005a0       ??_R0?AVerror_category@system@boost@@@8 000000014004b5a0     main.obj
 0003:000005d8       ??_R0?AVnoncopyable@noncopyable_@boost@@@8 000000014004b5d8     main.obj
 0003:00000610       ??_R0?AVmisc_category@detail@error@asio@boost@@@8 000000014004b610     main.obj
 0003:00000650       ??_R0?AV?$typeid_wrapper@Vwin_iocp_io_service@detail@asio@boost@@@detail@asio@boost@@@8 000000014004b650     udp_func.obj
 0003:000006c0       ??_R0?AV?$typeid_wrapper@V?$resolver_service@Vudp@ip@asio@boost@@@ip@asio@boost@@@detail@asio@boost@@@8 000000014004b6c0     udp_func.obj
 0003:00000740       ??_R0?AV?$typeid_wrapper@V?$datagram_socket_service@Vudp@ip@asio@boost@@@asio@boost@@@detail@asio@boost@@@8 000000014004b740     udp_func.obj
 0003:000007c0       ??_R0?AUnoop_deleter@socket_ops@detail@asio@boost@@@8 000000014004b7c0     udp_func.obj
 0003:00000800       ??_R0?AV_Ref_count_base@std@@@8 000000014004b800     udp_func.obj
 0003:00000830       ??_R0?AVwin_iocp_io_service@detail@asio@boost@@@8 000000014004b830     udp_func.obj
 0003:00000870       ??_R0?AV?$service_base@Vwin_iocp_io_service@detail@asio@boost@@@detail@asio@boost@@@8 000000014004b870     udp_func.obj
 0003:000008d0       ??_R0?AVservice@io_service@asio@boost@@@8 000000014004b8d0     udp_func.obj
 0003:00000908       ??_R0?AVnoncopyable@detail@asio@boost@@@8 000000014004b908     udp_func.obj
 0003:00000940       ??_R0?AVfunc_base@win_thread@detail@asio@boost@@@8 000000014004b940     udp_func.obj
 0003:00000980       ??_R0?AV?$datagram_socket_service@Vudp@ip@asio@boost@@@asio@boost@@@8 000000014004b980     udp_func.obj
 0003:000009d0       ??_R0?AV?$service_base@V?$datagram_socket_service@Vudp@ip@asio@boost@@@asio@boost@@@detail@asio@boost@@@8 000000014004b9d0     udp_func.obj
 0003:00000a50       ??_R0?AV?$resolver_service@Vudp@ip@asio@boost@@@ip@asio@boost@@@8 000000014004ba50     udp_func.obj
 0003:00000aa0       ??_R0?AV?$service_base@V?$resolver_service@Vudp@ip@asio@boost@@@ip@asio@boost@@@detail@asio@boost@@@8 000000014004baa0     udp_func.obj
 0003:00000b10       ??_R0?AV?$func@Vwork_io_service_runner@resolver_service_base@detail@asio@boost@@@win_thread@detail@asio@boost@@@8 000000014004bb10     udp_func.obj
 0003:00000b90       ??_R0?AV?$_Ref_count_del@XUnoop_deleter@socket_ops@detail@asio@boost@@@std@@@8 000000014004bb90     udp_func.obj
 0003:00000bf0       ??_R0?AV?$_Ref_count@V?$vector@V?$basic_resolver_entry@Vudp@ip@asio@boost@@@ip@asio@boost@@V?$allocator@V?$basic_resolver_entry@Vudp@ip@asio@boost@@@ip@asio@boost@@@std@@@std@@@std@@@8 000000014004bbf0     udp_func.obj
 0003:00000cb8       ??_R0?AVbad_alloc@std@@@8  000000014004bcb8     processply.obj
 0003:00000ce0       ??_R0?AVbad_exception@std@@@8 000000014004bce0     processply.obj
 0003:00000d08       ??_R0?AUPointXYZRGB@pcl@@@8 000000014004bd08     processply.obj
 0003:00000d30       ??_R0?AV?$clone_impl@Ubad_alloc_@exception_detail@boost@@@exception_detail@boost@@@8 000000014004bd30     processply.obj
 0003:00000d90       ??_R0?AUbad_alloc_@exception_detail@boost@@@8 000000014004bd90     processply.obj
 0003:00000dd0       ??_R0?AV?$clone_impl@Ubad_exception_@exception_detail@boost@@@exception_detail@boost@@@8 000000014004bdd0     processply.obj
 0003:00000e38       ??_R0?AUbad_exception_@exception_detail@boost@@@8 000000014004be38     processply.obj
 0003:00000e78       ??_R0?AVsp_counted_base@detail@boost@@@8 000000014004be78     processply.obj
 0003:00000eb0       ??_R0?AVFileReader@pcl@@@8 000000014004beb0     processply.obj
 0003:00000ed8       ??_R0?AVFileWriter@pcl@@@8 000000014004bed8     processply.obj
 0003:00000f00       ??_R0?AVPLYReader@pcl@@@8  000000014004bf00     processply.obj
 0003:00000f28       ??_R0?AVPLYWriter@pcl@@@8  000000014004bf28     processply.obj
 0003:00000f50       ??_R0?AV?$PointCloud@UPointXYZRGB@pcl@@@pcl@@@8 000000014004bf50     processply.obj
 0003:00000f90       ??_R0?AV?$StatisticalOutlierRemoval@UPointXYZRGB@pcl@@@pcl@@@8 000000014004bf90     processply.obj
 0003:00000fe0       ??_R0?AV?$FilterIndices@UPointXYZRGB@pcl@@@pcl@@@8 000000014004bfe0     processply.obj
 0003:00001020       ??_R0?AV?$Filter@UPointXYZRGB@pcl@@@pcl@@@8 000000014004c020     processply.obj
 0003:00001058       ??_R0?AV?$PCLBase@UPointXYZRGB@pcl@@@pcl@@@8 000000014004c058     processply.obj
 0003:00001090       ??_R0?AV?$sp_counted_impl_p@Udir_itr_imp@detail@filesystem@boost@@@detail@boost@@@8 000000014004c090     processply.obj
 0003:000010f0       ??_R0?AV?$sp_counted_impl_p@V?$vector@HV?$allocator@H@std@@@std@@@detail@boost@@@8 000000014004c0f0     processply.obj
 0003:00001150       ??_R0?AV?$sp_counted_impl_p@V?$PointCloud@UPointXYZRGB@pcl@@@pcl@@@detail@boost@@@8 000000014004c150     processply.obj
 0003:000011b0       ??_R0?AV?$sp_counted_impl_p@V?$clone_impl@Ubad_alloc_@exception_detail@boost@@@exception_detail@boost@@@detail@boost@@@8 000000014004c1b0     processply.obj
 0003:00001240       ??_R0?AV?$sp_counted_impl_p@V?$clone_impl@Ubad_exception_@exception_detail@boost@@@exception_detail@boost@@@detail@boost@@@8 000000014004c240     processply.obj
 0003:000012d0       ??_R0?AV?$sp_counted_impl_p@V?$vector@EV?$allocator@E@std@@@std@@@detail@boost@@@8 000000014004c2d0     festo_udp_func.obj
 0003:00001330       ??_R0?AVQWidget@@@8        000000014004c330     mainwindow.obj
 0003:00001350       ??_R0?AVQObject@@@8        000000014004c350     mainwindow.obj
 0003:00001370       ??_R0?AVQPaintDevice@@@8   000000014004c370     mainwindow.obj
 0003:00001398       ??_R0?AVQTimer@@@8         000000014004c398     mainwindow.obj
 0003:000013b8       ??_R0?AVQVBoxLayout@@@8    000000014004c3b8     mainwindow.obj
 0003:000013e0       ??_R0?AVQBoxLayout@@@8     000000014004c3e0     mainwindow.obj
 0003:00001408       ??_R0?AVQLayout@@@8        000000014004c408     mainwindow.obj
 0003:00001428       ??_R0?AVQLayoutItem@@@8    000000014004c428     mainwindow.obj
 0003:00001450       ??_R0?AVQPushButton@@@8    000000014004c450     mainwindow.obj
 0003:00001478       ??_R0?AVQAbstractButton@@@8 000000014004c478     mainwindow.obj
 0003:000014a0       ??_R0?AVQPlainTextEdit@@@8 000000014004c4a0     mainwindow.obj
 0003:000014c8       ??_R0?AVQAbstractScrollArea@@@8 000000014004c4c8     mainwindow.obj
 0003:000014f8       ??_R0?AVQFrame@@@8         000000014004c4f8     mainwindow.obj
 0003:00001518       ??_R0?AVMainWindow@@@8     000000014004c518     mainwindow.obj
 0003:00001540       ??_R0?AVQMainWindow@@@8    000000014004c540     mainwindow.obj
 0003:00001570       ??_R0?AVgeneric_error_category@?A0x268fe48c@system@boost@@@8 000000014004c570     libboost_system-vc120-mt-1_63:error_code.obj
 0003:000015c0       ??_R0?AVsystem_error_category@?A0x268fe48c@system@boost@@@8 000000014004c5c0     libboost_system-vc120-mt-1_63:error_code.obj
 0003:00001608       ??_R0?AVbad_cast@std@@@8   000000014004c608     libboost_filesystem-vc120-mt-1_63:path.obj
 0003:00001630       ??_R0?AVfacet@locale@std@@@8 000000014004c630     libboost_filesystem-vc120-mt-1_63:path.obj
 0003:00001658       ??_R0?AV_Facet_base@std@@@8 000000014004c658     libboost_filesystem-vc120-mt-1_63:path.obj
 0003:00001680       ??_R0?AV?$codecvt@_WDH@std@@@8 000000014004c680     libboost_filesystem-vc120-mt-1_63:path.obj
 0003:000016b0       ??_R0?AVcodecvt_base@std@@@8 000000014004c6b0     libboost_filesystem-vc120-mt-1_63:path.obj
 0003:000016d8       ??_R0?AVwindows_file_codecvt@@@8 000000014004c6d8     libboost_filesystem-vc120-mt-1_63:path.obj
 0003:00001708       ??_R0?AVfilesystem_error@filesystem@boost@@@8 000000014004c708     libboost_filesystem-vc120-mt-1_63:operations.obj
 0003:00001740       ??_R0?AV?$sp_counted_impl_p@Um_imp@filesystem_error@filesystem@boost@@@detail@boost@@@8 000000014004c740     libboost_filesystem-vc120-mt-1_63:operations.obj
 0003:000017a8       ??_R0?AVcodecvt_error_cat@?A0x07dec8fe@@@8 000000014004c7a8     libboost_filesystem-vc120-mt-1_63:codecvt_error_category.obj
 0003:000017e0       ??_R0?AVtype_info@@@8      000000014004c7e0     MSVCRT:ti_inst.obj
 0003:00001848       ?id@?$num_put@DV?$back_insert_iterator@V?$basic_string@DU?$char_traits@D@std@@V?$allocator@D@2@@std@@@std@@@std@@2V0locale@2@A 000000014004c848     main.obj
 0003:00001850       ?id@?$num_put@_WV?$back_insert_iterator@V?$basic_string@_WU?$char_traits@_W@std@@V?$allocator@_W@2@@std@@@std@@@std@@2V0locale@2@A 000000014004c850     main.obj
 0003:00001858       ?instance@?1??get_misc_category@error@asio@boost@@YAAEBVerror_category@system@4@XZ@4Vmisc_category@detail@234@A 000000014004c858     main.obj
 0003:00001860       ??_B?1??get_misc_category@error@asio@boost@@YAAEBVerror_category@system@3@XZ@51 000000014004c860     main.obj
 0003:00001864       ?top_@?$call_stack@Vwin_iocp_io_service@detail@asio@boost@@Uwin_iocp_thread_info@234@@detail@asio@boost@@0V?$tss_ptr@Vcontext@?$call_stack@Vwin_iocp_io_service@detail@asio@boost@@Uwin_iocp_thread_info@234@@detail@asio@boost@@@234@A 000000014004c864     main.obj
 0003:00001868       ?data_@?$winsock_init@$01$0A@@detail@asio@boost@@0Udata@winsock_init_base@234@A 000000014004c868     main.obj
 0003:00001870       ?id@?$service_base@Vwin_iocp_io_service@detail@asio@boost@@@detail@asio@boost@@2V?$service_id@Vwin_iocp_io_service@detail@asio@boost@@@234@A 000000014004c870     main.obj
 0003:00001871       ?id@?$service_base@Vselect_reactor@detail@asio@boost@@@detail@asio@boost@@2V?$service_id@Vselect_reactor@detail@asio@boost@@@234@A 000000014004c871     main.obj
 0003:00001872       ?id@?$service_base@Vstrand_service@detail@asio@boost@@@detail@asio@boost@@2V?$service_id@Vstrand_service@detail@asio@boost@@@234@A 000000014004c872     main.obj
 0003:00001874       ?top_@?$call_stack@Vstrand_impl@strand_service@detail@asio@boost@@E@detail@asio@boost@@0V?$tss_ptr@Vcontext@?$call_stack@Vstrand_impl@strand_service@detail@asio@boost@@E@detail@asio@boost@@@234@A 000000014004c874     main.obj
 0003:00001878       ?result@?1??get@?$placeholder@$00@detail@placeholders@asio@boost@@SAAEAU?$arg@$00@6@XZ@4U76@A 000000014004c878     main.obj
 0003:0000187c       ??_B?1??get@?$placeholder@$00@detail@placeholders@asio@boost@@SAAEAU?$arg@$00@5@XZ@51 000000014004c87c     main.obj
 0003:00001880       ?result@?1??get@?$placeholder@$01@detail@placeholders@asio@boost@@SAAEAU?$arg@$01@6@XZ@4U76@A 000000014004c880     main.obj
 0003:00001884       ??_B?1??get@?$placeholder@$01@detail@placeholders@asio@boost@@SAAEAU?$arg@$01@5@XZ@51 000000014004c884     main.obj
 0003:000018d0       ?terminate_threads_@?$win_thread_base@Vwin_thread@detail@asio@boost@@@detail@asio@boost@@0JA 000000014004c8d0     udp_func.obj
 0003:000018d4       ?id@?$service_base@V?$resolver_service@Vudp@ip@asio@boost@@@ip@asio@boost@@@detail@asio@boost@@2V?$service_id@V?$resolver_service@Vudp@ip@asio@boost@@@ip@asio@boost@@@234@A 000000014004c8d4     udp_func.obj
 0003:000018d5       ?id@?$service_base@V?$datagram_socket_service@Vudp@ip@asio@boost@@@asio@boost@@@detail@asio@boost@@2V?$service_id@V?$datagram_socket_service@Vudp@ip@asio@boost@@@asio@boost@@@234@A 000000014004c8d5     udp_func.obj
 0003:00001908       ?e@?$exception_ptr_static_exception_object@Ubad_alloc_@exception_detail@boost@@@exception_detail@boost@@2Vexception_ptr@3@B 000000014004c908     processply.obj
 0003:00001918       ?e@?$exception_ptr_static_exception_object@Ubad_exception_@exception_detail@boost@@@exception_detail@boost@@2Vexception_ptr@3@B 000000014004c918     processply.obj
 0003:00001930       ?unrestricted@?$unrestricted_permissions_holder@$0A@@ipcdetail@interprocess@boost@@2Vinterprocess_all_access_security@winapi@34@A 000000014004c930     processply.obj
 0003:00001978       ?num_cores@?$num_core_holder@$0A@@ipcdetail@interprocess@boost@@0IA 000000014004c978     processply.obj
 0003:00001980       ?ep@?1???$get_static_exception_object@Ubad_alloc_@exception_detail@boost@@@exception_detail@boost@@YA?AVexception_ptr@2@XZ@4V32@A 000000014004c980     processply.obj
 0003:00001990       ??_B?1???$get_static_exception_object@Ubad_alloc_@exception_detail@boost@@@exception_detail@boost@@YA?AVexception_ptr@1@XZ@51 000000014004c990     processply.obj
 0003:00001998       ?ep@?1???$get_static_exception_object@Ubad_exception_@exception_detail@boost@@@exception_detail@boost@@YA?AVexception_ptr@2@XZ@4V32@A 000000014004c998     processply.obj
 0003:000019a8       ??_B?1???$get_static_exception_object@Ubad_exception_@exception_detail@boost@@@exception_detail@boost@@YA?AVexception_ptr@1@XZ@51 000000014004c9a8     processply.obj
 0003:00001a10       ?sCounter@udp@@3V?$map@GGU?$less@G@std@@V?$allocator@U?$pair@$$CBGG@std@@@2@@std@@A 000000014004ca10     festo_udp_func.obj
 0003:00001a80       ?dummy@?A0xcb715916@@3Uinitializer@1@A 000000014004ca80     qrc_application.obj
 0003:00001ab8       ?throws@system@boost@@3Verror_code@12@A 000000014004cab8     libboost_system-vc120-mt-1_63:error_code.obj
 0003:00001b88       ?_Psave@?$_Facetptr@V?$codecvt@_WDH@std@@@std@@2PEBVfacet@locale@2@EB 000000014004cb88     libboost_filesystem-vc120-mt-1_63:path.obj
 0003:00001bb8       ?create_hard_link_api@?A0x22c0dbb4@@3P6AHPEB_W0PEAU_SECURITY_ATTRIBUTES@@@ZEA 000000014004cbb8     libboost_filesystem-vc120-mt-1_63:operations.obj
 0003:00001bc0       ?end_dir_itr@?A0x22c0dbb4@@3Vdirectory_iterator@filesystem@boost@@A 000000014004cbc0     libboost_filesystem-vc120-mt-1_63:operations.obj
 0003:00001bd0       ?create_symbolic_link_api@?A0x22c0dbb4@@3P6AEPEB_W0K@ZEA 000000014004cbd0     libboost_filesystem-vc120-mt-1_63:operations.obj
 0003:00002194       _commode                   000000014004d194     MSVCRT:xncommod.obj
 0003:00002198       _dowildcard                000000014004d198     MSVCRT:wildcard.obj
 0003:0000219c       _newmode                   000000014004d19c     MSVCRT:_newmode.obj
 0003:000021a0       _fmode                     000000014004d1a0     MSVCRT:xtxtmode.obj
 0003:000021b8       __native_startup_lock      000000014004d1b8     <common>
 0003:000021c0       __native_startup_state     000000014004d1c0     <common>
 0003:000021c8       __dyn_tls_init_callback    000000014004d1c8     <common>
 0003:000021d0       __onexitend                000000014004d1d0     <common>
 0003:000021d8       __onexitbegin              000000014004d1d8     <common>

 entry point at        0001:0001b6a0

 Static symbols

 0000:fffa7000       .debug$S                   0000000140000000     Qt5Widgets:Qt5Widgets.dll
 0000:fffa7000       .debug$S                   0000000140000000     kernel32:KERNEL32.dll
 0000:fffa7000       .debug$S                   0000000140000000     kernel32:KERNEL32.dll
 0000:fffa7000       .debug$S                   0000000140000000     kernel32:KERNEL32.dll
 0000:fffa7000       .debug$S                   0000000140000000     Qt5Widgets:Qt5Widgets.dll
 0000:fffa7000       .debug$S                   0000000140000000     Qt5Widgets:Qt5Widgets.dll
 0000:fffa7000       .debug$S                   0000000140000000     Qt5Widgets:Qt5Widgets.dll
 0000:fffa7000       .debug$S                   0000000140000000     Qt5Widgets:Qt5Widgets.dll
 0000:fffa7000       .debug$S                   0000000140000000     Qt5Widgets:Qt5Widgets.dll
 0000:fffa7000       .debug$S                   0000000140000000     Qt5Widgets:Qt5Widgets.dll
 0000:fffa7000       .debug$S                   0000000140000000     Qt5Widgets:Qt5Widgets.dll
 0000:fffa7000       .debug$S                   0000000140000000     kernel32:KERNEL32.dll
 0000:fffa7000       .debug$S                   0000000140000000     Qt5Widgets:Qt5Widgets.dll
 0000:fffa7000       .debug$S                   0000000140000000     kernel32:KERNEL32.dll
 0000:fffa7000       .debug$S                   0000000140000000     Qt5Widgets:Qt5Widgets.dll
 0000:fffa7000       .debug$S                   0000000140000000     kernel32:KERNEL32.dll
 0000:fffa7000       .debug$S                   0000000140000000     Qt5Widgets:Qt5Widgets.dll
 0000:fffa7000       .debug$S                   0000000140000000     kernel32:KERNEL32.dll
 0000:fffa7000       .debug$S                   0000000140000000     Qt5Widgets:Qt5Widgets.dll
 0000:fffa7000       .debug$S                   0000000140000000     Qt5Widgets:Qt5Widgets.dll
 0000:fffa7000       .debug$S                   0000000140000000     msvcprt:MSVCP120.dll
 0000:fffa7000       .debug$S                   0000000140000000     Qt5Widgets:Qt5Widgets.dll
 0000:fffa7000       .debug$S                   0000000140000000     Qt5Widgets:Qt5Widgets.dll
 0000:fffa7000       .debug$S                   0000000140000000     Qt5Widgets:Qt5Widgets.dll
 0000:fffa7000       .debug$S                   0000000140000000     Qt5Widgets:Qt5Widgets.dll
 0000:fffa7000       .debug$S                   0000000140000000     Qt5Widgets:Qt5Widgets.dll
 0000:fffa7000       .debug$S                   0000000140000000     Qt5Widgets:Qt5Widgets.dll
 0000:fffa7000       .debug$S                   0000000140000000     Qt5Widgets:Qt5Widgets.dll
 0000:fffa7000       .debug$S                   0000000140000000     Qt5Widgets:Qt5Widgets.dll
 0000:fffa7000       .debug$S                   0000000140000000     Qt5Widgets:Qt5Widgets.dll
 0000:fffa7000       .debug$S                   0000000140000000     Qt5Widgets:Qt5Widgets.dll
 0000:fffa7000       .debug$S                   0000000140000000     Qt5Widgets:Qt5Widgets.dll
 0000:fffa7000       .debug$S                   0000000140000000     Qt5Widgets:Qt5Widgets.dll
 0000:fffa7000       .debug$S                   0000000140000000     Qt5Core:Qt5Core.dll
 0000:fffa7000       .debug$S                   0000000140000000     Qt5Widgets:Qt5Widgets.dll
 0000:fffa7000       .debug$S                   0000000140000000     kernel32:KERNEL32.dll
 0000:fffa7000       .debug$S                   0000000140000000     Qt5Widgets:Qt5Widgets.dll
 0000:fffa7000       .debug$S                   0000000140000000     kernel32:KERNEL32.dll
 0000:fffa7000       .debug$S                   0000000140000000     Qt5Widgets:Qt5Widgets.dll
 0000:fffa7000       .debug$S                   0000000140000000     Qt5Widgets:Qt5Widgets.dll
 0000:fffa7000       .debug$S                   0000000140000000     Qt5Widgets:Qt5Widgets.dll
 0000:fffa7000       .debug$S                   0000000140000000     Qt5Widgets:Qt5Widgets.dll
 0000:fffa7000       .debug$S                   0000000140000000     Qt5Core:Qt5Core.dll
 0000:fffa7000       .debug$S                   0000000140000000     Qt5Widgets:Qt5Widgets.dll
 0000:fffa7000       .debug$S                   0000000140000000     Qt5Widgets:Qt5Widgets.dll
 0000:fffa7000       .debug$S                   0000000140000000     Qt5Widgets:Qt5Widgets.dll
 0000:fffa7000       .debug$S                   0000000140000000     Qt5Core:Qt5Core.dll
 0000:fffa7000       .debug$S                   0000000140000000     Qt5Widgets:Qt5Widgets.dll
 0000:fffa7000       .debug$S                   0000000140000000     Qt5Core:Qt5Core.dll
 0000:fffa7000       .debug$S                   0000000140000000     Qt5Widgets:Qt5Widgets.dll
 0000:fffa7000       .debug$S                   0000000140000000     Qt5Core:Qt5Core.dll
 0000:fffa7000       .debug$S                   0000000140000000     Qt5Core:Qt5Core.dll
 0000:fffa7000       .debug$S                   0000000140000000     Qt5Widgets:Qt5Widgets.dll
 0000:fffa7000       .debug$S                   0000000140000000     Qt5Core:Qt5Core.dll
 0000:fffa7000       .debug$S                   0000000140000000     Qt5Widgets:Qt5Widgets.dll
 0000:fffa7000       .debug$S                   0000000140000000     msvcprt:MSVCP120.dll
 0000:fffa7000       .debug$S                   0000000140000000     Qt5Widgets:Qt5Widgets.dll
 0000:fffa7000       .debug$S                   0000000140000000     Qt5Widgets:Qt5Widgets.dll
 0000:fffa7000       .debug$S                   0000000140000000     Qt5Widgets:Qt5Widgets.dll
 0000:fffa7000       .debug$S                   0000000140000000     kernel32:KERNEL32.dll
 0000:fffa7000       .debug$S                   0000000140000000     Qt5Widgets:Qt5Widgets.dll
 0000:fffa7000       .debug$S                   0000000140000000     kernel32:KERNEL32.dll
 0000:fffa7000       .debug$S                   0000000140000000     Qt5Core:Qt5Core.dll
 0000:fffa7000       .debug$S                   0000000140000000     kernel32:KERNEL32.dll
 0000:fffa7000       .debug$S                   0000000140000000     Qt5Widgets:Qt5Widgets.dll
 0000:fffa7000       .debug$S                   0000000140000000     kernel32:KERNEL32.dll
 0000:fffa7000       .debug$S                   0000000140000000     Qt5Widgets:Qt5Widgets.dll
 0000:fffa7000       .debug$S                   0000000140000000     kernel32:KERNEL32.dll
 0000:fffa7000       .debug$S                   0000000140000000     Qt5Widgets:Qt5Widgets.dll
 0000:fffa7000       .debug$S                   0000000140000000     kernel32:KERNEL32.dll
 0000:fffa7000       .debug$S                   0000000140000000     Qt5Widgets:Qt5Widgets.dll
 0000:fffa7000       .debug$S                   0000000140000000     kernel32:KERNEL32.dll
 0000:fffa7000       .debug$S                   0000000140000000     msvcprt:MSVCP120.dll
 0000:fffa7000       .debug$S                   0000000140000000     kernel32:KERNEL32.dll
 0000:fffa7000       .debug$S                   0000000140000000     Qt5Widgets:Qt5Widgets.dll
 0000:fffa7000       .debug$S                   0000000140000000     kernel32:KERNEL32.dll
 0000:fffa7000       .debug$S                   0000000140000000     Qt5Widgets:Qt5Widgets.dll
 0000:fffa7000       .debug$S                   0000000140000000     kernel32:KERNEL32.dll
 0000:fffa7000       .debug$S                   0000000140000000     Qt5Widgets:Qt5Widgets.dll
 0000:fffa7000       .debug$S                   0000000140000000     kernel32:KERNEL32.dll
 0000:fffa7000       .debug$S                   0000000140000000     Qt5Widgets:Qt5Widgets.dll
 0000:fffa7000       .debug$S                   0000000140000000     Qt5Core:Qt5Core.dll
 0000:fffa7000       .debug$S                   0000000140000000     msvcprt:MSVCP120.dll
 0000:fffa7000       .debug$S                   0000000140000000     Qt5Widgets:Qt5Widgets.dll
 0000:fffa7000       .debug$S                   0000000140000000     kernel32:KERNEL32.dll
 0000:fffa7000       .debug$S                   0000000140000000     Qt5Core:Qt5Core.dll
 0000:fffa7000       .debug$S                   0000000140000000     kernel32:KERNEL32.dll
 0000:fffa7000       .debug$S                   0000000140000000     msvcprt:MSVCP120.dll
 0000:fffa7000       .debug$S                   0000000140000000     kernel32:KERNEL32.dll
 0000:fffa7000       .debug$S                   0000000140000000     Qt5Widgets:Qt5Widgets.dll
 0000:fffa7000       .debug$S                   0000000140000000     kernel32:KERNEL32.dll
 0000:fffa7000       .debug$S                   0000000140000000     Qt5Widgets:Qt5Widgets.dll
 0000:fffa7000       .debug$S                   0000000140000000     Qt5Widgets:Qt5Widgets.dll
 0000:fffa7000       .debug$S                   0000000140000000     Qt5Widgets:Qt5Widgets.dll
 0000:fffa7000       .debug$S                   0000000140000000     Qt5Core:Qt5Core.dll
 0000:fffa7000       .debug$S                   0000000140000000     kernel32:KERNEL32.dll
 0000:fffa7000       .debug$S                   0000000140000000     Qt5Widgets:Qt5Widgets.dll
 0000:fffa7000       .debug$S                   0000000140000000     kernel32:KERNEL32.dll
 0000:fffa7000       .debug$S                   0000000140000000     Qt5Widgets:Qt5Widgets.dll
 0000:fffa7000       .debug$S                   0000000140000000     Qt5Widgets:Qt5Widgets.dll
 0000:fffa7000       .debug$S                   0000000140000000     Qt5Core:Qt5Core.dll
 0000:fffa7000       .debug$S                   0000000140000000     Qt5Core:Qt5Core.dll
 0000:fffa7000       .debug$S                   0000000140000000     kernel32:KERNEL32.dll
 0000:fffa7000       .debug$S                   0000000140000000     Qt5Widgets:Qt5Widgets.dll
 0000:fffa7000       .debug$S                   0000000140000000     Qt5Widgets:Qt5Widgets.dll
 0000:fffa7000       .debug$S                   0000000140000000     Qt5Widgets:Qt5Widgets.dll
 0000:fffa7000       .debug$S                   0000000140000000     Qt5Core:Qt5Core.dll
 0000:fffa7000       .debug$S                   0000000140000000     Qt5Widgets:Qt5Widgets.dll
 0000:fffa7000       .debug$S                   0000000140000000     Qt5Widgets:Qt5Widgets.dll
 0000:fffa7000       .debug$S                   0000000140000000     Qt5Widgets:Qt5Widgets.dll
 0000:fffa7000       .debug$S                   0000000140000000     Qt5Widgets:Qt5Widgets.dll
 0000:fffa7000       .debug$S                   0000000140000000     Qt5Core:Qt5Core.dll
 0000:fffa7000       .debug$S                   0000000140000000     msvcprt:MSVCP120.dll
 0000:fffa7000       .debug$S                   0000000140000000     Qt5Widgets:Qt5Widgets.dll
 0000:fffa7000       .debug$S                   0000000140000000     msvcprt:MSVCP120.dll
 0000:fffa7000       .debug$S                   0000000140000000     Qt5Widgets:Qt5Widgets.dll
 0000:fffa7000       .debug$S                   0000000140000000     msvcprt:MSVCP120.dll
 0000:fffa7000       .debug$S                   0000000140000000     Qt5Widgets:Qt5Widgets.dll
 0000:fffa7000       .debug$S                   0000000140000000     Qt5Widgets:Qt5Widgets.dll
 0000:fffa7000       .debug$S                   0000000140000000     msvcprt:MSVCP120.dll
 0000:fffa7000       .debug$S                   0000000140000000     msvcprt:MSVCP120.dll
 0000:fffa7000       .debug$S                   0000000140000000     msvcprt:MSVCP120.dll
 0000:fffa7000       .debug$S                   0000000140000000     msvcprt:MSVCP120.dll
 0000:fffa7000       .debug$S                   0000000140000000     msvcprt:MSVCP120.dll
 0000:fffa7000       .debug$S                   0000000140000000     msvcprt:MSVCP120.dll
 0000:fffa7000       .debug$S                   0000000140000000     msvcprt:MSVCP120.dll
 0000:fffa7000       .debug$S                   0000000140000000     msvcprt:MSVCP120.dll
 0000:fffa7000       .debug$S                   0000000140000000     MSVCRT:MSVCR120.dll
 0000:fffa7000       .debug$S                   0000000140000000     Qt5Widgets:Qt5Widgets.dll
 0000:fffa7000       .debug$S                   0000000140000000     Qt5Core:Qt5Core.dll
 0000:fffa7000       .debug$S                   0000000140000000     MSVCRT:MSVCR120.dll
 0000:fffa7000       .debug$S                   0000000140000000     msvcprt:MSVCP120.dll
 0000:fffa7000       .debug$S                   0000000140000000     msvcprt:MSVCP120.dll
 0000:fffa7000       .debug$S                   0000000140000000     Qt5Widgets:Qt5Widgets.dll
 0000:fffa7000       .debug$S                   0000000140000000     Qt5Core:Qt5Core.dll
 0000:fffa7000       .debug$S                   0000000140000000     msvcprt:MSVCP120.dll
 0000:fffa7000       .debug$S                   0000000140000000     msvcprt:MSVCP120.dll
 0000:fffa7000       .debug$S                   0000000140000000     msvcprt:MSVCP120.dll
 0000:fffa7000       .debug$S                   0000000140000000     Qt5Widgets:Qt5Widgets.dll
 0000:fffa7000       .debug$S                   0000000140000000     Qt5Core:Qt5Core.dll
 0000:fffa7000       .debug$S                   0000000140000000     msvcprt:MSVCP120.dll
 0000:fffa7000       .debug$S                   0000000140000000     msvcprt:MSVCP120.dll
 0000:fffa7000       .debug$S                   0000000140000000     msvcprt:MSVCP120.dll
 0000:fffa7000       .debug$S                   0000000140000000     Qt5Widgets:Qt5Widgets.dll
 0000:fffa7000       .debug$S                   0000000140000000     Qt5Core:Qt5Core.dll
 0000:fffa7000       .debug$S                   0000000140000000     msvcprt:MSVCP120.dll
 0000:fffa7000       .debug$S                   0000000140000000     msvcprt:MSVCP120.dll
 0000:fffa7000       .debug$S                   0000000140000000     msvcprt:MSVCP120.dll
 0000:fffa7000       .debug$S                   0000000140000000     Qt5Widgets:Qt5Widgets.dll
 0000:fffa7000       .debug$S                   0000000140000000     Qt5Core:Qt5Core.dll
 0000:fffa7000       .debug$S                   0000000140000000     Qt5Widgets:Qt5Widgets.dll
 0000:fffa7000       .debug$S                   0000000140000000     msvcprt:MSVCP120.dll
 0000:fffa7000       .debug$S                   0000000140000000     msvcprt:MSVCP120.dll
 0000:fffa7000       .debug$S                   0000000140000000     Qt5Core:Qt5Core.dll
 0000:fffa7000       .debug$S                   0000000140000000     Qt5Core:Qt5Core.dll
 0000:fffa7000       .debug$S                   0000000140000000     ws2_32:WS2_32.dll
 0000:fffa7000       .debug$S                   0000000140000000     ws2_32:WS2_32.dll
 0000:fffa7000       .debug$S                   0000000140000000     ws2_32:WS2_32.dll
 0000:fffa7000       .debug$S                   0000000140000000     ws2_32:WS2_32.dll
 0000:fffa7000       .debug$S                   0000000140000000     Qt5Widgets:Qt5Widgets.dll
 0000:fffa7000       .debug$S                   0000000140000000     Qt5Core:Qt5Core.dll
 0000:fffa7000       .debug$S                   0000000140000000     ws2_32:WS2_32.dll
 0000:fffa7000       .debug$S                   0000000140000000     ws2_32:WS2_32.dll
 0000:fffa7000       .debug$S                   0000000140000000     msvcprt:MSVCP120.dll
 0000:fffa7000       .debug$S                   0000000140000000     ws2_32:WS2_32.dll
 0000:fffa7000       .debug$S                   0000000140000000     kernel32:KERNEL32.dll
 0000:fffa7000       .debug$S                   0000000140000000     ws2_32:WS2_32.dll
 0000:fffa7000       .debug$S                   0000000140000000     kernel32:KERNEL32.dll
 0000:fffa7000       .debug$S                   0000000140000000     ws2_32:WS2_32.dll
 0000:fffa7000       .debug$S                   0000000140000000     kernel32:KERNEL32.dll
 0000:fffa7000       .debug$S                   0000000140000000     MSVCRT:MSVCR120.dll
 0000:fffa7000       .debug$S                   0000000140000000     kernel32:KERNEL32.dll
 0000:fffa7000       .debug$S                   0000000140000000     Qt5Widgets:Qt5Widgets.dll
 0000:fffa7000       .debug$S                   0000000140000000     kernel32:KERNEL32.dll
 0000:fffa7000       .debug$S                   0000000140000000     MSVCRT:MSVCR120.dll
 0000:fffa7000       .debug$S                   0000000140000000     kernel32:KERNEL32.dll
 0000:fffa7000       .debug$S                   0000000140000000     Qt5Widgets:Qt5Widgets.dll
 0000:fffa7000       .debug$S                   0000000140000000     kernel32:KERNEL32.dll
 0000:fffa7000       .debug$S                   0000000140000000     MSVCRT:MSVCR120.dll
 0000:fffa7000       .debug$S                   0000000140000000     kernel32:KERNEL32.dll
 0000:fffa7000       .debug$S                   0000000140000000     Qt5Widgets:Qt5Widgets.dll
 0000:fffa7000       .debug$S                   0000000140000000     kernel32:KERNEL32.dll
 0000:fffa7000       .debug$S                   0000000140000000     MSVCRT:MSVCR120.dll
 0000:fffa7000       .debug$S                   0000000140000000     kernel32:KERNEL32.dll
 0000:fffa7000       .debug$S                   0000000140000000     Qt5Widgets:Qt5Widgets.dll
 0000:fffa7000       .debug$S                   0000000140000000     kernel32:KERNEL32.dll
 0000:fffa7000       .debug$S                   0000000140000000     MSVCRT:MSVCR120.dll
 0000:fffa7000       .debug$S                   0000000140000000     kernel32:KERNEL32.dll
 0000:fffa7000       .debug$S                   0000000140000000     Qt5Widgets:Qt5Widgets.dll
 0000:fffa7000       .debug$S                   0000000140000000     kernel32:KERNEL32.dll
 0000:fffa7000       .debug$S                   0000000140000000     Qt5Widgets:Qt5Widgets.dll
 0000:fffa7000       .debug$S                   0000000140000000     kernel32:KERNEL32.dll
 0000:fffa7000       .debug$S                   0000000140000000     Qt5Widgets:Qt5Widgets.dll
 0000:fffa7000       .debug$S                   0000000140000000     kernel32:KERNEL32.dll
 0000:fffa7000       .debug$S                   0000000140000000     Qt5Widgets:Qt5Widgets.dll
 0000:fffa7000       .debug$S                   0000000140000000     kernel32:KERNEL32.dll
 0000:fffa7000       .debug$S                   0000000140000000     MSVCRT:MSVCR120.dll
 0000:fffa7000       .debug$S                   0000000140000000     kernel32:KERNEL32.dll
 0000:fffa7000       .debug$S                   0000000140000000     Qt5Widgets:Qt5Widgets.dll
 0000:fffa7000       .debug$S                   0000000140000000     kernel32:KERNEL32.dll
 0000:fffa7000       .debug$S                   0000000140000000     Qt5Widgets:Qt5Widgets.dll
 0000:fffa7000       .debug$S                   0000000140000000     kernel32:KERNEL32.dll
 0000:fffa7000       .debug$S                   0000000140000000     msvcprt:MSVCP120.dll
 0000:fffa7000       .debug$S                   0000000140000000     kernel32:KERNEL32.dll
 0000:fffa7000       .debug$S                   0000000140000000     Qt5Widgets:Qt5Widgets.dll
 0000:fffa7000       .debug$S                   0000000140000000     kernel32:KERNEL32.dll
 0000:fffa7000       .debug$S                   0000000140000000     msvcprt:MSVCP120.dll
 0000:fffa7000       .debug$S                   0000000140000000     kernel32:KERNEL32.dll
 0000:fffa7000       .debug$S                   0000000140000000     MSVCRT:MSVCR120.dll
 0000:fffa7000       .debug$S                   0000000140000000     kernel32:KERNEL32.dll
 0000:fffa7000       .debug$S                   0000000140000000     Qt5Widgets:Qt5Widgets.dll
 0000:fffa7000       .debug$S                   0000000140000000     kernel32:KERNEL32.dll
 0000:fffa7000       .debug$S                   0000000140000000     MSVCRT:MSVCR120.dll
 0000:fffa7000       .debug$S                   0000000140000000     kernel32:KERNEL32.dll
 0000:fffa7000       .debug$S                   0000000140000000     Qt5Widgets:Qt5Widgets.dll
 0000:fffa7000       .debug$S                   0000000140000000     kernel32:KERNEL32.dll
 0000:fffa7000       .debug$S                   0000000140000000     Qt5Widgets:Qt5Widgets.dll
 0000:fffa7000       .debug$S                   0000000140000000     kernel32:KERNEL32.dll
 0000:fffa7000       .debug$S                   0000000140000000     Qt5Widgets:Qt5Widgets.dll
 0000:fffa7000       .debug$S                   0000000140000000     kernel32:KERNEL32.dll
 0000:fffa7000       .debug$S                   0000000140000000     Qt5Widgets:Qt5Widgets.dll
 0000:fffa7000       .debug$S                   0000000140000000     kernel32:KERNEL32.dll
 0000:fffa7000       .debug$S                   0000000140000000     MSVCRT:MSVCR120.dll
 0000:fffa7000       .debug$S                   0000000140000000     kernel32:KERNEL32.dll
 0000:fffa7000       .debug$S                   0000000140000000     Qt5Widgets:Qt5Widgets.dll
 0000:fffa7000       .debug$S                   0000000140000000     kernel32:KERNEL32.dll
 0000:fffa7000       .debug$S                   0000000140000000     MSVCRT:MSVCR120.dll
 0000:fffa7000       .debug$S                   0000000140000000     kernel32:KERNEL32.dll
 0000:fffa7000       .debug$S                   0000000140000000     Qt5Widgets:Qt5Widgets.dll
 0000:fffa7000       .debug$S                   0000000140000000     Qt5Widgets:Qt5Widgets.dll
 0000:fffa7000       .debug$S                   0000000140000000     Qt5Widgets:Qt5Widgets.dll
 0000:fffa7000       .debug$S                   0000000140000000     msvcprt:MSVCP120.dll
 0000:fffa7000       .debug$S                   0000000140000000     Qt5Widgets:Qt5Widgets.dll
 0000:fffa7000       .debug$S                   0000000140000000     Qt5Widgets:Qt5Widgets.dll
 0000:fffa7000       .debug$S                   0000000140000000     kernel32:KERNEL32.dll
 0000:fffa7000       .debug$S                   0000000140000000     MSVCRT:MSVCR120.dll
 0000:fffa7000       .debug$S                   0000000140000000     kernel32:KERNEL32.dll
 0000:fffa7000       .debug$S                   0000000140000000     pcl_io_release:pcl_io_release.dll
 0000:fffa7000       .debug$S                   0000000140000000     Qt5Widgets:Qt5Widgets.dll
 0000:fffa7000       .debug$S                   0000000140000000     Qt5Widgets:Qt5Widgets.dll
 0000:fffa7000       .debug$S                   0000000140000000     pcl_io_release:pcl_io_release.dll
 0000:fffa7000       .debug$S                   0000000140000000     msvcprt:MSVCP120.dll
 0000:fffa7000       .debug$S                   0000000140000000     pcl_io_release:pcl_io_release.dll
 0000:fffa7000       .debug$S                   0000000140000000     kernel32:KERNEL32.dll
 0000:fffa7000       .debug$S                   0000000140000000     MSVCRT:MSVCR120.dll
 0000:fffa7000       .debug$S                   0000000140000000     kernel32:KERNEL32.dll
 0000:fffa7000       .debug$S                   0000000140000000     Qt5Widgets:Qt5Widgets.dll
 0000:fffa7000       .debug$S                   0000000140000000     pcl_io_release:pcl_io_release.dll
 0000:fffa7000       .debug$S                   0000000140000000     msvcprt:MSVCP120.dll
 0000:fffa7000       .debug$S                   0000000140000000     Qt5Widgets:Qt5Widgets.dll
 0000:fffa7000       .debug$S                   0000000140000000     msvcprt:MSVCP120.dll
 0000:fffa7000       .debug$S                   0000000140000000     Qt5Widgets:Qt5Widgets.dll
 0000:fffa7000       .debug$S                   0000000140000000     kernel32:KERNEL32.dll
 0000:fffa7000       .debug$S                   0000000140000000     MSVCRT:MSVCR120.dll
 0000:fffa7000       .debug$S                   0000000140000000     kernel32:KERNEL32.dll
 0000:fffa7000       .debug$S                   0000000140000000     msvcprt:MSVCP120.dll
 0000:fffa7000       .debug$S                   0000000140000000     kernel32:KERNEL32.dll
 0000:fffa7000       .debug$S                   0000000140000000     Qt5Widgets:Qt5Widgets.dll
 0000:fffa7000       .debug$S                   0000000140000000     Qt5Core:Qt5Core.dll
 0000:fffa7000       .debug$S                   0000000140000000     Qt5Widgets:Qt5Widgets.dll
 0000:fffa7000       .debug$S                   0000000140000000     Advapi32:ADVAPI32.dll
 0000:fffa7000       .debug$S                   0000000140000000     Qt5Widgets:Qt5Widgets.dll
 0000:fffa7000       .debug$S                   0000000140000000     Advapi32:ADVAPI32.dll
 0000:fffa7000       .debug$S                   0000000140000000     Qt5Widgets:Qt5Widgets.dll
 0000:fffa7000       .debug$S                   0000000140000000     MSVCRT:MSVCR120.dll
 0000:fffa7000       .debug$S                   0000000140000000     MSVCRT:MSVCR120.dll
 0000:fffa7000       .debug$S                   0000000140000000     MSVCRT:MSVCR120.dll
 0000:fffa7000       .debug$S                   0000000140000000     Qt5Core:Qt5Core.dll
 0000:fffa7000       .debug$S                   0000000140000000     Qt5Widgets:Qt5Widgets.dll
 0000:fffa7000       .debug$S                   0000000140000000     msvcprt:MSVCP120.dll
 0000:fffa7000       .debug$S                   0000000140000000     Qt5Widgets:Qt5Widgets.dll
 0000:fffa7000       .debug$S                   0000000140000000     MSVCRT:MSVCR120.dll
 0000:fffa7000       .debug$S                   0000000140000000     MSVCRT:MSVCR120.dll
 0000:fffa7000       .debug$S                   0000000140000000     msvcprt:MSVCP120.dll
 0000:fffa7000       .debug$S                   0000000140000000     msvcprt:MSVCP120.dll
 0000:fffa7000       .debug$S                   0000000140000000     Qt5Widgets:Qt5Widgets.dll
 0000:fffa7000       .debug$S                   0000000140000000     MSVCRT:MSVCR120.dll
 0000:fffa7000       .debug$S                   0000000140000000     MSVCRT:MSVCR120.dll
 0000:fffa7000       .debug$S                   0000000140000000     MSVCRT:MSVCR120.dll
 0000:fffa7000       .debug$S                   0000000140000000     Qt5Widgets:Qt5Widgets.dll
 0000:fffa7000       .debug$S                   0000000140000000     MSVCRT:MSVCR120.dll
 0000:fffa7000       .debug$S                   0000000140000000     msvcprt:MSVCP120.dll
 0000:fffa7000       .debug$S                   0000000140000000     MSVCRT:MSVCR120.dll
 0000:fffa7000       .debug$S                   0000000140000000     Qt5Widgets:Qt5Widgets.dll
 0000:fffa7000       .debug$S                   0000000140000000     MSVCRT:MSVCR120.dll
 0000:fffa7000       .debug$S                   0000000140000000     Qt5Core:Qt5Core.dll
 0000:fffa7000       .debug$S                   0000000140000000     MSVCRT:MSVCR120.dll
 0000:fffa7000       .debug$S                   0000000140000000     Qt5Widgets:Qt5Widgets.dll
 0000:fffa7000       .debug$S                   0000000140000000     msvcprt:MSVCP120.dll
 0000:fffa7000       .debug$S                   0000000140000000     Qt5Widgets:Qt5Widgets.dll
 0000:fffa7000       .debug$S                   0000000140000000     Qt5Widgets:Qt5Widgets.dll
 0000:fffa7000       .debug$S                   0000000140000000     Qt5Core:Qt5Core.dll
 0000:fffa7000       .debug$S                   0000000140000000     msvcprt:MSVCP120.dll
 0000:fffa7000       .debug$S                   0000000140000000     MSVCRT:MSVCR120.dll
 0000:fffa7000       .debug$S                   0000000140000000     Qt5Widgets:Qt5Widgets.dll
 0000:fffa7000       .debug$S                   0000000140000000     MSVCRT:MSVCR120.dll
 0000:fffa7000       .debug$S                   0000000140000000     MSVCRT:MSVCR120.dll
 0000:fffa7000       .debug$S                   0000000140000000     MSVCRT:MSVCR120.dll
 0000:fffa7000       .debug$S                   0000000140000000     Qt5Widgets:Qt5Widgets.dll
 0000:fffa7000       .debug$S                   0000000140000000     MSVCRT:MSVCR120.dll
 0000:fffa7000       .debug$S                   0000000140000000     Qt5Core:Qt5Core.dll
 0000:fffa7000       .debug$S                   0000000140000000     MSVCRT:MSVCR120.dll
 0000:fffa7000       .debug$S                   0000000140000000     msvcprt:MSVCP120.dll
 0000:fffa7000       .debug$S                   0000000140000000     MSVCRT:MSVCR120.dll
 0000:fffa7000       .debug$S                   0000000140000000     msvcprt:MSVCP120.dll
 0000:fffa7000       .debug$S                   0000000140000000     MSVCRT:MSVCR120.dll
 0000:fffa7000       .debug$S                   0000000140000000     Qt5Widgets:Qt5Widgets.dll
 0000:fffa7000       .debug$S                   0000000140000000     MSVCRT:MSVCR120.dll
 0000:fffa7000       .debug$S                   0000000140000000     Qt5Widgets:Qt5Widgets.dll
 0000:fffa7000       .debug$S                   0000000140000000     MSVCRT:MSVCR120.dll
 0000:fffa7000       .debug$S                   0000000140000000     Qt5Widgets:Qt5Widgets.dll
 0000:fffa7000       .debug$S                   0000000140000000     msvcprt:MSVCP120.dll
 0000:fffa7000       .debug$S                   0000000140000000     MSVCRT:MSVCR120.dll
 0000:fffa7000       .debug$S                   0000000140000000     Qt5Widgets:Qt5Widgets.dll
 0000:fffa7000       .debug$S                   0000000140000000     Qt5Widgets:Qt5Widgets.dll
 0000:fffa7000       .debug$S                   0000000140000000     Qt5Core:Qt5Core.dll
 0000:fffa7000       .debug$S                   0000000140000000     MSVCRT:MSVCR120.dll
 0000:fffa7000       .debug$S                   0000000140000000     MSVCRT:MSVCR120.dll
 0000:fffa7000       .debug$S                   0000000140000000     MSVCRT:MSVCR120.dll
 0000:fffa7000       .debug$S                   0000000140000000     Qt5Widgets:Qt5Widgets.dll
 0000:fffa7000       .debug$S                   0000000140000000     Qt5Widgets:Qt5Widgets.dll
 0000:fffa7000       .debug$S                   0000000140000000     Qt5Widgets:Qt5Widgets.dll
 0000:fffa7000       .debug$S                   0000000140000000     Qt5Widgets:Qt5Widgets.dll
 0000:fffa7000       .debug$S                   0000000140000000     Qt5Core:Qt5Core.dll
 0000:fffa7000       .debug$S                   0000000140000000     Qt5Widgets:Qt5Widgets.dll
 0000:fffa7000       .debug$S                   0000000140000000     MSVCRT:MSVCR120.dll
 0000:fffa7000       .debug$S                   0000000140000000     Qt5Widgets:Qt5Widgets.dll
 0000:fffa7000       .debug$S                   0000000140000000     MSVCRT:MSVCR120.dll
 0000:fffa7000       .debug$S                   0000000140000000     Qt5Widgets:Qt5Widgets.dll
 0000:fffa7000       .debug$S                   0000000140000000     MSVCRT:MSVCR120.dll
 0000:fffa7000       .debug$S                   0000000140000000     pcl_common_release:pcl_common_release.dll
 0000:fffa7000       .debug$S                   0000000140000000     pcl_common_release:pcl_common_release.dll
 0000:fffa7000       .debug$S                   0000000140000000     pcl_common_release:pcl_common_release.dll
 0000:fffa7000       .debug$S                   0000000140000000     pcl_common_release:pcl_common_release.dll
 0000:fffa7000       .debug$S                   0000000140000000     MSVCRT:MSVCR120.dll
 0000:fffa7000       .debug$S                   0000000140000000     Qt5Widgets:Qt5Widgets.dll
 0000:fffa7000       .debug$S                   0000000140000000     MSVCRT:MSVCR120.dll
 0000:fffa7000       .debug$S                   0000000140000000     Qt5Core:Qt5Core.dll
 0000:fffa7000       .debug$S                   0000000140000000     MSVCRT:MSVCR120.dll
 0000:fffa7000       .debug$S                   0000000140000000     Qt5Widgets:Qt5Widgets.dll
 0000:fffa7000       .debug$S                   0000000140000000     pcl_common_release:pcl_common_release.dll
 0000:fffa7000       .debug$S                   0000000140000000     msvcprt:MSVCP120.dll
 0000:fffa7000       .debug$S                   0000000140000000     pcl_common_release:pcl_common_release.dll
 0000:fffa7000       .debug$S                   0000000140000000     pcl_common_release:pcl_common_release.dll
 0000:fffa7000       .debug$S                   0000000140000000     pcl_common_release:pcl_common_release.dll
 0000:fffa7000       .debug$S                   0000000140000000     MSVCRT:MSVCR120.dll
 0000:fffa7000       .debug$S                   0000000140000000     MSVCRT:MSVCR120.dll
 0000:fffa7000       .debug$S                   0000000140000000     MSVCRT:MSVCR120.dll
 0000:fffa7000       .debug$S                   0000000140000000     pcl_common_release:pcl_common_release.dll
 0000:fffa7000       .debug$S                   0000000140000000     MSVCRT:MSVCR120.dll
 0000:fffa7000       .debug$S                   0000000140000000     pcl_filters_release:pcl_filters_release.dll
 0000:fffa7000       .debug$S                   0000000140000000     MSVCRT:MSVCR120.dll
 0000:fffa7000       .debug$S                   0000000140000000     msvcprt:MSVCP120.dll
 0000:fffa7000       .debug$S                   0000000140000000     Qt5Widgets:Qt5Widgets.dll
 0000:fffa7000       .debug$S                   0000000140000000     Qt5Core:Qt5Core.dll
 0000:fffa7000       .debug$S                   0000000140000000     Qt5Widgets:Qt5Widgets.dll
 0000:fffa7000       .debug$S                   0000000140000000     MSVCRT:MSVCR120.dll
 0000:fffa7000       .debug$S                   0000000140000000     Qt5Core:Qt5Core.dll
 0000:fffa7000       .debug$S                   0000000140000000     msvcprt:MSVCP120.dll
 0000:fffa7000       .debug$S                   0000000140000000     MSVCRT:MSVCR120.dll
 0000:fffa7000       .debug$S                   0000000140000000     MSVCRT:MSVCR120.dll
 0000:fffa7000       .debug$S                   0000000140000000     ws2_32:WS2_32.dll
 0000:fffa7000       .debug$S                   0000000140000000     ws2_32:WS2_32.dll
 0000:fffa7000       .debug$S                   0000000140000000     ws2_32:WS2_32.dll
 0000:fffa7000       .debug$S                   0000000140000000     ws2_32:WS2_32.dll
 0000:fffa7000       .debug$S                   0000000140000000     Qt5Widgets:Qt5Widgets.dll
 0000:fffa7000       .debug$S                   0000000140000000     msvcprt:MSVCP120.dll
 0000:fffa7000       .debug$S                   0000000140000000     Qt5Widgets:Qt5Widgets.dll
 0000:fffa7000       .debug$S                   0000000140000000     Qt5Widgets:Qt5Widgets.dll
 0000:fffa7000       .debug$S                   0000000140000000     msvcprt:MSVCP120.dll
 0000:fffa7000       .debug$S                   0000000140000000     pcl_filters_release:pcl_filters_release.dll
 0000:fffa7000       .debug$S                   0000000140000000     MSVCRT:MSVCR120.dll
 0000:fffa7000       .debug$S                   0000000140000000     Qt5Widgets:Qt5Widgets.dll
 0000:fffa7000       .debug$S                   0000000140000000     Qt5Core:Qt5Core.dll
 0000:fffa7000       .debug$S                   0000000140000000     Qt5Widgets:Qt5Widgets.dll
 0000:fffa7000       .debug$S                   0000000140000000     pcl_filters_release:pcl_filters_release.dll
 0000:fffa7000       .debug$S                   0000000140000000     msvcprt:MSVCP120.dll
 0000:fffa7000       .debug$S                   0000000140000000     Qt5Widgets:Qt5Widgets.dll
 0000:fffa7000       .debug$S                   0000000140000000     Qt5Widgets:Qt5Widgets.dll
 0000:fffa7000       .debug$S                   0000000140000000     MSVCRT:MSVCR120.dll
 0000:fffa7000       .debug$S                   0000000140000000     ws2_32:WS2_32.dll
 0000:fffa7000       .debug$S                   0000000140000000     msvcprt:MSVCP120.dll
 0000:fffa7000       .debug$S                   0000000140000000     Qt5Widgets:Qt5Widgets.dll
 0000:fffa7000       .debug$S                   0000000140000000     msvcprt:MSVCP120.dll
 0000:fffa7000       .debug$S                   0000000140000000     Qt5Widgets:Qt5Widgets.dll
 0000:fffa7000       .debug$S                   0000000140000000     msvcprt:MSVCP120.dll
 0000:fffa7000       .debug$S                   0000000140000000     msvcprt:MSVCP120.dll
 0000:fffa7000       .debug$S                   0000000140000000     Qt5Core:Qt5Core.dll
 0000:fffa7000       .debug$S                   0000000140000000     Qt5Widgets:Qt5Widgets.dll
 0000:fffa7000       .debug$S                   0000000140000000     Qt5Widgets:Qt5Widgets.dll
 0000:fffa7000       .debug$S                   0000000140000000     Qt5Widgets:Qt5Widgets.dll
 0000:fffa7000       .debug$S                   0000000140000000     Qt5Widgets:Qt5Widgets.dll
 0000:fffa7000       .debug$S                   0000000140000000     Qt5Widgets:Qt5Widgets.dll
 0000:fffa7000       .debug$S                   0000000140000000     Qt5Widgets:Qt5Widgets.dll
 0000:fffa7000       .debug$S                   0000000140000000     Qt5Widgets:Qt5Widgets.dll
 0000:fffa7000       .debug$S                   0000000140000000     Qt5Widgets:Qt5Widgets.dll
 0000:fffa7000       .debug$S                   0000000140000000     Qt5Core:Qt5Core.dll
 0000:fffa7000       .debug$S                   0000000140000000     Qt5Widgets:Qt5Widgets.dll
 0000:fffa7000       .debug$S                   0000000140000000     Qt5Widgets:Qt5Widgets.dll
 0000:fffa7000       .debug$S                   0000000140000000     Qt5Widgets:Qt5Widgets.dll
 0000:fffa7000       .debug$S                   0000000140000000     Qt5Widgets:Qt5Widgets.dll
 0000:fffa7000       .debug$S                   0000000140000000     msvcprt:MSVCP120.dll
 0001:00000000       ??__E?_Generic_object@?$_Error_objects@H@std@@2V_Generic_error_category@2@A@@YAXXZ 0000000140001000 f   main.obj
 0001:00000010       ??__E?_Iostream_object@?$_Error_objects@H@std@@2V_Iostream_error_category@2@A@@YAXXZ 0000000140001010 f   main.obj
 0001:00000020       ??__E?_System_object@?$_Error_objects@H@std@@2V_System_error_category@2@A@@YAXXZ 0000000140001020 f   main.obj
 0001:00000030       ??__E?id@?$service_base@Vselect_reactor@detail@asio@boost@@@detail@asio@boost@@2V?$service_id@Vselect_reactor@detail@asio@boost@@@234@A@@YAXXZ 0000000140001030 f   main.obj
 0001:00000050       ??__E?id@?$service_base@Vstrand_service@detail@asio@boost@@@detail@asio@boost@@2V?$service_id@Vstrand_service@detail@asio@boost@@@234@A@@YAXXZ 0000000140001050 f   main.obj
 0001:00000070       ??__E?id@?$service_base@Vwin_iocp_io_service@detail@asio@boost@@@detail@asio@boost@@2V?$service_id@Vwin_iocp_io_service@detail@asio@boost@@@234@A@@YAXXZ 0000000140001070 f   main.obj
 0001:00000090       ??__E?top_@?$call_stack@Vstrand_impl@strand_service@detail@asio@boost@@E@detail@asio@boost@@0V?$tss_ptr@Vcontext@?$call_stack@Vstrand_impl@strand_service@detail@asio@boost@@E@detail@asio@boost@@@234@A@@YAXXZ 0000000140001090 f   main.obj
 0001:000000f0       ??__E?top_@?$call_stack@Vwin_iocp_io_service@detail@asio@boost@@Uwin_iocp_thread_info@234@@detail@asio@boost@@0V?$tss_ptr@Vcontext@?$call_stack@Vwin_iocp_io_service@detail@asio@boost@@Uwin_iocp_thread_info@234@@detail@asio@boost@@@234@A@@YAXXZ 00000001400010f0 f   main.obj
 0001:00000150       ??__Eaddrinfo_category@error@asio@boost@@YAXXZ 0000000140001150 f   main.obj
 0001:00000170       ??__Ebytes_transferred@?A0x3b5a753b@placeholders@asio@boost@@YAXXZ 0000000140001170 f   main.obj
 0001:00000190       ??__Eerrno_ecat@system@boost@@YAXXZ 0000000140001190 f   main.obj
 0001:000001b0       ??__Eerror@?A0x3b5a753b@placeholders@asio@boost@@YAXXZ 00000001400011b0 f   main.obj
 0001:000001d0       ??__Eiterator@?A0x3b5a753b@placeholders@asio@boost@@YAXXZ 00000001400011d0 f   main.obj
 0001:000001f0       ??__Emisc_category@error@asio@boost@@YAXXZ 00000001400011f0 f   main.obj
 0001:00000240       ??__Enative_ecat@system@boost@@YAXXZ 0000000140001240 f   main.obj
 0001:00000260       ??__Enetdb_category@error@asio@boost@@YAXXZ 0000000140001260 f   main.obj
 0001:00000280       ??__Eposix_category@system@boost@@YAXXZ 0000000140001280 f   main.obj
 0001:000002a0       ??__Esignal_number@?A0x3b5a753b@placeholders@asio@boost@@YAXXZ 00000001400012a0 f   main.obj
 0001:000002c0       ??__Esystem_category@error@asio@boost@@YAXXZ 00000001400012c0 f   main.obj
 0001:000002e0       ??__Ewinsock_init_instance@detail@asio@boost@@YAXXZ 00000001400012e0 f   main.obj
 0001:00000360       ??__E?id@?$service_base@V?$datagram_socket_service@Vudp@ip@asio@boost@@@asio@boost@@@detail@asio@boost@@2V?$service_id@V?$datagram_socket_service@Vudp@ip@asio@boost@@@asio@boost@@@234@A@@YAXXZ 0000000140001360 f   udp_func.obj
 0001:00000380       ??__E?id@?$service_base@V?$resolver_service@Vudp@ip@asio@boost@@@ip@asio@boost@@@detail@asio@boost@@2V?$service_id@V?$resolver_service@Vudp@ip@asio@boost@@@ip@asio@boost@@@234@A@@YAXXZ 0000000140001380 f   udp_func.obj
 0001:000003a0       ??__Eaddrinfo_category@error@asio@boost@@YAXXZ 00000001400013a0 f   udp_func.obj
 0001:000003c0       ??__Ebytes_transferred@?A0x3f3fc891@placeholders@asio@boost@@YAXXZ 00000001400013c0 f   udp_func.obj
 0001:000003e0       ??__Eerrno_ecat@system@boost@@YAXXZ 00000001400013e0 f   udp_func.obj
 0001:00000400       ??__Eerror@?A0x3f3fc891@placeholders@asio@boost@@YAXXZ 0000000140001400 f   udp_func.obj
 0001:00000420       ??__Eiterator@?A0x3f3fc891@placeholders@asio@boost@@YAXXZ 0000000140001420 f   udp_func.obj
 0001:00000440       ??__Emisc_category@error@asio@boost@@YAXXZ 0000000140001440 f   udp_func.obj
 0001:00000490       ??__Enative_ecat@system@boost@@YAXXZ 0000000140001490 f   udp_func.obj
 0001:000004b0       ??__Enetdb_category@error@asio@boost@@YAXXZ 00000001400014b0 f   udp_func.obj
 0001:000004d0       ??__Eposix_category@system@boost@@YAXXZ 00000001400014d0 f   udp_func.obj
 0001:000004f0       ??__Esignal_number@?A0x3f3fc891@placeholders@asio@boost@@YAXXZ 00000001400014f0 f   udp_func.obj
 0001:00000510       ??__Esystem_category@error@asio@boost@@YAXXZ 0000000140001510 f   udp_func.obj
 0001:00000530       ??__Ewinsock_init_instance@detail@asio@boost@@YAXXZ 0000000140001530 f   udp_func.obj
 0001:000005b0       ??__E?e@?$exception_ptr_static_exception_object@Ubad_alloc_@exception_detail@boost@@@exception_detail@boost@@2Vexception_ptr@3@B@@YAXXZ 00000001400015b0 f   processply.obj
 0001:000005d0       ??__E?e@?$exception_ptr_static_exception_object@Ubad_exception_@exception_detail@boost@@@exception_detail@boost@@2Vexception_ptr@3@B@@YAXXZ 00000001400015d0 f   processply.obj
 0001:000005f0       ??__E?num_cores@?$num_core_holder@$0A@@ipcdetail@interprocess@boost@@0IA@@YAXXZ 00000001400015f0 f   processply.obj
 0001:00000610       ??__E?unrestricted@?$unrestricted_permissions_holder@$0A@@ipcdetail@interprocess@boost@@2Vinterprocess_all_access_security@winapi@34@A@@YAXXZ 0000000140001610 f   processply.obj
 0001:00000670       ??__Eerrno_ecat@system@boost@@YAXXZ 0000000140001670 f   processply.obj
 0001:00000690       ??__Enative_ecat@system@boost@@YAXXZ 0000000140001690 f   processply.obj
 0001:000006b0       ??__Eposix_category@system@boost@@YAXXZ 00000001400016b0 f   processply.obj
 0001:000006d0       ??__Eaddrinfo_category@error@asio@boost@@YAXXZ 00000001400016d0 f   processcontrol.obj
 0001:000006f0       ??__Ebytes_transferred@?A0xd89daa84@placeholders@asio@boost@@YAXXZ 00000001400016f0 f   processcontrol.obj
 0001:00000710       ??__Eerrno_ecat@system@boost@@YAXXZ 0000000140001710 f   processcontrol.obj
 0001:00000730       ??__Eerror@?A0xd89daa84@placeholders@asio@boost@@YAXXZ 0000000140001730 f   processcontrol.obj
 0001:00000750       ??__Eiterator@?A0xd89daa84@placeholders@asio@boost@@YAXXZ 0000000140001750 f   processcontrol.obj
 0001:00000770       ??__Emisc_category@error@asio@boost@@YAXXZ 0000000140001770 f   processcontrol.obj
 0001:000007c0       ??__Enative_ecat@system@boost@@YAXXZ 00000001400017c0 f   processcontrol.obj
 0001:000007e0       ??__Enetdb_category@error@asio@boost@@YAXXZ 00000001400017e0 f   processcontrol.obj
 0001:00000800       ??__Eposix_category@system@boost@@YAXXZ 0000000140001800 f   processcontrol.obj
 0001:00000820       ??__Esignal_number@?A0xd89daa84@placeholders@asio@boost@@YAXXZ 0000000140001820 f   processcontrol.obj
 0001:00000840       ??__Esystem_category@error@asio@boost@@YAXXZ 0000000140001840 f   processcontrol.obj
 0001:00000860       ??__Ewinsock_init_instance@detail@asio@boost@@YAXXZ 0000000140001860 f   processcontrol.obj
 0001:000008e0       ??__Eaddrinfo_category@error@asio@boost@@YAXXZ 00000001400018e0 f   festo_udp_func.obj
 0001:00000900       ??__Ebytes_transferred@?A0xe6bc5bfa@placeholders@asio@boost@@YAXXZ 0000000140001900 f   festo_udp_func.obj
 0001:00000920       ??__Eerrno_ecat@system@boost@@YAXXZ 0000000140001920 f   festo_udp_func.obj
 0001:00000940       ??__Eerror@?A0xe6bc5bfa@placeholders@asio@boost@@YAXXZ 0000000140001940 f   festo_udp_func.obj
 0001:00000960       ??__Eiterator@?A0xe6bc5bfa@placeholders@asio@boost@@YAXXZ 0000000140001960 f   festo_udp_func.obj
 0001:00000980       ??__Emisc_category@error@asio@boost@@YAXXZ 0000000140001980 f   festo_udp_func.obj
 0001:000009d0       ??__Enative_ecat@system@boost@@YAXXZ 00000001400019d0 f   festo_udp_func.obj
 0001:000009f0       ??__Enetdb_category@error@asio@boost@@YAXXZ 00000001400019f0 f   festo_udp_func.obj
 0001:00000a10       ??__Eposix_category@system@boost@@YAXXZ 0000000140001a10 f   festo_udp_func.obj
 0001:00000a30       ??__EsCounter@udp@@YAXXZ   0000000140001a30 f   festo_udp_func.obj
 0001:00000a60       ??__Esignal_number@?A0xe6bc5bfa@placeholders@asio@boost@@YAXXZ 0000000140001a60 f   festo_udp_func.obj
 0001:00000a80       ??__Esystem_category@error@asio@boost@@YAXXZ 0000000140001a80 f   festo_udp_func.obj
 0001:00000aa0       ??__Ewinsock_init_instance@detail@asio@boost@@YAXXZ 0000000140001aa0 f   festo_udp_func.obj
 0001:00000b20       ??__Eerrno_ecat@system@boost@@YAXXZ 0000000140001b20 f   mainwindow.obj
 0001:00000b40       ??__Enative_ecat@system@boost@@YAXXZ 0000000140001b40 f   mainwindow.obj
 0001:00000b60       ??__Eposix_category@system@boost@@YAXXZ 0000000140001b60 f   mainwindow.obj
 0001:00000b80       ??__Edummy@?A0xcb715916@@YAXXZ 0000000140001b80 f   qrc_application.obj
 0001:00000bc0       ??__E?staticMetaObject@MainWindow@@2UQMetaObject@@B@@YAXXZ 0000000140001bc0 f   moc_mainwindow.obj
 0001:00000bd0       ??__Eerrno_ecat@system@boost@@YAXXZ 0000000140001bd0 f   moc_mainwindow.obj
 0001:00000bf0       ??__Enative_ecat@system@boost@@YAXXZ 0000000140001bf0 f   moc_mainwindow.obj
 0001:00000c10       ??__Eposix_category@system@boost@@YAXXZ 0000000140001c10 f   moc_mainwindow.obj
 0001:00000c30       ??__Eerrno_ecat@system@boost@@YAXXZ 0000000140001c30 f   libboost_system-vc120-mt-1_63:error_code.obj
 0001:00000c80       ??__Enative_ecat@system@boost@@YAXXZ 0000000140001c80 f   libboost_system-vc120-mt-1_63:error_code.obj
 0001:00000cd0       ??__Eposix_category@system@boost@@YAXXZ 0000000140001cd0 f   libboost_system-vc120-mt-1_63:error_code.obj
 0001:00000d20       ??__Ethrows@system@boost@@YAXXZ 0000000140001d20 f   libboost_system-vc120-mt-1_63:error_code.obj
 0001:00000d70       ??__Ecreate_hard_link_api@?A0x22c0dbb4@@YAXXZ 0000000140001d70 f   libboost_filesystem-vc120-mt-1_63:operations.obj
 0001:00000da0       ??__Ecreate_symbolic_link_api@?A0x22c0dbb4@@YAXXZ 0000000140001da0 f   libboost_filesystem-vc120-mt-1_63:operations.obj
 0001:00000dd0       ??__Eend_dir_itr@?A0x22c0dbb4@@YAXXZ 0000000140001dd0 f   libboost_filesystem-vc120-mt-1_63:operations.obj
 0001:00000de0       ??__Enot_found_error_code@?A0x22c0dbb4@@YAXXZ 0000000140001de0 f   libboost_filesystem-vc120-mt-1_63:operations.obj
 0001:00000e00       ??__Eok@?A0x22c0dbb4@@YAXXZ 0000000140001e00 f   libboost_filesystem-vc120-mt-1_63:operations.obj
 0001:00000e18       ??__E_Fac_tidy_reg@std@@YAXXZ 0000000140001e18 f   msvcprt:locale0_implib.obj
 0001:00012b04       $LN98                      0000000140013b04     festo_udp_func.obj
 0001:00014f88       $LN97                      0000000140015f88     libboost_system-vc120-mt-1_63:error_code.obj
 0001:00014fd0       $LN96                      0000000140015fd0     libboost_system-vc120-mt-1_63:error_code.obj
 0001:000150a8       $LN95                      00000001400160a8     libboost_system-vc120-mt-1_63:error_code.obj
 0001:00015124       $LN94                      0000000140016124     libboost_system-vc120-mt-1_63:error_code.obj
 0001:0001b230       $$000000                   000000014001c230     MSVCRT:amdsecgs.obj
 0001:0001b2e0       $$000000                   000000014001c2e0     MSVCRT:chkstk.obj
 0001:0001b3fc       pre_c_init                 000000014001c3fc f   MSVCRT:crtexe.obj
 0001:0001b4cc       pre_cpp_init               000000014001c4cc f   MSVCRT:crtexe.obj
 0001:0001b530       __tmainCRTStartup          000000014001c530 f   MSVCRT:crtexe.obj
 0001:0001bad0       ?dtor$0@?0???0?$clone_impl@U?$error_info_injector@Vsystem_error@system@boost@@@exception_detail@boost@@@exception_detail@boost@@AEAA@AEBV012@Uclone_tag@012@@Z@4HA 000000014001cad0 f   main.obj
 0001:0001bafd       ?dtor$1@?0???0?$clone_impl@U?$error_info_injector@Vsystem_error@system@boost@@@exception_detail@boost@@@exception_detail@boost@@AEAA@AEBV012@Uclone_tag@012@@Z@4HA 000000014001cafd f   main.obj
 0001:0001bb10       ?dtor$0@?0???0?$clone_impl@U?$error_info_injector@Vsystem_error@system@boost@@@exception_detail@boost@@@exception_detail@boost@@QEAA@AEBU?$error_info_injector@Vsystem_error@system@boost@@@12@@Z@4HA 000000014001cb10 f   main.obj
 0001:0001bb3d       ?dtor$1@?0???0?$clone_impl@U?$error_info_injector@Vsystem_error@system@boost@@@exception_detail@boost@@@exception_detail@boost@@QEAA@AEBU?$error_info_injector@Vsystem_error@system@boost@@@12@@Z@4HA 000000014001cb3d f   main.obj
 0001:0001bb50       ?dtor$0@?0???0?$clone_impl@U?$error_info_injector@Vsystem_error@system@boost@@@exception_detail@boost@@@exception_detail@boost@@QEAA@AEBV012@@Z@4HA 000000014001cb50 f   main.obj
 0001:0001bb80       ?dtor$0@?0???0?$error_info_injector@Vsystem_error@system@boost@@@exception_detail@boost@@QEAA@AEBU012@@Z@4HA 000000014001cb80 f   main.obj
 0001:0001bb90       ?dtor$0@?0???0system_error@system@boost@@QEAA@AEBV012@@Z@4HA 000000014001cb90 f   main.obj
 0001:0001bba0       ?catch$1@?0??_Copy@?$basic_string@DU?$char_traits@D@std@@V?$allocator@D@2@@std@@QEAAX_K0@Z@4HA 000000014001cba0 f   main.obj
 0001:0001bbad       __catch$?_Copy@?$basic_string@DU?$char_traits@D@std@@V?$allocator@D@2@@std@@QEAAX_K0@Z$0 000000014001cbad f   main.obj
 0001:0001bbe4       ?catch$0@?0??_Copy@?$basic_string@DU?$char_traits@D@std@@V?$allocator@D@2@@std@@QEAAX_K0@Z@4HA 000000014001cbe4 f   main.obj
 0001:0001bbf2       __catch$?_Copy@?$basic_string@DU?$char_traits@D@std@@V?$allocator@D@2@@std@@QEAAX_K0@Z$1 000000014001cbf2 f   main.obj
 0001:0001bc30       ?dtor$0@?0??clone@?$clone_impl@U?$error_info_injector@Vsystem_error@system@boost@@@exception_detail@boost@@@exception_detail@boost@@EEBAPEBVclone_base@23@XZ@4HA 000000014001cc30 f   main.obj
 0001:0001bc40       ?dtor$0@?0??copy_boost_exception@exception_detail@boost@@YAXPEAVexception@2@PEBV32@@Z@4HA 000000014001cc40 f   main.obj
 0001:0001bc4c       ?dtor$1@?0??copy_boost_exception@exception_detail@boost@@YAXPEAVexception@2@PEBV32@@Z@4HA 000000014001cc4c f   main.obj
 0001:0001bc60       ?dtor$0@?0??rethrow@?$clone_impl@U?$error_info_injector@Vsystem_error@system@boost@@@exception_detail@boost@@@exception_detail@boost@@EEBAXXZ@4HA 000000014001cc60 f   main.obj
 0001:0001bc8d       ?dtor$4@?0??rethrow@?$clone_impl@U?$error_info_injector@Vsystem_error@system@boost@@@exception_detail@boost@@@exception_detail@boost@@EEBAXXZ@4HA 000000014001cc8d f   main.obj
 0001:0001bc99       ?dtor$2@?0??rethrow@?$clone_impl@U?$error_info_injector@Vsystem_error@system@boost@@@exception_detail@boost@@@exception_detail@boost@@EEBAXXZ@4HA 000000014001cc99 f   main.obj
 0001:0001bcb0       ?dtor$0@?0??what@system_error@system@boost@@UEBAPEBDXZ@4HA 000000014001ccb0 f   main.obj
 0001:0001bcbc       ?catch$0@?0??what@system_error@system@boost@@UEBAPEBDXZ@4HA 000000014001ccbc f   main.obj
 0001:0001bcc9       __catch$?what@system_error@system@boost@@UEBAPEBDXZ$0 000000014001ccc9 f   main.obj
 0001:0001bcf0       main$dtor$0                000000014001ccf0 f   main.obj
 0001:0001bcfe       main$dtor$1                000000014001ccfe f   main.obj
 0001:0001bd0c       main$dtor$2                000000014001cd0c f   main.obj
 0001:0001bd1a       main$dtor$3                000000014001cd1a f   main.obj
 0001:0001bd28       main$dtor$4                000000014001cd28 f   main.obj
 0001:0001bd36       main$dtor$5                000000014001cd36 f   main.obj
 0001:0001bd44       main$dtor$8                000000014001cd44 f   main.obj
 0001:0001bd52       main$dtor$9                000000014001cd52 f   main.obj
 0001:0001bd60       main$dtor$10               000000014001cd60 f   main.obj
 0001:0001bd6e       main$dtor$11               000000014001cd6e f   main.obj
 0001:0001bd80       ?dtor$0@?0???$?0Vwin_iocp_io_service@detail@asio@boost@@_K@service_registry@detail@asio@boost@@QEAA@AEAVio_service@23@PEAVwin_iocp_io_service@123@_K@Z@4HA 000000014001cd80 f   udp_func.obj
 0001:0001bd8c       ?dtor$1@?0???$?0Vwin_iocp_io_service@detail@asio@boost@@_K@service_registry@detail@asio@boost@@QEAA@AEAVio_service@23@PEAVwin_iocp_io_service@123@_K@Z@4HA 000000014001cd8c f   udp_func.obj
 0001:0001bda0       ?dtor$1@?0???$?6U?$char_traits@D@std@@@std@@YAAEAV?$basic_ostream@DU?$char_traits@D@std@@@0@AEAV10@PEBD@Z@4HA 000000014001cda0 f   udp_func.obj
 0001:0001bdac       ?dtor$0@?0???$?6U?$char_traits@D@std@@@std@@YAAEAV?$basic_ostream@DU?$char_traits@D@std@@@0@AEAV10@PEBD@Z@4HA 000000014001cdac f   udp_func.obj
 0001:0001bdb8       ?catch$0@?0???$?6U?$char_traits@D@std@@@std@@YAAEAV?$basic_ostream@DU?$char_traits@D@std@@@0@AEAV10@PEBD@Z@4HA 000000014001cdb8 f   udp_func.obj
 0001:0001bdc5       __catch$??$?6U?$char_traits@D@std@@@std@@YAAEAV?$basic_ostream@DU?$char_traits@D@std@@@0@AEAV10@PEBD@Z$0 000000014001cdc5 f   udp_func.obj
 0001:0001bdf0       ?catch$0@?0???$_Resetp@V?$vector@V?$basic_resolver_entry@Vudp@ip@asio@boost@@@ip@asio@boost@@V?$allocator@V?$basic_resolver_entry@Vudp@ip@asio@boost@@@ip@asio@boost@@@std@@@std@@@?$shared_ptr@V?$vector@V?$basic_resolver_entry@Vudp@ip@asio@boost@@@ip@asio@boost@@V?$allocator@V?$basic_resolver_entry@Vudp@ip@asio@boost@@@ip@asio@boost@@@std@@@std@@@std@@AEAAXPEAV?$vector@V?$basic_resolver_entry@Vudp@ip@asio@boost@@@ip@asio@boost@@V?$allocator@V?$basic_resolver_entry@Vudp@ip@asio@boost@@@ip@asio@boost@@@std@@@1@@Z@4HA 000000014001cdf0 f   udp_func.obj
 0001:0001bdfe       __catch$??$_Resetp@V?$vector@V?$basic_resolver_entry@Vudp@ip@asio@boost@@@ip@asio@boost@@V?$allocator@V?$basic_resolver_entry@Vudp@ip@asio@boost@@@ip@asio@boost@@@std@@@std@@@?$shared_ptr@V?$vector@V?$basic_resolver_entry@Vudp@ip@asio@boost@@@ip@asio@boost@@V?$allocator@V?$basic_resolver_entry@Vudp@ip@asio@boost@@@ip@asio@boost@@@std@@@std@@@std@@AEAAXPEAV?$vector@V?$basic_resolver_entry@Vudp@ip@asio@boost@@@ip@asio@boost@@V?$allocator@V?$basic_resolver_entry@Vudp@ip@asio@boost@@@ip@asio@boost@@@std@@@1@@Z$0 000000014001cdfe f   udp_func.obj
 0001:0001be50       ?catch$0@?0???$_Resetp@XUnoop_deleter@socket_ops@detail@asio@boost@@@?$shared_ptr@X@std@@AEAAXPEAXUnoop_deleter@socket_ops@detail@asio@boost@@@Z@4HA 000000014001ce50 f   udp_func.obj
 0001:0001be5d       __catch$??$_Resetp@XUnoop_deleter@socket_ops@detail@asio@boost@@@?$shared_ptr@X@std@@AEAAXPEAXUnoop_deleter@socket_ops@detail@asio@boost@@@Z$0 000000014001ce5d f   udp_func.obj
 0001:0001be70       ?dtor$0@?0???$_Uninit_move@PEAV?$basic_resolver_entry@Vudp@ip@asio@boost@@@ip@asio@boost@@PEAV1234@V?$allocator@V?$basic_resolver_entry@Vudp@ip@asio@boost@@@ip@asio@boost@@@std@@V1234@@std@@YAPEAV?$basic_resolver_entry@Vudp@ip@asio@boost@@@ip@asio@boost@@PEAV1234@00AEAU?$_Wrap_alloc@V?$allocator@V?$basic_resolver_entry@Vudp@ip@asio@boost@@@ip@asio@boost@@@std@@@0@0U_Nonscalar_ptr_iterator_tag@0@@Z@4HA 000000014001ce70 f   udp_func.obj
 0001:0001be8c       ?catch$0@?0???$_Uninit_move@PEAV?$basic_resolver_entry@Vudp@ip@asio@boost@@@ip@asio@boost@@PEAV1234@V?$allocator@V?$basic_resolver_entry@Vudp@ip@asio@boost@@@ip@asio@boost@@@std@@V1234@@std@@YAPEAV?$basic_resolver_entry@Vudp@ip@asio@boost@@@ip@asio@boost@@PEAV1234@00AEAU?$_Wrap_alloc@V?$allocator@V?$basic_resolver_entry@Vudp@ip@asio@boost@@@ip@asio@boost@@@std@@@0@0U_Nonscalar_ptr_iterator_tag@0@@Z@4HA 000000014001ce8c f   udp_func.obj
 0001:0001be9c       __catch$??$_Uninit_move@PEAV?$basic_resolver_entry@Vudp@ip@asio@boost@@@ip@asio@boost@@PEAV1234@V?$allocator@V?$basic_resolver_entry@Vudp@ip@asio@boost@@@ip@asio@boost@@@std@@V1234@@std@@YAPEAV?$basic_resolver_entry@Vudp@ip@asio@boost@@@ip@asio@boost@@PEAV1234@00AEAU?$_Wrap_alloc@V?$allocator@V?$basic_resolver_entry@Vudp@ip@asio@boost@@@ip@asio@boost@@@std@@@0@0U_Nonscalar_ptr_iterator_tag@0@@Z$0 000000014001ce9c f   udp_func.obj
 0001:0001bed0       ?dtor$0@?0???$create@V?$datagram_socket_service@Vudp@ip@asio@boost@@@asio@boost@@@service_registry@detail@asio@boost@@CAPEAVservice@io_service@23@AEAV523@@Z@4HA 000000014001ced0 f   udp_func.obj
 0001:0001bed0       ?dtor$0@?0???$create@V?$resolver_service@Vudp@ip@asio@boost@@@ip@asio@boost@@@service_registry@detail@asio@boost@@CAPEAVservice@io_service@23@AEAV523@@Z@4HA 000000014001ced0 f   udp_func.obj
 0001:0001bedc       ?dtor$1@?0???$create@V?$resolver_service@Vudp@ip@asio@boost@@@ip@asio@boost@@@service_registry@detail@asio@boost@@CAPEAVservice@io_service@23@AEAV523@@Z@4HA 000000014001cedc f   udp_func.obj
 0001:0001bedc       ?dtor$1@?0???$create@V?$datagram_socket_service@Vudp@ip@asio@boost@@@asio@boost@@@service_registry@detail@asio@boost@@CAPEAVservice@io_service@23@AEAV523@@Z@4HA 000000014001cedc f   udp_func.obj
 0001:0001bef0       ?dtor$0@?0???0?$basic_resolver_entry@Vudp@ip@asio@boost@@@ip@asio@boost@@QEAA@AEBV0123@@Z@4HA 000000014001cef0 f   udp_func.obj
 0001:0001bf00       ?dtor$0@?0???0io_service@asio@boost@@QEAA@XZ@4HA 000000014001cf00 f   udp_func.obj
 0001:0001bf0c       ?dtor$1@?0???0io_service@asio@boost@@QEAA@XZ@4HA 000000014001cf0c f   udp_func.obj
 0001:0001bf20       ?dtor$0@?0???0resolver_service_base@detail@asio@boost@@QEAA@AEAVio_service@23@@Z@4HA 000000014001cf20 f   udp_func.obj
 0001:0001bf30       ?dtor$1@?0???0resolver_service_base@detail@asio@boost@@QEAA@AEAVio_service@23@@Z@4HA 000000014001cf30 f   udp_func.obj
 0001:0001bf3c       ?dtor$2@?0???0resolver_service_base@detail@asio@boost@@QEAA@AEAVio_service@23@@Z@4HA 000000014001cf3c f   udp_func.obj
 0001:0001bf50       ?dtor$0@?0???0win_iocp_io_service@detail@asio@boost@@QEAA@AEAVio_service@23@_K@Z@4HA 000000014001cf50 f   udp_func.obj
 0001:0001bf5c       ?dtor$1@?0???0win_iocp_io_service@detail@asio@boost@@QEAA@AEAVio_service@23@_K@Z@4HA 000000014001cf5c f   udp_func.obj
 0001:0001bf6c       ?dtor$2@?0???0win_iocp_io_service@detail@asio@boost@@QEAA@AEAVio_service@23@_K@Z@4HA 000000014001cf6c f   udp_func.obj
 0001:0001bf7c       ?dtor$3@?0???0win_iocp_io_service@detail@asio@boost@@QEAA@AEAVio_service@23@_K@Z@4HA 000000014001cf7c f   udp_func.obj
 0001:0001bf8c       ?dtor$4@?0???0win_iocp_io_service@detail@asio@boost@@QEAA@AEAVio_service@23@_K@Z@4HA 000000014001cf8c f   udp_func.obj
 0001:0001bf9c       ?dtor$5@?0???0win_iocp_io_service@detail@asio@boost@@QEAA@AEAVio_service@23@_K@Z@4HA 000000014001cf9c f   udp_func.obj
 0001:0001bfb0       ?dtor$2@?0???1?$basic_datagram_socket@Vudp@ip@asio@boost@@V?$datagram_socket_service@Vudp@ip@asio@boost@@@34@@asio@boost@@QEAA@XZ@4HA 000000014001cfb0 f   udp_func.obj
 0001:0001bfc0       ?dtor$0@?0???1?$basic_io_object@V?$resolver_service@Vudp@ip@asio@boost@@@ip@asio@boost@@$0A@@asio@boost@@IEAA@XZ@4HA 000000014001cfc0 f   udp_func.obj
 0001:0001bfd0       ?dtor$0@?0???1resolver_service_base@detail@asio@boost@@QEAA@XZ@4HA 000000014001cfd0 f   udp_func.obj
 0001:0001bfe0       ?dtor$1@?0???1resolver_service_base@detail@asio@boost@@QEAA@XZ@4HA 000000014001cfe0 f   udp_func.obj
 0001:0001bff0       ?dtor$2@?0???1resolver_service_base@detail@asio@boost@@QEAA@XZ@4HA 000000014001cff0 f   udp_func.obj
 0001:0001c000       ?dtor$3@?0???1resolver_service_base@detail@asio@boost@@QEAA@XZ@4HA 000000014001d000 f   udp_func.obj
 0001:0001c010       ?dtor$4@?0???1resolver_service_base@detail@asio@boost@@QEAA@XZ@4HA 000000014001d010 f   udp_func.obj
 0001:0001c020       ?dtor$0@?0???1service_registry@detail@asio@boost@@QEAA@XZ@4HA 000000014001d020 f   udp_func.obj
 0001:0001c030       ?dtor$0@?0???1win_iocp_io_service@detail@asio@boost@@UEAA@XZ@4HA 000000014001d030 f   udp_func.obj
 0001:0001c03c       ?dtor$1@?0???1win_iocp_io_service@detail@asio@boost@@UEAA@XZ@4HA 000000014001d03c f   udp_func.obj
 0001:0001c04c       ?dtor$2@?0???1win_iocp_io_service@detail@asio@boost@@UEAA@XZ@4HA 000000014001d04c f   udp_func.obj
 0001:0001c05c       ?dtor$3@?0???1win_iocp_io_service@detail@asio@boost@@UEAA@XZ@4HA 000000014001d05c f   udp_func.obj
 0001:0001c06c       ?dtor$4@?0???1win_iocp_io_service@detail@asio@boost@@UEAA@XZ@4HA 000000014001d06c f   udp_func.obj
 0001:0001c080       ?dtor$0@?0???_G?$resolver_service@Vudp@ip@asio@boost@@@ip@asio@boost@@UEAAPEAXI@Z@4HA 000000014001d080 f   udp_func.obj
 0001:0001c090       ?dtor$0@?0??LuxorSendTriggerWaitResponse@@YA?AW4eUdpStatus@@V?$basic_string@DU?$char_traits@D@std@@V?$allocator@D@2@@std@@0@Z@4HA 000000014001d090 f   udp_func.obj
 0001:0001c09c       ?dtor$1@?0??LuxorSendTriggerWaitResponse@@YA?AW4eUdpStatus@@V?$basic_string@DU?$char_traits@D@std@@V?$allocator@D@2@@std@@0@Z@4HA 000000014001d09c f   udp_func.obj
 0001:0001c0a8       ?dtor$2@?0??LuxorSendTriggerWaitResponse@@YA?AW4eUdpStatus@@V?$basic_string@DU?$char_traits@D@std@@V?$allocator@D@2@@std@@0@Z@4HA 000000014001d0a8 f   udp_func.obj
 0001:0001c0b4       ?dtor$9@?0??LuxorSendTriggerWaitResponse@@YA?AW4eUdpStatus@@V?$basic_string@DU?$char_traits@D@std@@V?$allocator@D@2@@std@@0@Z@4HA 000000014001d0b4 f   udp_func.obj
 0001:0001c0c4       ?dtor$3@?0??LuxorSendTriggerWaitResponse@@YA?AW4eUdpStatus@@V?$basic_string@DU?$char_traits@D@std@@V?$allocator@D@2@@std@@0@Z@4HA 000000014001d0c4 f   udp_func.obj
 0001:0001c0d0       ?dtor$10@?0??LuxorSendTriggerWaitResponse@@YA?AW4eUdpStatus@@V?$basic_string@DU?$char_traits@D@std@@V?$allocator@D@2@@std@@0@Z@4HA 000000014001d0d0 f   udp_func.obj
 0001:0001c0e0       ?dtor$4@?0??LuxorSendTriggerWaitResponse@@YA?AW4eUdpStatus@@V?$basic_string@DU?$char_traits@D@std@@V?$allocator@D@2@@std@@0@Z@4HA 000000014001d0e0 f   udp_func.obj
 0001:0001c0ec       ?dtor$14@?0??LuxorSendTriggerWaitResponse@@YA?AW4eUdpStatus@@V?$basic_string@DU?$char_traits@D@std@@V?$allocator@D@2@@std@@0@Z@4HA 000000014001d0ec f   udp_func.obj
 0001:0001c0f8       ?dtor$6@?0??LuxorSendTriggerWaitResponse@@YA?AW4eUdpStatus@@V?$basic_string@DU?$char_traits@D@std@@V?$allocator@D@2@@std@@0@Z@4HA 000000014001d0f8 f   udp_func.obj
 0001:0001c104       ?dtor$7@?0??LuxorSendTriggerWaitResponse@@YA?AW4eUdpStatus@@V?$basic_string@DU?$char_traits@D@std@@V?$allocator@D@2@@std@@0@Z@4HA 000000014001d104 f   udp_func.obj
 0001:0001c110       ?dtor$20@?0??LuxorSendTriggerWaitResponse@@YA?AW4eUdpStatus@@V?$basic_string@DU?$char_traits@D@std@@V?$allocator@D@2@@std@@0@Z@4HA 000000014001d110 f   udp_func.obj
 0001:0001c11c       ?dtor$22@?0??LuxorSendTriggerWaitResponse@@YA?AW4eUdpStatus@@V?$basic_string@DU?$char_traits@D@std@@V?$allocator@D@2@@std@@0@Z@4HA 000000014001d11c f   udp_func.obj
 0001:0001c12c       ?dtor$23@?0??LuxorSendTriggerWaitResponse@@YA?AW4eUdpStatus@@V?$basic_string@DU?$char_traits@D@std@@V?$allocator@D@2@@std@@0@Z@4HA 000000014001d12c f   udp_func.obj
 0001:0001c138       ?catch$0@?0??LuxorSendTriggerWaitResponse@@YA?AW4eUdpStatus@@V?$basic_string@DU?$char_traits@D@std@@V?$allocator@D@2@@std@@0@Z@4HA 000000014001d138 f   udp_func.obj
 0001:0001c145       __catch$?LuxorSendTriggerWaitResponse@@YA?AW4eUdpStatus@@V?$basic_string@DU?$char_traits@D@std@@V?$allocator@D@2@@std@@0@Z$0 000000014001d145 f   udp_func.obj
 0001:0001c180       ?dtor$0@?0??LuxorStatusOK@@YA_NV?$basic_string@DU?$char_traits@D@std@@V?$allocator@D@2@@std@@0@Z@4HA 000000014001d180 f   udp_func.obj
 0001:0001c18c       ?dtor$1@?0??LuxorStatusOK@@YA_NV?$basic_string@DU?$char_traits@D@std@@V?$allocator@D@2@@std@@0@Z@4HA 000000014001d18c f   udp_func.obj
 0001:0001c198       ?dtor$2@?0??LuxorStatusOK@@YA_NV?$basic_string@DU?$char_traits@D@std@@V?$allocator@D@2@@std@@0@Z@4HA 000000014001d198 f   udp_func.obj
 0001:0001c1a4       ?dtor$8@?0??LuxorStatusOK@@YA_NV?$basic_string@DU?$char_traits@D@std@@V?$allocator@D@2@@std@@0@Z@4HA 000000014001d1a4 f   udp_func.obj
 0001:0001c1b4       ?dtor$3@?0??LuxorStatusOK@@YA_NV?$basic_string@DU?$char_traits@D@std@@V?$allocator@D@2@@std@@0@Z@4HA 000000014001d1b4 f   udp_func.obj
 0001:0001c1c0       ?dtor$9@?0??LuxorStatusOK@@YA_NV?$basic_string@DU?$char_traits@D@std@@V?$allocator@D@2@@std@@0@Z@4HA 000000014001d1c0 f   udp_func.obj
 0001:0001c1d0       ?dtor$4@?0??LuxorStatusOK@@YA_NV?$basic_string@DU?$char_traits@D@std@@V?$allocator@D@2@@std@@0@Z@4HA 000000014001d1d0 f   udp_func.obj
 0001:0001c1dc       ?dtor$13@?0??LuxorStatusOK@@YA_NV?$basic_string@DU?$char_traits@D@std@@V?$allocator@D@2@@std@@0@Z@4HA 000000014001d1dc f   udp_func.obj
 0001:0001c1e8       ?dtor$6@?0??LuxorStatusOK@@YA_NV?$basic_string@DU?$char_traits@D@std@@V?$allocator@D@2@@std@@0@Z@4HA 000000014001d1e8 f   udp_func.obj
 0001:0001c1f4       ?dtor$17@?0??LuxorStatusOK@@YA_NV?$basic_string@DU?$char_traits@D@std@@V?$allocator@D@2@@std@@0@Z@4HA 000000014001d1f4 f   udp_func.obj
 0001:0001c200       ?dtor$19@?0??LuxorStatusOK@@YA_NV?$basic_string@DU?$char_traits@D@std@@V?$allocator@D@2@@std@@0@Z@4HA 000000014001d200 f   udp_func.obj
 0001:0001c210       ?dtor$20@?0??LuxorStatusOK@@YA_NV?$basic_string@DU?$char_traits@D@std@@V?$allocator@D@2@@std@@0@Z@4HA 000000014001d210 f   udp_func.obj
 0001:0001c21c       ?dtor$23@?0??LuxorStatusOK@@YA_NV?$basic_string@DU?$char_traits@D@std@@V?$allocator@D@2@@std@@0@Z@4HA 000000014001d21c f   udp_func.obj
 0001:0001c228       ?dtor$25@?0??LuxorStatusOK@@YA_NV?$basic_string@DU?$char_traits@D@std@@V?$allocator@D@2@@std@@0@Z@4HA 000000014001d228 f   udp_func.obj
 0001:0001c238       ?dtor$26@?0??LuxorStatusOK@@YA_NV?$basic_string@DU?$char_traits@D@std@@V?$allocator@D@2@@std@@0@Z@4HA 000000014001d238 f   udp_func.obj
 0001:0001c244       ?catch$0@?0??LuxorStatusOK@@YA_NV?$basic_string@DU?$char_traits@D@std@@V?$allocator@D@2@@std@@0@Z@4HA 000000014001d244 f   udp_func.obj
 0001:0001c251       __catch$?LuxorStatusOK@@YA_NV?$basic_string@DU?$char_traits@D@std@@V?$allocator@D@2@@std@@0@Z$0 000000014001d251 f   udp_func.obj
 0001:0001c290       ?dtor$0@?0??LuxorTrigger6DPose@@YA?AW4eUdpStatus@@AEAV?$array@M$05@std@@V?$basic_string@DU?$char_traits@D@std@@V?$allocator@D@2@@3@1@Z@4HA 000000014001d290 f   udp_func.obj
 0001:0001c29c       ?dtor$1@?0??LuxorTrigger6DPose@@YA?AW4eUdpStatus@@AEAV?$array@M$05@std@@V?$basic_string@DU?$char_traits@D@std@@V?$allocator@D@2@@3@1@Z@4HA 000000014001d29c f   udp_func.obj
 0001:0001c2a8       ?dtor$2@?0??LuxorTrigger6DPose@@YA?AW4eUdpStatus@@AEAV?$array@M$05@std@@V?$basic_string@DU?$char_traits@D@std@@V?$allocator@D@2@@3@1@Z@4HA 000000014001d2a8 f   udp_func.obj
 0001:0001c2b4       ?dtor$9@?0??LuxorTrigger6DPose@@YA?AW4eUdpStatus@@AEAV?$array@M$05@std@@V?$basic_string@DU?$char_traits@D@std@@V?$allocator@D@2@@3@1@Z@4HA 000000014001d2b4 f   udp_func.obj
 0001:0001c2c4       ?dtor$3@?0??LuxorTrigger6DPose@@YA?AW4eUdpStatus@@AEAV?$array@M$05@std@@V?$basic_string@DU?$char_traits@D@std@@V?$allocator@D@2@@3@1@Z@4HA 000000014001d2c4 f   udp_func.obj
 0001:0001c2d0       ?dtor$10@?0??LuxorTrigger6DPose@@YA?AW4eUdpStatus@@AEAV?$array@M$05@std@@V?$basic_string@DU?$char_traits@D@std@@V?$allocator@D@2@@3@1@Z@4HA 000000014001d2d0 f   udp_func.obj
 0001:0001c2e0       ?dtor$4@?0??LuxorTrigger6DPose@@YA?AW4eUdpStatus@@AEAV?$array@M$05@std@@V?$basic_string@DU?$char_traits@D@std@@V?$allocator@D@2@@3@1@Z@4HA 000000014001d2e0 f   udp_func.obj
 0001:0001c2ec       ?dtor$14@?0??LuxorTrigger6DPose@@YA?AW4eUdpStatus@@AEAV?$array@M$05@std@@V?$basic_string@DU?$char_traits@D@std@@V?$allocator@D@2@@3@1@Z@4HA 000000014001d2ec f   udp_func.obj
 0001:0001c2f8       ?dtor$6@?0??LuxorTrigger6DPose@@YA?AW4eUdpStatus@@AEAV?$array@M$05@std@@V?$basic_string@DU?$char_traits@D@std@@V?$allocator@D@2@@3@1@Z@4HA 000000014001d2f8 f   udp_func.obj
 0001:0001c304       ?dtor$7@?0??LuxorTrigger6DPose@@YA?AW4eUdpStatus@@AEAV?$array@M$05@std@@V?$basic_string@DU?$char_traits@D@std@@V?$allocator@D@2@@3@1@Z@4HA 000000014001d304 f   udp_func.obj
 0001:0001c310       ?dtor$20@?0??LuxorTrigger6DPose@@YA?AW4eUdpStatus@@AEAV?$array@M$05@std@@V?$basic_string@DU?$char_traits@D@std@@V?$allocator@D@2@@3@1@Z@4HA 000000014001d310 f   udp_func.obj
 0001:0001c31c       ?dtor$22@?0??LuxorTrigger6DPose@@YA?AW4eUdpStatus@@AEAV?$array@M$05@std@@V?$basic_string@DU?$char_traits@D@std@@V?$allocator@D@2@@3@1@Z@4HA 000000014001d31c f   udp_func.obj
 0001:0001c32c       ?dtor$23@?0??LuxorTrigger6DPose@@YA?AW4eUdpStatus@@AEAV?$array@M$05@std@@V?$basic_string@DU?$char_traits@D@std@@V?$allocator@D@2@@3@1@Z@4HA 000000014001d32c f   udp_func.obj
 0001:0001c338       ?catch$0@?0??LuxorTrigger6DPose@@YA?AW4eUdpStatus@@AEAV?$array@M$05@std@@V?$basic_string@DU?$char_traits@D@std@@V?$allocator@D@2@@3@1@Z@4HA 000000014001d338 f   udp_func.obj
 0001:0001c345       __catch$?LuxorTrigger6DPose@@YA?AW4eUdpStatus@@AEAV?$array@M$05@std@@V?$basic_string@DU?$char_traits@D@std@@V?$allocator@D@2@@3@1@Z$0 000000014001d345 f   udp_func.obj
 0001:0001c380       ?catch$0@?0??_Reallocate@?$vector@V?$basic_resolver_entry@Vudp@ip@asio@boost@@@ip@asio@boost@@V?$allocator@V?$basic_resolver_entry@Vudp@ip@asio@boost@@@ip@asio@boost@@@std@@@std@@IEAAX_K@Z@4HA 000000014001d380 f   udp_func.obj
 0001:0001c38d       __catch$?_Reallocate@?$vector@V?$basic_resolver_entry@Vudp@ip@asio@boost@@@ip@asio@boost@@V?$allocator@V?$basic_resolver_entry@Vudp@ip@asio@boost@@@ip@asio@boost@@@std@@@std@@IEAAX_K@Z$0 000000014001d38d f   udp_func.obj
 0001:0001c3a0       ?dtor$0@?0??cancel_ops_unlocked@select_reactor@detail@asio@boost@@AEAAX_KAEBVerror_code@system@4@@Z@4HA 000000014001d3a0 f   udp_func.obj
 0001:0001c3a0       ?dtor$0@?0??shutdown_service@win_iocp_io_service@detail@asio@boost@@UEAAXXZ@4HA 000000014001d3a0 f   udp_func.obj
 0001:0001c3b0       ?dtor$0@?0??create@?$basic_resolver_iterator@Vudp@ip@asio@boost@@@ip@asio@boost@@SA?AV1234@PEAUaddrinfo@@AEBV?$basic_string@DU?$char_traits@D@std@@V?$allocator@D@2@@std@@1@Z@4HA 000000014001d3b0 f   udp_func.obj
 0001:0001c3bc       ?dtor$2@?0??create@?$basic_resolver_iterator@Vudp@ip@asio@boost@@@ip@asio@boost@@SA?AV1234@PEAUaddrinfo@@AEBV?$basic_string@DU?$char_traits@D@std@@V?$allocator@D@2@@std@@1@Z@4HA 000000014001d3bc f   udp_func.obj
 0001:0001c3c8       ?dtor$6@?0??create@?$basic_resolver_iterator@Vudp@ip@asio@boost@@@ip@asio@boost@@SA?AV1234@PEAUaddrinfo@@AEBV?$basic_string@DU?$char_traits@D@std@@V?$allocator@D@2@@std@@1@Z@4HA 000000014001d3c8 f   udp_func.obj
 0001:0001c3d8       ?dtor$4@?0??create@?$basic_resolver_iterator@Vudp@ip@asio@boost@@@ip@asio@boost@@SA?AV1234@PEAUaddrinfo@@AEBV?$basic_string@DU?$char_traits@D@std@@V?$allocator@D@2@@std@@1@Z@4HA 000000014001d3d8 f   udp_func.obj
 0001:0001c3f0       ?dtor$0@?0??deregister_descriptor@select_reactor@detail@asio@boost@@QEAAX_KAEAUper_descriptor_data@1234@_N@Z@4HA 000000014001d3f0 f   udp_func.obj
 0001:0001c400       ?filt$0@?0??do_init@win_mutex@detail@asio@boost@@AEAAHXZ@4HA 000000014001d400 f   udp_func.obj
 0001:0001c420       ?dtor$0@?0??do_one@win_iocp_io_service@detail@asio@boost@@AEAA_K_NAEAVerror_code@system@4@@Z@4HA 000000014001d420 f   udp_func.obj
 0001:0001c42c       ?dtor$1@?0??do_one@win_iocp_io_service@detail@asio@boost@@AEAA_K_NAEAVerror_code@system@4@@Z@4HA 000000014001d42c f   udp_func.obj
 0001:0001c438       ?dtor$2@?0??do_one@win_iocp_io_service@detail@asio@boost@@AEAA_K_NAEAVerror_code@system@4@@Z@4HA 000000014001d438 f   udp_func.obj
 0001:0001c450       ?dtor$0@?0??do_open@win_iocp_socket_service_base@detail@asio@boost@@IEAA?AVerror_code@system@4@AEAUbase_implementation_type@1234@HHHAEAV564@@Z@4HA 000000014001d450 f   udp_func.obj
 0001:0001c460       ?dtor$0@?0??do_throw_error@detail@asio@boost@@YAXAEBVerror_code@system@3@PEBD@Z@4HA 000000014001d460 f   udp_func.obj
 0001:0001c460       ?dtor$0@?0??do_throw_error@detail@asio@boost@@YAXAEBVerror_code@system@3@@Z@4HA 000000014001d460 f   udp_func.obj
 0001:0001c46c       ?dtor$4@?0??do_throw_error@detail@asio@boost@@YAXAEBVerror_code@system@3@PEBD@Z@4HA 000000014001d46c f   udp_func.obj
 0001:0001c46c       ?dtor$4@?0??do_throw_error@detail@asio@boost@@YAXAEBVerror_code@system@3@@Z@4HA 000000014001d46c f   udp_func.obj
 0001:0001c480       ?dtor$0@?0??do_use_service@service_registry@detail@asio@boost@@AEAAPEAVservice@io_service@34@AEBUkey@5634@P6APEAV5634@AEAV634@@Z@Z@4HA 000000014001d480 f   udp_func.obj
 0001:0001c48c       ?dtor$1@?0??do_use_service@service_registry@detail@asio@boost@@AEAAPEAVservice@io_service@34@AEBUkey@5634@P6APEAV5634@AEAV634@@Z@Z@4HA 000000014001d48c f   udp_func.obj
 0001:0001c4a0       ?dtor$0@?0??fork_service@resolver_service_base@detail@asio@boost@@QEAAXW4fork_event@io_service@34@@Z@4HA 000000014001d4a0 f   udp_func.obj
 0001:0001c4b0       ?dtor$0@?0???1?$scoped_ptr@Vio_service@asio@boost@@@detail@asio@boost@@QEAA@XZ@4HA 000000014001d4b0 f   udp_func.obj
 0001:0001c4b0       ?dtor$0@?0??reset@?$scoped_ptr@Vio_service@asio@boost@@@detail@asio@boost@@QEAAXPEAVio_service@34@@Z@4HA 000000014001d4b0 f   udp_func.obj
 0001:0001c4b0       ?dtor$0@?0???1io_service@asio@boost@@QEAA@XZ@4HA 000000014001d4b0 f   udp_func.obj
 0001:0001c4c0       ?dtor$0@?0??resolve@?$basic_resolver@Vudp@ip@asio@boost@@V?$resolver_service@Vudp@ip@asio@boost@@@234@@ip@asio@boost@@QEAA?AV?$basic_resolver_iterator@Vudp@ip@asio@boost@@@234@AEBV?$basic_resolver_query@Vudp@ip@asio@boost@@@234@@Z@4HA 000000014001d4c0 f   udp_func.obj
 0001:0001c4f0       ?dtor$0@?0??resolve@?$resolver_service@Vudp@ip@asio@boost@@@detail@asio@boost@@QEAA?AV?$basic_resolver_iterator@Vudp@ip@asio@boost@@@ip@34@AEAV?$shared_ptr@X@std@@AEBV?$basic_resolver_query@Vudp@ip@asio@boost@@@634@AEAVerror_code@system@4@@Z@4HA 000000014001d4f0 f   udp_func.obj
 0001:0001c4fc       ?dtor$1@?0??resolve@?$resolver_service@Vudp@ip@asio@boost@@@detail@asio@boost@@QEAA?AV?$basic_resolver_iterator@Vudp@ip@asio@boost@@@ip@34@AEAV?$shared_ptr@X@std@@AEBV?$basic_resolver_query@Vudp@ip@asio@boost@@@634@AEAVerror_code@system@4@@Z@4HA 000000014001d4fc f   udp_func.obj
 0001:0001c508       ?dtor$2@?0??resolve@?$resolver_service@Vudp@ip@asio@boost@@@detail@asio@boost@@QEAA?AV?$basic_resolver_iterator@Vudp@ip@asio@boost@@@ip@34@AEAV?$shared_ptr@X@std@@AEBV?$basic_resolver_query@Vudp@ip@asio@boost@@@634@AEAVerror_code@system@4@@Z@4HA 000000014001d508 f   udp_func.obj
 0001:0001c514       ?dtor$3@?0??resolve@?$resolver_service@Vudp@ip@asio@boost@@@detail@asio@boost@@QEAA?AV?$basic_resolver_iterator@Vudp@ip@asio@boost@@@ip@34@AEAV?$shared_ptr@X@std@@AEBV?$basic_resolver_query@Vudp@ip@asio@boost@@@634@AEAVerror_code@system@4@@Z@4HA 000000014001d514 f   udp_func.obj
 0001:0001c53a       ?dtor$4@?0??resolve@?$resolver_service@Vudp@ip@asio@boost@@@detail@asio@boost@@QEAA?AV?$basic_resolver_iterator@Vudp@ip@asio@boost@@@ip@34@AEAV?$shared_ptr@X@std@@AEBV?$basic_resolver_query@Vudp@ip@asio@boost@@@634@AEAVerror_code@system@4@@Z@4HA 000000014001d53a f   udp_func.obj
 0001:0001c563       ?dtor$5@?0??resolve@?$resolver_service@Vudp@ip@asio@boost@@@detail@asio@boost@@QEAA?AV?$basic_resolver_iterator@Vudp@ip@asio@boost@@@ip@34@AEAV?$shared_ptr@X@std@@AEBV?$basic_resolver_query@Vudp@ip@asio@boost@@@634@AEAVerror_code@system@4@@Z@4HA 000000014001d563 f   udp_func.obj
 0001:0001c590       ?dtor$0@?0??run@win_iocp_io_service@detail@asio@boost@@QEAA_KAEAVerror_code@system@4@@Z@4HA 000000014001d590 f   udp_func.obj
 0001:0001c59c       ?dtor$1@?0??run@win_iocp_io_service@detail@asio@boost@@QEAA_KAEAVerror_code@system@4@@Z@4HA 000000014001d59c f   udp_func.obj
 0001:0001c5b0       ?dtor$0@?0??shutdown_service@win_iocp_socket_service_base@detail@asio@boost@@QEAAXXZ@4HA 000000014001d5b0 f   udp_func.obj
 0001:0001c5bc       ?dtor$1@?0??shutdown_service@win_iocp_socket_service_base@detail@asio@boost@@QEAAXXZ@4HA 000000014001d5bc f   udp_func.obj
 0001:0001c5d0       ?dtor$0@?0??win_thread_function@detail@asio@boost@@YAIPEAX@Z@4HA 000000014001d5d0 f   udp_func.obj
 0001:0001c5e0       ?dtor$0@?0???$?0$$BY0N@$$CBD@path@filesystem@boost@@QEAA@AEAY0N@$$CBDPEAX@Z@4HA 000000014001d5e0 f   processply.obj
 0001:0001c5ec       ?dtor$1@?0???$?0$$BY0N@$$CBD@path@filesystem@boost@@QEAA@AEAY0N@$$CBDPEAX@Z@4HA 000000014001d5ec f   processply.obj
 0001:0001c600       ?catch$0@?0???$?0Udir_itr_imp@detail@filesystem@boost@@@shared_count@detail@boost@@QEAA@PEAUdir_itr_imp@1filesystem@2@@Z@4HA 000000014001d600 f   processply.obj
 0001:0001c60d       __catch$??$?0Udir_itr_imp@detail@filesystem@boost@@@shared_count@detail@boost@@QEAA@PEAUdir_itr_imp@1filesystem@2@@Z$0 000000014001d60d f   processply.obj
 0001:0001c620       ?catch$0@?0???$?0V?$PointCloud@UPointXYZRGB@pcl@@@pcl@@@shared_count@detail@boost@@QEAA@PEAV?$PointCloud@UPointXYZRGB@pcl@@@pcl@@@Z@4HA 000000014001d620 f   processply.obj
 0001:0001c62d       __catch$??$?0V?$PointCloud@UPointXYZRGB@pcl@@@pcl@@@shared_count@detail@boost@@QEAA@PEAV?$PointCloud@UPointXYZRGB@pcl@@@pcl@@@Z$0 000000014001d62d f   processply.obj
 0001:0001c650       ?catch$0@?0???$?0V?$clone_impl@Ubad_alloc_@exception_detail@boost@@@exception_detail@boost@@@shared_count@detail@boost@@QEAA@PEAV?$clone_impl@Ubad_alloc_@exception_detail@boost@@@exception_detail@2@@Z@4HA 000000014001d650 f   processply.obj
 0001:0001c65d       __catch$??$?0V?$clone_impl@Ubad_alloc_@exception_detail@boost@@@exception_detail@boost@@@shared_count@detail@boost@@QEAA@PEAV?$clone_impl@Ubad_alloc_@exception_detail@boost@@@exception_detail@2@@Z$0 000000014001d65d f   processply.obj
 0001:0001c680       ?catch$0@?0???$?0V?$clone_impl@Ubad_exception_@exception_detail@boost@@@exception_detail@boost@@@shared_count@detail@boost@@QEAA@PEAV?$clone_impl@Ubad_exception_@exception_detail@boost@@@exception_detail@2@@Z@4HA 000000014001d680 f   processply.obj
 0001:0001c68d       __catch$??$?0V?$clone_impl@Ubad_exception_@exception_detail@boost@@@exception_detail@boost@@@shared_count@detail@boost@@QEAA@PEAV?$clone_impl@Ubad_exception_@exception_detail@boost@@@exception_detail@2@@Z$0 000000014001d68d f   processply.obj
 0001:0001c6b0       ?catch$0@?0???$?0V?$vector@HV?$allocator@H@std@@@std@@@shared_count@detail@boost@@QEAA@PEAV?$vector@HV?$allocator@H@std@@@std@@@Z@4HA 000000014001d6b0 f   processply.obj
 0001:0001c6bd       __catch$??$?0V?$vector@HV?$allocator@H@std@@@std@@@shared_count@detail@boost@@QEAA@PEAV?$vector@HV?$allocator@H@std@@@std@@@Z$0 000000014001d6bd f   processply.obj
 0001:0001c6d0       ?dtor$0@?0???$?0Vdirectory_iterator@filesystem@boost@@@?$iterator_range@Vdirectory_iterator@filesystem@boost@@@boost@@QEAA@Vdirectory_iterator@filesystem@1@0@Z@4HA 000000014001d6d0 f   processply.obj
 0001:0001c6dc       ?dtor$1@?0???$?0Vdirectory_iterator@filesystem@boost@@@?$iterator_range@Vdirectory_iterator@filesystem@boost@@@boost@@QEAA@Vdirectory_iterator@filesystem@1@0@Z@4HA 000000014001d6dc f   processply.obj
 0001:0001c6f0       ?dtor$0@?0???$?0Vdirectory_iterator@filesystem@boost@@@?$iterator_range_base@Vdirectory_iterator@filesystem@boost@@Uincrementable_traversal_tag@iterators@3@@iterator_range_detail@boost@@IEAA@Vdirectory_iterator@filesystem@2@0@Z@4HA 000000014001d6f0 f   processply.obj
 0001:0001c700       ?dtor$1@?0???$?6DU?$char_traits@D@std@@V?$allocator@D@1@@std@@YAAEAV?$basic_ostream@DU?$char_traits@D@std@@@0@AEAV10@AEBV?$basic_string@DU?$char_traits@D@std@@V?$allocator@D@2@@0@@Z@4HA 000000014001d700 f   processply.obj
 0001:0001c70c       ?dtor$0@?0???$?6DU?$char_traits@D@std@@V?$allocator@D@1@@std@@YAAEAV?$basic_ostream@DU?$char_traits@D@std@@@0@AEAV10@AEBV?$basic_string@DU?$char_traits@D@std@@V?$allocator@D@2@@0@@Z@4HA 000000014001d70c f   processply.obj
 0001:0001c718       ?catch$0@?0???$?6DU?$char_traits@D@std@@V?$allocator@D@1@@std@@YAAEAV?$basic_ostream@DU?$char_traits@D@std@@@0@AEAV10@AEBV?$basic_string@DU?$char_traits@D@std@@V?$allocator@D@2@@0@@Z@4HA 000000014001d718 f   processply.obj
 0001:0001c725       __catch$??$?6DU?$char_traits@D@std@@V?$allocator@D@1@@std@@YAAEAV?$basic_ostream@DU?$char_traits@D@std@@@0@AEAV10@AEBV?$basic_string@DU?$char_traits@D@std@@V?$allocator@D@2@@0@@Z$0 000000014001d725 f   processply.obj
 0001:0001c750       ?dtor$1@?0???$?6U?$char_traits@D@std@@@std@@YAAEAV?$basic_ostream@DU?$char_traits@D@std@@@0@AEAV10@D@Z@4HA 000000014001d750 f   processply.obj
 0001:0001c75c       ?dtor$0@?0???$?6U?$char_traits@D@std@@@std@@YAAEAV?$basic_ostream@DU?$char_traits@D@std@@@0@AEAV10@D@Z@4HA 000000014001d75c f   processply.obj
 0001:0001c768       ?catch$0@?0???$?6U?$char_traits@D@std@@@std@@YAAEAV?$basic_ostream@DU?$char_traits@D@std@@@0@AEAV10@D@Z@4HA 000000014001d768 f   processply.obj
 0001:0001c775       __catch$??$?6U?$char_traits@D@std@@@std@@YAAEAV?$basic_ostream@DU?$char_traits@D@std@@@0@AEAV10@D@Z$0 000000014001d775 f   processply.obj
 0001:0001c7a0       ?dtor$0@?0???$?RUy@fields@pcl@@@?$FieldAdder@UPointXYZRGB@pcl@@@detail@pcl@@QEAAXXZ@4HA 000000014001d7a0 f   processply.obj
 0001:0001c7a0       ?dtor$0@?0???$?RUz@fields@pcl@@@?$FieldAdder@UPointXYZRGB@pcl@@@detail@pcl@@QEAAXXZ@4HA 000000014001d7a0 f   processply.obj
 0001:0001c7a0       ?dtor$0@?0???$?RUx@fields@pcl@@@?$FieldAdder@UPointXYZRGB@pcl@@@detail@pcl@@QEAAXXZ@4HA 000000014001d7a0 f   processply.obj
 0001:0001c7a0       ?dtor$0@?0???$?6DU?$char_traits@D@std@@@filesystem@boost@@YAAEAV?$basic_ostream@DU?$char_traits@D@std@@@std@@AEAV23@AEBVpath@01@@Z@4HA 000000014001d7a0 f   processply.obj
 0001:0001c7a0       ?dtor$0@?0???$?RUrgb@fields@pcl@@@?$FieldAdder@UPointXYZRGB@pcl@@@detail@pcl@@QEAAXXZ@4HA 000000014001d7a0 f   processply.obj
 0001:0001c7b0       ?catch$0@?0???$_Uninit_copy@PEAUPointXYZRGB@pcl@@PEAU12@V?$aligned_allocator@UPointXYZRGB@pcl@@@Eigen@@@std@@YAPEAUPointXYZRGB@pcl@@PEAU12@00AEAU?$_Wrap_alloc@V?$aligned_allocator@UPointXYZRGB@pcl@@@Eigen@@@0@U_Nonscalar_ptr_iterator_tag@0@@Z@4HA 000000014001d7b0 f   processply.obj
 0001:0001c7bd       __catch$??$_Uninit_copy@PEAUPointXYZRGB@pcl@@PEAU12@V?$aligned_allocator@UPointXYZRGB@pcl@@@Eigen@@@std@@YAPEAUPointXYZRGB@pcl@@PEAU12@00AEAU?$_Wrap_alloc@V?$aligned_allocator@UPointXYZRGB@pcl@@@Eigen@@@0@U_Nonscalar_ptr_iterator_tag@0@@Z$0 000000014001d7bd f   processply.obj
 0001:0001c7d0       ?catch$0@?0???$_Uninit_def_fill_n@PEAUPointXYZRGB@pcl@@_KV?$aligned_allocator@UPointXYZRGB@pcl@@@Eigen@@U12@@std@@YAXPEAUPointXYZRGB@pcl@@_KAEAU?$_Wrap_alloc@V?$aligned_allocator@UPointXYZRGB@pcl@@@Eigen@@@0@0U_Nonscalar_ptr_iterator_tag@0@@Z@4HA 000000014001d7d0 f   processply.obj
 0001:0001c7dd       __catch$??$_Uninit_def_fill_n@PEAUPointXYZRGB@pcl@@_KV?$aligned_allocator@UPointXYZRGB@pcl@@@Eigen@@U12@@std@@YAXPEAUPointXYZRGB@pcl@@_KAEAU?$_Wrap_alloc@V?$aligned_allocator@UPointXYZRGB@pcl@@@Eigen@@@0@0U_Nonscalar_ptr_iterator_tag@0@@Z$0 000000014001d7dd f   processply.obj
 0001:0001c7f0       ?catch$0@?0???$_Uninit_move@PEAUFieldMapping@detail@pcl@@PEAU123@V?$allocator@UFieldMapping@detail@pcl@@@std@@U123@@std@@YAPEAUFieldMapping@detail@pcl@@PEAU123@00AEAU?$_Wrap_alloc@V?$allocator@UFieldMapping@detail@pcl@@@std@@@0@0U_Nonscalar_ptr_iterator_tag@0@@Z@4HA 000000014001d7f0 f   processply.obj
 0001:0001c7fd       __catch$??$_Uninit_move@PEAUFieldMapping@detail@pcl@@PEAU123@V?$allocator@UFieldMapping@detail@pcl@@@std@@U123@@std@@YAPEAUFieldMapping@detail@pcl@@PEAU123@00AEAU?$_Wrap_alloc@V?$allocator@UFieldMapping@detail@pcl@@@std@@@0@0U_Nonscalar_ptr_iterator_tag@0@@Z$0 000000014001d7fd f   processply.obj
 0001:0001c810       ?dtor$0@?0???$_Uninit_move@PEAUPCLPointField@pcl@@PEAU12@V?$allocator@UPCLPointField@pcl@@@std@@U12@@std@@YAPEAUPCLPointField@pcl@@PEAU12@00AEAU?$_Wrap_alloc@V?$allocator@UPCLPointField@pcl@@@std@@@0@0U_Nonscalar_ptr_iterator_tag@0@@Z@4HA 000000014001d810 f   processply.obj
 0001:0001c82c       ?catch$0@?0???$_Uninit_move@PEAUPCLPointField@pcl@@PEAU12@V?$allocator@UPCLPointField@pcl@@@std@@U12@@std@@YAPEAUPCLPointField@pcl@@PEAU12@00AEAU?$_Wrap_alloc@V?$allocator@UPCLPointField@pcl@@@std@@@0@0U_Nonscalar_ptr_iterator_tag@0@@Z@4HA 000000014001d82c f   processply.obj
 0001:0001c83c       __catch$??$_Uninit_move@PEAUPCLPointField@pcl@@PEAU12@V?$allocator@UPCLPointField@pcl@@@std@@U12@@std@@YAPEAUPCLPointField@pcl@@PEAU12@00AEAU?$_Wrap_alloc@V?$allocator@UPCLPointField@pcl@@@std@@@0@0U_Nonscalar_ptr_iterator_tag@0@@Z$0 000000014001d83c f   processply.obj
 0001:0001c870       ?catch$0@?0???$_Uninit_move@PEAUPointXYZRGB@pcl@@PEAU12@V?$aligned_allocator@UPointXYZRGB@pcl@@@Eigen@@U12@@std@@YAPEAUPointXYZRGB@pcl@@PEAU12@00AEAU?$_Wrap_alloc@V?$aligned_allocator@UPointXYZRGB@pcl@@@Eigen@@@0@0U_Nonscalar_ptr_iterator_tag@0@@Z@4HA 000000014001d870 f   processply.obj
 0001:0001c87d       __catch$??$_Uninit_move@PEAUPointXYZRGB@pcl@@PEAU12@V?$aligned_allocator@UPointXYZRGB@pcl@@@Eigen@@U12@@std@@YAPEAUPointXYZRGB@pcl@@PEAU12@00AEAU?$_Wrap_alloc@V?$aligned_allocator@UPointXYZRGB@pcl@@@Eigen@@@0@0U_Nonscalar_ptr_iterator_tag@0@@Z$0 000000014001d87d f   processply.obj
 0001:0001c890       ?dtor$0@?0??dispose@?$sp_counted_impl_p@Udir_itr_imp@detail@filesystem@boost@@@detail@boost@@UEAAXXZ@4HA 000000014001d890 f   processply.obj
 0001:0001c890       ?dtor$0@?0???$checked_delete@Udir_itr_imp@detail@filesystem@boost@@@boost@@YAXPEAUdir_itr_imp@detail@filesystem@0@@Z@4HA 000000014001d890 f   processply.obj
 0001:0001c8a0       ?dtor$6@?0???$get_static_exception_object@Ubad_alloc_@exception_detail@boost@@@exception_detail@boost@@YA?AVexception_ptr@1@XZ@4HA 000000014001d8a0 f   processply.obj
 0001:0001c8ac       ?dtor$0@?0???$get_static_exception_object@Ubad_alloc_@exception_detail@boost@@@exception_detail@boost@@YA?AVexception_ptr@1@XZ@4HA 000000014001d8ac f   processply.obj
 0001:0001c8b8       ?dtor$8@?0???$get_static_exception_object@Ubad_alloc_@exception_detail@boost@@@exception_detail@boost@@YA?AVexception_ptr@1@XZ@4HA 000000014001d8b8 f   processply.obj
 0001:0001c8e2       ?dtor$10@?0???$get_static_exception_object@Ubad_alloc_@exception_detail@boost@@@exception_detail@boost@@YA?AVexception_ptr@1@XZ@4HA 000000014001d8e2 f   processply.obj
 0001:0001c8ee       ?dtor$9@?0???$get_static_exception_object@Ubad_alloc_@exception_detail@boost@@@exception_detail@boost@@YA?AVexception_ptr@1@XZ@4HA 000000014001d8ee f   processply.obj
 0001:0001c8fa       ?dtor$14@?0???$get_static_exception_object@Ubad_alloc_@exception_detail@boost@@@exception_detail@boost@@YA?AVexception_ptr@1@XZ@4HA 000000014001d8fa f   processply.obj
 0001:0001c906       ?dtor$15@?0???$get_static_exception_object@Ubad_alloc_@exception_detail@boost@@@exception_detail@boost@@YA?AVexception_ptr@1@XZ@4HA 000000014001d906 f   processply.obj
 0001:0001c912       ?dtor$1@?0???$get_static_exception_object@Ubad_alloc_@exception_detail@boost@@@exception_detail@boost@@YA?AVexception_ptr@1@XZ@4HA 000000014001d912 f   processply.obj
 0001:0001c91e       ?dtor$2@?0???$get_static_exception_object@Ubad_alloc_@exception_detail@boost@@@exception_detail@boost@@YA?AVexception_ptr@1@XZ@4HA 000000014001d91e f   processply.obj
 0001:0001c934       ?dtor$3@?0???$get_static_exception_object@Ubad_alloc_@exception_detail@boost@@@exception_detail@boost@@YA?AVexception_ptr@1@XZ@4HA 000000014001d934 f   processply.obj
 0001:0001c940       ?dtor$16@?0???$get_static_exception_object@Ubad_alloc_@exception_detail@boost@@@exception_detail@boost@@YA?AVexception_ptr@1@XZ@4HA 000000014001d940 f   processply.obj
 0001:0001c96d       ?dtor$18@?0???$get_static_exception_object@Ubad_alloc_@exception_detail@boost@@@exception_detail@boost@@YA?AVexception_ptr@1@XZ@4HA 000000014001d96d f   processply.obj
 0001:0001c980       ?dtor$6@?0???$get_static_exception_object@Ubad_exception_@exception_detail@boost@@@exception_detail@boost@@YA?AVexception_ptr@1@XZ@4HA 000000014001d980 f   processply.obj
 0001:0001c98c       ?dtor$0@?0???$get_static_exception_object@Ubad_exception_@exception_detail@boost@@@exception_detail@boost@@YA?AVexception_ptr@1@XZ@4HA 000000014001d98c f   processply.obj
 0001:0001c998       ?dtor$8@?0???$get_static_exception_object@Ubad_exception_@exception_detail@boost@@@exception_detail@boost@@YA?AVexception_ptr@1@XZ@4HA 000000014001d998 f   processply.obj
 0001:0001c9c2       ?dtor$10@?0???$get_static_exception_object@Ubad_exception_@exception_detail@boost@@@exception_detail@boost@@YA?AVexception_ptr@1@XZ@4HA 000000014001d9c2 f   processply.obj
 0001:0001c9ce       ?dtor$9@?0???$get_static_exception_object@Ubad_exception_@exception_detail@boost@@@exception_detail@boost@@YA?AVexception_ptr@1@XZ@4HA 000000014001d9ce f   processply.obj
 0001:0001c9da       ?dtor$14@?0???$get_static_exception_object@Ubad_exception_@exception_detail@boost@@@exception_detail@boost@@YA?AVexception_ptr@1@XZ@4HA 000000014001d9da f   processply.obj
 0001:0001c9e6       ?dtor$15@?0???$get_static_exception_object@Ubad_exception_@exception_detail@boost@@@exception_detail@boost@@YA?AVexception_ptr@1@XZ@4HA 000000014001d9e6 f   processply.obj
 0001:0001c9f2       ?dtor$1@?0???$get_static_exception_object@Ubad_exception_@exception_detail@boost@@@exception_detail@boost@@YA?AVexception_ptr@1@XZ@4HA 000000014001d9f2 f   processply.obj
 0001:0001c9fe       ?dtor$2@?0???$get_static_exception_object@Ubad_exception_@exception_detail@boost@@@exception_detail@boost@@YA?AVexception_ptr@1@XZ@4HA 000000014001d9fe f   processply.obj
 0001:0001ca14       ?dtor$3@?0???$get_static_exception_object@Ubad_exception_@exception_detail@boost@@@exception_detail@boost@@YA?AVexception_ptr@1@XZ@4HA 000000014001da14 f   processply.obj
 0001:0001ca20       ?dtor$16@?0???$get_static_exception_object@Ubad_exception_@exception_detail@boost@@@exception_detail@boost@@YA?AVexception_ptr@1@XZ@4HA 000000014001da20 f   processply.obj
 0001:0001ca4d       ?dtor$18@?0???$get_static_exception_object@Ubad_exception_@exception_detail@boost@@@exception_detail@boost@@YA?AVexception_ptr@1@XZ@4HA 000000014001da4d f   processply.obj
 0001:0001ca60       ?dtor$0@?0???$loadPLYFile@UPointXYZRGB@pcl@@@io@pcl@@YAHAEBV?$basic_string@DU?$char_traits@D@std@@V?$allocator@D@2@@std@@AEAV?$PointCloud@UPointXYZRGB@pcl@@@1@@Z@4HA 000000014001da60 f   processply.obj
 0001:0001ca6c       ?dtor$1@?0???$loadPLYFile@UPointXYZRGB@pcl@@@io@pcl@@YAHAEBV?$basic_string@DU?$char_traits@D@std@@V?$allocator@D@2@@std@@AEAV?$PointCloud@UPointXYZRGB@pcl@@@1@@Z@4HA 000000014001da6c f   processply.obj
 0001:0001ca80       ?dtor$0@?0???$make_iterator_range@Vdirectory_iterator@filesystem@boost@@@boost@@YA?AV?$iterator_range@Vdirectory_iterator@filesystem@boost@@@0@Vdirectory_iterator@filesystem@0@0@Z@4HA 000000014001da80 f   processply.obj
 0001:0001ca8c       ?dtor$1@?0???$make_iterator_range@Vdirectory_iterator@filesystem@boost@@@boost@@YA?AV?$iterator_range@Vdirectory_iterator@filesystem@boost@@@0@Vdirectory_iterator@filesystem@0@0@Z@4HA 000000014001da8c f   processply.obj
 0001:0001ca98       ?dtor$5@?0???$make_iterator_range@Vdirectory_iterator@filesystem@boost@@@boost@@YA?AV?$iterator_range@Vdirectory_iterator@filesystem@boost@@@0@Vdirectory_iterator@filesystem@0@0@Z@4HA 000000014001da98 f   processply.obj
 0001:0001cac1       ?dtor$7@?0???$make_iterator_range@Vdirectory_iterator@filesystem@boost@@@boost@@YA?AV?$iterator_range@Vdirectory_iterator@filesystem@boost@@@0@Vdirectory_iterator@filesystem@0@0@Z@4HA 000000014001dac1 f   processply.obj
 0001:0001cad0       ?dtor$0@?0???$make_range_impl@$$CBVdirectory_iterator@filesystem@boost@@@iterator_range_detail@boost@@YA?AV?$iterator_range@Vdirectory_iterator@filesystem@boost@@@1@AEBVdirectory_iterator@filesystem@1@_J1@Z@4HA 000000014001dad0 f   processply.obj
 0001:0001cadc       ?dtor$1@?0???$make_range_impl@$$CBVdirectory_iterator@filesystem@boost@@@iterator_range_detail@boost@@YA?AV?$iterator_range@Vdirectory_iterator@filesystem@boost@@@1@AEBVdirectory_iterator@filesystem@1@_J1@Z@4HA 000000014001dadc f   processply.obj
 0001:0001cae8       ?dtor$4@?0???$make_range_impl@$$CBVdirectory_iterator@filesystem@boost@@@iterator_range_detail@boost@@YA?AV?$iterator_range@Vdirectory_iterator@filesystem@boost@@@1@AEBVdirectory_iterator@filesystem@1@_J1@Z@4HA 000000014001dae8 f   processply.obj
 0001:0001cb20       ?dtor$0@?0???$read@UPointXYZRGB@pcl@@@PLYReader@pcl@@QEAAHAEBV?$basic_string@DU?$char_traits@D@std@@V?$allocator@D@2@@std@@AEAV?$PointCloud@UPointXYZRGB@pcl@@@1@H@Z@4HA 000000014001db20 f   processply.obj
 0001:0001cb2c       ?dtor$1@?0???$read@UPointXYZRGB@pcl@@@PLYReader@pcl@@QEAAHAEBV?$basic_string@DU?$char_traits@D@std@@V?$allocator@D@2@@std@@AEAV?$PointCloud@UPointXYZRGB@pcl@@@1@H@Z@4HA 000000014001db2c f   processply.obj
 0001:0001cb40       ?dtor$0@?0???$write@UPointXYZRGB@pcl@@@PLYWriter@pcl@@QEAAHAEBV?$basic_string@DU?$char_traits@D@std@@V?$allocator@D@2@@std@@AEBV?$PointCloud@UPointXYZRGB@pcl@@@1@_N2@Z@4HA 000000014001db40 f   processply.obj
 0001:0001cb50       ?dtor$0@?0???0?$clone_impl@Ubad_alloc_@exception_detail@boost@@@exception_detail@boost@@QEAA@AEBV012@@Z@4HA 000000014001db50 f   processply.obj
 0001:0001cb50       ?dtor$0@?0???0?$clone_impl@Ubad_exception_@exception_detail@boost@@@exception_detail@boost@@QEAA@AEBV012@@Z@4HA 000000014001db50 f   processply.obj
 0001:0001cb80       ?dtor$0@?0???0bad_alloc_@exception_detail@boost@@QEAA@AEBU012@@Z@4HA 000000014001db80 f   processply.obj
 0001:0001cb80       ?dtor$0@?0???0bad_exception_@exception_detail@boost@@QEAA@AEBU012@@Z@4HA 000000014001db80 f   processply.obj
 0001:0001cb90       ?dtor$0@?0???1?$Filter@UPointXYZRGB@pcl@@@pcl@@UEAA@XZ@4HA 000000014001db90 f   processply.obj
 0001:0001cba0       ?dtor$0@?0???1?$PCLBase@UPointXYZRGB@pcl@@@pcl@@UEAA@XZ@4HA 000000014001dba0 f   processply.obj
 0001:0001cbb0       ?dtor$1@?0???1?$PCLBase@UPointXYZRGB@pcl@@@pcl@@UEAA@XZ@4HA 000000014001dbb0 f   processply.obj
 0001:0001cbc0       ?dtor$0@?0???1?$PointCloud@UPointXYZRGB@pcl@@@pcl@@UEAA@XZ@4HA 000000014001dbc0 f   processply.obj
 0001:0001cbd0       ?dtor$1@?0???1?$PointCloud@UPointXYZRGB@pcl@@@pcl@@UEAA@XZ@4HA 000000014001dbd0 f   processply.obj
 0001:0001cbe0       ?dtor$0@?0???1?$StatisticalOutlierRemoval@UPointXYZRGB@pcl@@@pcl@@UEAA@XZ@4HA 000000014001dbe0 f   processply.obj
 0001:0001cbf0       ?dtor$0@?0???1?$inherit2@U?$callbacks_element@U?$pair@EC@mpl@boost@@@list_property_definition_callbacks_type@ply_parser@ply@io@pcl@@U?$callbacks_element@U?$pair@EF@mpl@boost@@@23456@@mpl@boost@@QEAA@XZ@4HA 000000014001dbf0 f   processply.obj
 0001:0001cbf0       ?dtor$0@?0???1?$inherit2@U?$callbacks_element@C@scalar_property_definition_callbacks_type@ply_parser@ply@io@pcl@@U?$callbacks_element@F@23456@@mpl@boost@@QEAA@XZ@4HA 000000014001dbf0 f   processply.obj
 0001:0001cc00       ?dtor$0@?0???1?$inherit2@U?$inherit2@U?$callbacks_element@C@scalar_property_definition_callbacks_type@ply_parser@ply@io@pcl@@U?$callbacks_element@F@23456@@mpl@boost@@U?$callbacks_element@H@scalar_property_definition_callbacks_type@ply_parser@ply@io@pcl@@@mpl@boost@@QEAA@XZ@4HA 000000014001dc00 f   processply.obj
 0001:0001cc10       ?dtor$0@?0???1?$inherit2@U?$inherit2@U?$callbacks_element@U?$pair@EC@mpl@boost@@@list_property_definition_callbacks_type@ply_parser@ply@io@pcl@@U?$callbacks_element@U?$pair@EF@mpl@boost@@@23456@@mpl@boost@@U?$callbacks_element@U?$pair@EH@mpl@boost@@@list_property_definition_callbacks_type@ply_parser@ply@io@pcl@@@mpl@boost@@QEAA@XZ@4HA 000000014001dc10 f   processply.obj
 0001:0001cc20       ?dtor$0@?0???1?$inherit2@U?$inherit2@U?$inherit2@U?$callbacks_element@C@scalar_property_definition_callbacks_type@ply_parser@ply@io@pcl@@U?$callbacks_element@F@23456@@mpl@boost@@U?$callbacks_element@H@scalar_property_definition_callbacks_type@ply_parser@ply@io@pcl@@@mpl@boost@@U?$callbacks_element@E@scalar_property_definition_callbacks_type@ply_parser@ply@io@pcl@@@mpl@boost@@QEAA@XZ@4HA 000000014001dc20 f   processply.obj
 0001:0001cc2c       ?dtor$4@?0???1?$inherit2@U?$inherit2@U?$inherit2@U?$callbacks_element@C@scalar_property_definition_callbacks_type@ply_parser@ply@io@pcl@@U?$callbacks_element@F@23456@@mpl@boost@@U?$callbacks_element@H@scalar_property_definition_callbacks_type@ply_parser@ply@io@pcl@@@mpl@boost@@U?$callbacks_element@E@scalar_property_definition_callbacks_type@ply_parser@ply@io@pcl@@@mpl@boost@@QEAA@XZ@4HA 000000014001dc2c f   processply.obj
 0001:0001cc40       ?dtor$0@?0???1?$inherit2@U?$inherit2@U?$inherit2@U?$callbacks_element@U?$pair@EC@mpl@boost@@@list_property_definition_callbacks_type@ply_parser@ply@io@pcl@@U?$callbacks_element@U?$pair@EF@mpl@boost@@@23456@@mpl@boost@@U?$callbacks_element@U?$pair@EH@mpl@boost@@@list_property_definition_callbacks_type@ply_parser@ply@io@pcl@@@mpl@boost@@U?$callbacks_element@U?$pair@EE@mpl@boost@@@list_property_definition_callbacks_type@ply_parser@ply@io@pcl@@@mpl@boost@@QEAA@XZ@4HA 000000014001dc40 f   processply.obj
 0001:0001cc4c       ?dtor$4@?0???1?$inherit2@U?$inherit2@U?$inherit2@U?$callbacks_element@U?$pair@EC@mpl@boost@@@list_property_definition_callbacks_type@ply_parser@ply@io@pcl@@U?$callbacks_element@U?$pair@EF@mpl@boost@@@23456@@mpl@boost@@U?$callbacks_element@U?$pair@EH@mpl@boost@@@list_property_definition_callbacks_type@ply_parser@ply@io@pcl@@@mpl@boost@@U?$callbacks_element@U?$pair@EE@mpl@boost@@@list_property_definition_callbacks_type@ply_parser@ply@io@pcl@@@mpl@boost@@QEAA@XZ@4HA 000000014001dc4c f   processply.obj
 0001:0001cc60       ?dtor$0@?0???1?$inherit2@U?$inherit2@U?$inherit2@U?$inherit2@U?$callbacks_element@C@scalar_property_definition_callbacks_type@ply_parser@ply@io@pcl@@U?$callbacks_element@F@23456@@mpl@boost@@U?$callbacks_element@H@scalar_property_definition_callbacks_type@ply_parser@ply@io@pcl@@@mpl@boost@@U?$callbacks_element@E@scalar_property_definition_callbacks_type@ply_parser@ply@io@pcl@@@mpl@boost@@U?$callbacks_element@G@scalar_property_definition_callbacks_type@ply_parser@ply@io@pcl@@@mpl@boost@@QEAA@XZ@4HA 000000014001dc60 f   processply.obj
 0001:0001cc70       ?dtor$0@?0???1?$inherit2@U?$inherit2@U?$inherit2@U?$inherit2@U?$callbacks_element@U?$pair@EC@mpl@boost@@@list_property_definition_callbacks_type@ply_parser@ply@io@pcl@@U?$callbacks_element@U?$pair@EF@mpl@boost@@@23456@@mpl@boost@@U?$callbacks_element@U?$pair@EH@mpl@boost@@@list_property_definition_callbacks_type@ply_parser@ply@io@pcl@@@mpl@boost@@U?$callbacks_element@U?$pair@EE@mpl@boost@@@list_property_definition_callbacks_type@ply_parser@ply@io@pcl@@@mpl@boost@@U?$callbacks_element@U?$pair@EG@mpl@boost@@@list_property_definition_callbacks_type@ply_parser@ply@io@pcl@@@mpl@boost@@QEAA@XZ@4HA 000000014001dc70 f   processply.obj
 0001:0001cc80       ?dtor$0@?0???1?$inherit2@U?$inherit2@U?$inherit2@U?$inherit2@U?$inherit2@U?$callbacks_element@C@scalar_property_definition_callbacks_type@ply_parser@ply@io@pcl@@U?$callbacks_element@F@23456@@mpl@boost@@U?$callbacks_element@H@scalar_property_definition_callbacks_type@ply_parser@ply@io@pcl@@@mpl@boost@@U?$callbacks_element@E@scalar_property_definition_callbacks_type@ply_parser@ply@io@pcl@@@mpl@boost@@U?$callbacks_element@G@scalar_property_definition_callbacks_type@ply_parser@ply@io@pcl@@@mpl@boost@@U?$callbacks_element@I@scalar_property_definition_callbacks_type@ply_parser@ply@io@pcl@@@mpl@boost@@QEAA@XZ@4HA 000000014001dc80 f   processply.obj
 0001:0001cc8c       ?dtor$4@?0???1?$inherit2@U?$inherit2@U?$inherit2@U?$inherit2@U?$inherit2@U?$callbacks_element@C@scalar_property_definition_callbacks_type@ply_parser@ply@io@pcl@@U?$callbacks_element@F@23456@@mpl@boost@@U?$callbacks_element@H@scalar_property_definition_callbacks_type@ply_parser@ply@io@pcl@@@mpl@boost@@U?$callbacks_element@E@scalar_property_definition_callbacks_type@ply_parser@ply@io@pcl@@@mpl@boost@@U?$callbacks_element@G@scalar_property_definition_callbacks_type@ply_parser@ply@io@pcl@@@mpl@boost@@U?$callbacks_element@I@scalar_property_definition_callbacks_type@ply_parser@ply@io@pcl@@@mpl@boost@@QEAA@XZ@4HA 000000014001dc8c f   processply.obj
 0001:0001cca0       ?dtor$0@?0???1?$inherit2@U?$inherit2@U?$inherit2@U?$inherit2@U?$inherit2@U?$callbacks_element@U?$pair@EC@mpl@boost@@@list_property_definition_callbacks_type@ply_parser@ply@io@pcl@@U?$callbacks_element@U?$pair@EF@mpl@boost@@@23456@@mpl@boost@@U?$callbacks_element@U?$pair@EH@mpl@boost@@@list_property_definition_callbacks_type@ply_parser@ply@io@pcl@@@mpl@boost@@U?$callbacks_element@U?$pair@EE@mpl@boost@@@list_property_definition_callbacks_type@ply_parser@ply@io@pcl@@@mpl@boost@@U?$callbacks_element@U?$pair@EG@mpl@boost@@@list_property_definition_callbacks_type@ply_parser@ply@io@pcl@@@mpl@boost@@U?$callbacks_element@U?$pair@EI@mpl@boost@@@list_property_definition_callbacks_type@ply_parser@ply@io@pcl@@@mpl@boost@@QEAA@XZ@4HA 000000014001dca0 f   processply.obj
 0001:0001ccac       ?dtor$4@?0???1?$inherit2@U?$inherit2@U?$inherit2@U?$inherit2@U?$inherit2@U?$callbacks_element@U?$pair@EC@mpl@boost@@@list_property_definition_callbacks_type@ply_parser@ply@io@pcl@@U?$callbacks_element@U?$pair@EF@mpl@boost@@@23456@@mpl@boost@@U?$callbacks_element@U?$pair@EH@mpl@boost@@@list_property_definition_callbacks_type@ply_parser@ply@io@pcl@@@mpl@boost@@U?$callbacks_element@U?$pair@EE@mpl@boost@@@list_property_definition_callbacks_type@ply_parser@ply@io@pcl@@@mpl@boost@@U?$callbacks_element@U?$pair@EG@mpl@boost@@@list_property_definition_callbacks_type@ply_parser@ply@io@pcl@@@mpl@boost@@U?$callbacks_element@U?$pair@EI@mpl@boost@@@list_property_definition_callbacks_type@ply_parser@ply@io@pcl@@@mpl@boost@@QEAA@XZ@4HA 000000014001dcac f   processply.obj
 0001:0001ccc0       ?dtor$0@?0???1?$inherit2@U?$inherit2@U?$inherit2@U?$inherit2@U?$inherit2@U?$inherit2@U?$callbacks_element@C@scalar_property_definition_callbacks_type@ply_parser@ply@io@pcl@@U?$callbacks_element@F@23456@@mpl@boost@@U?$callbacks_element@H@scalar_property_definition_callbacks_type@ply_parser@ply@io@pcl@@@mpl@boost@@U?$callbacks_element@E@scalar_property_definition_callbacks_type@ply_parser@ply@io@pcl@@@mpl@boost@@U?$callbacks_element@G@scalar_property_definition_callbacks_type@ply_parser@ply@io@pcl@@@mpl@boost@@U?$callbacks_element@I@scalar_property_definition_callbacks_type@ply_parser@ply@io@pcl@@@mpl@boost@@U?$callbacks_element@M@scalar_property_definition_callbacks_type@ply_parser@ply@io@pcl@@@mpl@boost@@QEAA@XZ@4HA 000000014001dcc0 f   processply.obj
 0001:0001ccd0       ?dtor$0@?0???1?$inherit2@U?$inherit2@U?$inherit2@U?$inherit2@U?$inherit2@U?$inherit2@U?$callbacks_element@U?$pair@EC@mpl@boost@@@list_property_definition_callbacks_type@ply_parser@ply@io@pcl@@U?$callbacks_element@U?$pair@EF@mpl@boost@@@23456@@mpl@boost@@U?$callbacks_element@U?$pair@EH@mpl@boost@@@list_property_definition_callbacks_type@ply_parser@ply@io@pcl@@@mpl@boost@@U?$callbacks_element@U?$pair@EE@mpl@boost@@@list_property_definition_callbacks_type@ply_parser@ply@io@pcl@@@mpl@boost@@U?$callbacks_element@U?$pair@EG@mpl@boost@@@list_property_definition_callbacks_type@ply_parser@ply@io@pcl@@@mpl@boost@@U?$callbacks_element@U?$pair@EI@mpl@boost@@@list_property_definition_callbacks_type@ply_parser@ply@io@pcl@@@mpl@boost@@U?$callbacks_element@U?$pair@EM@mpl@boost@@@list_property_definition_callbacks_type@ply_parser@ply@io@pcl@@@mpl@boost@@QEAA@XZ@4HA 000000014001dcd0 f   processply.obj
 0001:0001cce0       ?dtor$0@?0???1?$inherit2@U?$inherit2@U?$inherit2@U?$inherit2@U?$inherit2@U?$inherit2@U?$inherit2@U?$callbacks_element@C@scalar_property_definition_callbacks_type@ply_parser@ply@io@pcl@@U?$callbacks_element@F@23456@@mpl@boost@@U?$callbacks_element@H@scalar_property_definition_callbacks_type@ply_parser@ply@io@pcl@@@mpl@boost@@U?$callbacks_element@E@scalar_property_definition_callbacks_type@ply_parser@ply@io@pcl@@@mpl@boost@@U?$callbacks_element@G@scalar_property_definition_callbacks_type@ply_parser@ply@io@pcl@@@mpl@boost@@U?$callbacks_element@I@scalar_property_definition_callbacks_type@ply_parser@ply@io@pcl@@@mpl@boost@@U?$callbacks_element@M@scalar_property_definition_callbacks_type@ply_parser@ply@io@pcl@@@mpl@boost@@U?$callbacks_element@N@scalar_property_definition_callbacks_type@ply_parser@ply@io@pcl@@@mpl@boost@@QEAA@XZ@4HA 000000014001dce0 f   processply.obj
 0001:0001ccec       ?dtor$4@?0???1?$inherit2@U?$inherit2@U?$inherit2@U?$inherit2@U?$inherit2@U?$inherit2@U?$inherit2@U?$callbacks_element@C@scalar_property_definition_callbacks_type@ply_parser@ply@io@pcl@@U?$callbacks_element@F@23456@@mpl@boost@@U?$callbacks_element@H@scalar_property_definition_callbacks_type@ply_parser@ply@io@pcl@@@mpl@boost@@U?$callbacks_element@E@scalar_property_definition_callbacks_type@ply_parser@ply@io@pcl@@@mpl@boost@@U?$callbacks_element@G@scalar_property_definition_callbacks_type@ply_parser@ply@io@pcl@@@mpl@boost@@U?$callbacks_element@I@scalar_property_definition_callbacks_type@ply_parser@ply@io@pcl@@@mpl@boost@@U?$callbacks_element@M@scalar_property_definition_callbacks_type@ply_parser@ply@io@pcl@@@mpl@boost@@U?$callbacks_element@N@scalar_property_definition_callbacks_type@ply_parser@ply@io@pcl@@@mpl@boost@@QEAA@XZ@4HA 000000014001dcec f   processply.obj
 0001:0001cd00       ?dtor$0@?0???1?$inherit2@U?$inherit2@U?$inherit2@U?$inherit2@U?$inherit2@U?$inherit2@U?$inherit2@U?$callbacks_element@U?$pair@EC@mpl@boost@@@list_property_definition_callbacks_type@ply_parser@ply@io@pcl@@U?$callbacks_element@U?$pair@EF@mpl@boost@@@23456@@mpl@boost@@U?$callbacks_element@U?$pair@EH@mpl@boost@@@list_property_definition_callbacks_type@ply_parser@ply@io@pcl@@@mpl@boost@@U?$callbacks_element@U?$pair@EE@mpl@boost@@@list_property_definition_callbacks_type@ply_parser@ply@io@pcl@@@mpl@boost@@U?$callbacks_element@U?$pair@EG@mpl@boost@@@list_property_definition_callbacks_type@ply_parser@ply@io@pcl@@@mpl@boost@@U?$callbacks_element@U?$pair@EI@mpl@boost@@@list_property_definition_callbacks_type@ply_parser@ply@io@pcl@@@mpl@boost@@U?$callbacks_element@U?$pair@EM@mpl@boost@@@list_property_definition_callbacks_type@ply_parser@ply@io@pcl@@@mpl@boost@@U?$callbacks_element@U?$pair@EN@mpl@boost@@@list_property_definition_callbacks_type@ply_parser@ply@io@pcl@@@mpl@boost@@QEAA@XZ@4HA 000000014001dd00 f   processply.obj
 0001:0001cd0c       ?dtor$4@?0???1?$inherit2@U?$inherit2@U?$inherit2@U?$inherit2@U?$inherit2@U?$inherit2@U?$inherit2@U?$callbacks_element@U?$pair@EC@mpl@boost@@@list_property_definition_callbacks_type@ply_parser@ply@io@pcl@@U?$callbacks_element@U?$pair@EF@mpl@boost@@@23456@@mpl@boost@@U?$callbacks_element@U?$pair@EH@mpl@boost@@@list_property_definition_callbacks_type@ply_parser@ply@io@pcl@@@mpl@boost@@U?$callbacks_element@U?$pair@EE@mpl@boost@@@list_property_definition_callbacks_type@ply_parser@ply@io@pcl@@@mpl@boost@@U?$callbacks_element@U?$pair@EG@mpl@boost@@@list_property_definition_callbacks_type@ply_parser@ply@io@pcl@@@mpl@boost@@U?$callbacks_element@U?$pair@EI@mpl@boost@@@list_property_definition_callbacks_type@ply_parser@ply@io@pcl@@@mpl@boost@@U?$callbacks_element@U?$pair@EM@mpl@boost@@@list_property_definition_callbacks_type@ply_parser@ply@io@pcl@@@mpl@boost@@U?$callbacks_element@U?$pair@EN@mpl@boost@@@list_property_definition_callbacks_type@ply_parser@ply@io@pcl@@@mpl@boost@@QEAA@XZ@4HA 000000014001dd0c f   processply.obj
 0001:0001cd20       ?dtor$0@?0???1?$inherit2@U?$inherit2@U?$inherit2@U?$inherit2@U?$inherit2@U?$inherit2@U?$inherit2@U?$inherit2@U?$callbacks_element@U?$pair@EC@mpl@boost@@@list_property_definition_callbacks_type@ply_parser@ply@io@pcl@@U?$callbacks_element@U?$pair@EF@mpl@boost@@@23456@@mpl@boost@@U?$callbacks_element@U?$pair@EH@mpl@boost@@@list_property_definition_callbacks_type@ply_parser@ply@io@pcl@@@mpl@boost@@U?$callbacks_element@U?$pair@EE@mpl@boost@@@list_property_definition_callbacks_type@ply_parser@ply@io@pcl@@@mpl@boost@@U?$callbacks_element@U?$pair@EG@mpl@boost@@@list_property_definition_callbacks_type@ply_parser@ply@io@pcl@@@mpl@boost@@U?$callbacks_element@U?$pair@EI@mpl@boost@@@list_property_definition_callbacks_type@ply_parser@ply@io@pcl@@@mpl@boost@@U?$callbacks_element@U?$pair@EM@mpl@boost@@@list_property_definition_callbacks_type@ply_parser@ply@io@pcl@@@mpl@boost@@U?$callbacks_element@U?$pair@EN@mpl@boost@@@list_property_definition_callbacks_type@ply_parser@ply@io@pcl@@@mpl@boost@@U?$callbacks_element@U?$pair@GC@mpl@boost@@@list_property_definition_callbacks_type@ply_parser@ply@io@pcl@@@mpl@boost@@QEAA@XZ@4HA 000000014001dd20 f   processply.obj
 0001:0001cd30       ?dtor$0@?0???1?$inherit2@U?$inherit2@U?$inherit2@U?$inherit2@U?$inherit2@U?$inherit2@U?$inherit2@U?$inherit2@U?$inherit2@U?$callbacks_element@U?$pair@EC@mpl@boost@@@list_property_definition_callbacks_type@ply_parser@ply@io@pcl@@U?$callbacks_element@U?$pair@EF@mpl@boost@@@23456@@mpl@boost@@U?$callbacks_element@U?$pair@EH@mpl@boost@@@list_property_definition_callbacks_type@ply_parser@ply@io@pcl@@@mpl@boost@@U?$callbacks_element@U?$pair@EE@mpl@boost@@@list_property_definition_callbacks_type@ply_parser@ply@io@pcl@@@mpl@boost@@U?$callbacks_element@U?$pair@EG@mpl@boost@@@list_property_definition_callbacks_type@ply_parser@ply@io@pcl@@@mpl@boost@@U?$callbacks_element@U?$pair@EI@mpl@boost@@@list_property_definition_callbacks_type@ply_parser@ply@io@pcl@@@mpl@boost@@U?$callbacks_element@U?$pair@EM@mpl@boost@@@list_property_definition_callbacks_type@ply_parser@ply@io@pcl@@@mpl@boost@@U?$callbacks_element@U?$pair@EN@mpl@boost@@@list_property_definition_callbacks_type@ply_parser@ply@io@pcl@@@mpl@boost@@U?$callbacks_element@U?$pair@GC@mpl@boost@@@list_property_definition_callbacks_type@ply_parser@ply@io@pcl@@@mpl@boost@@U?$callbacks_element@U?$pair@GF@mpl@boost@@@list_property_definition_callbacks_type@ply_parser@ply@io@pcl@@@mpl@boost@@QEAA@XZ@4HA 000000014001dd30 f   processply.obj
 0001:0001cd3c       ?dtor$4@?0???1?$inherit2@U?$inherit2@U?$inherit2@U?$inherit2@U?$inherit2@U?$inherit2@U?$inherit2@U?$inherit2@U?$inherit2@U?$callbacks_element@U?$pair@EC@mpl@boost@@@list_property_definition_callbacks_type@ply_parser@ply@io@pcl@@U?$callbacks_element@U?$pair@EF@mpl@boost@@@23456@@mpl@boost@@U?$callbacks_element@U?$pair@EH@mpl@boost@@@list_property_definition_callbacks_type@ply_parser@ply@io@pcl@@@mpl@boost@@U?$callbacks_element@U?$pair@EE@mpl@boost@@@list_property_definition_callbacks_type@ply_parser@ply@io@pcl@@@mpl@boost@@U?$callbacks_element@U?$pair@EG@mpl@boost@@@list_property_definition_callbacks_type@ply_parser@ply@io@pcl@@@mpl@boost@@U?$callbacks_element@U?$pair@EI@mpl@boost@@@list_property_definition_callbacks_type@ply_parser@ply@io@pcl@@@mpl@boost@@U?$callbacks_element@U?$pair@EM@mpl@boost@@@list_property_definition_callbacks_type@ply_parser@ply@io@pcl@@@mpl@boost@@U?$callbacks_element@U?$pair@EN@mpl@boost@@@list_property_definition_callbacks_type@ply_parser@ply@io@pcl@@@mpl@boost@@U?$callbacks_element@U?$pair@GC@mpl@boost@@@list_property_definition_callbacks_type@ply_parser@ply@io@pcl@@@mpl@boost@@U?$callbacks_element@U?$pair@GF@mpl@boost@@@list_property_definition_callbacks_type@ply_parser@ply@io@pcl@@@mpl@boost@@QEAA@XZ@4HA 000000014001dd3c f   processply.obj
 0001:0001cd50       ?dtor$0@?0???1?$inherit2@U?$inherit2@U?$inherit2@U?$inherit2@U?$inherit2@U?$inherit2@U?$inherit2@U?$inherit2@U?$inherit2@U?$inherit2@U?$callbacks_element@U?$pair@EC@mpl@boost@@@list_property_definition_callbacks_type@ply_parser@ply@io@pcl@@U?$callbacks_element@U?$pair@EF@mpl@boost@@@23456@@mpl@boost@@U?$callbacks_element@U?$pair@EH@mpl@boost@@@list_property_definition_callbacks_type@ply_parser@ply@io@pcl@@@mpl@boost@@U?$callbacks_element@U?$pair@EE@mpl@boost@@@list_property_definition_callbacks_type@ply_parser@ply@io@pcl@@@mpl@boost@@U?$callbacks_element@U?$pair@EG@mpl@boost@@@list_property_definition_callbacks_type@ply_parser@ply@io@pcl@@@mpl@boost@@U?$callbacks_element@U?$pair@EI@mpl@boost@@@list_property_definition_callbacks_type@ply_parser@ply@io@pcl@@@mpl@boost@@U?$callbacks_element@U?$pair@EM@mpl@boost@@@list_property_definition_callbacks_type@ply_parser@ply@io@pcl@@@mpl@boost@@U?$callbacks_element@U?$pair@EN@mpl@boost@@@list_property_definition_callbacks_type@ply_parser@ply@io@pcl@@@mpl@boost@@U?$callbacks_element@U?$pair@GC@mpl@boost@@@list_property_definition_callbacks_type@ply_parser@ply@io@pcl@@@mpl@boost@@U?$callbacks_element@U?$pair@GF@mpl@boost@@@list_property_definition_callbacks_type@ply_parser@ply@io@pcl@@@mpl@boost@@U?$callbacks_element@U?$pair@GH@mpl@boost@@@list_property_definition_callbacks_type@ply_parser@ply@io@pcl@@@mpl@boost@@QEAA@XZ@4HA 000000014001dd50 f   processply.obj
 0001:0001cd60       ?dtor$0@?0???1?$inherit2@U?$inherit2@U?$inherit2@U?$inherit2@U?$inherit2@U?$inherit2@U?$inherit2@U?$inherit2@U?$inherit2@U?$inherit2@U?$inherit2@U?$callbacks_element@U?$pair@EC@mpl@boost@@@list_property_definition_callbacks_type@ply_parser@ply@io@pcl@@U?$callbacks_element@U?$pair@EF@mpl@boost@@@23456@@mpl@boost@@U?$callbacks_element@U?$pair@EH@mpl@boost@@@list_property_definition_callbacks_type@ply_parser@ply@io@pcl@@@mpl@boost@@U?$callbacks_element@U?$pair@EE@mpl@boost@@@list_property_definition_callbacks_type@ply_parser@ply@io@pcl@@@mpl@boost@@U?$callbacks_element@U?$pair@EG@mpl@boost@@@list_property_definition_callbacks_type@ply_parser@ply@io@pcl@@@mpl@boost@@U?$callbacks_element@U?$pair@EI@mpl@boost@@@list_property_definition_callbacks_type@ply_parser@ply@io@pcl@@@mpl@boost@@U?$callbacks_element@U?$pair@EM@mpl@boost@@@list_property_definition_callbacks_type@ply_parser@ply@io@pcl@@@mpl@boost@@U?$callbacks_element@U?$pair@EN@mpl@boost@@@list_property_definition_callbacks_type@ply_parser@ply@io@pcl@@@mpl@boost@@U?$callbacks_element@U?$pair@GC@mpl@boost@@@list_property_definition_callbacks_type@ply_parser@ply@io@pcl@@@mpl@boost@@U?$callbacks_element@U?$pair@GF@mpl@boost@@@list_property_definition_callbacks_type@ply_parser@ply@io@pcl@@@mpl@boost@@U?$callbacks_element@U?$pair@GH@mpl@boost@@@list_property_definition_callbacks_type@ply_parser@ply@io@pcl@@@mpl@boost@@U?$callbacks_element@U?$pair@GE@mpl@boost@@@list_property_definition_callbacks_type@ply_parser@ply@io@pcl@@@mpl@boost@@QEAA@XZ@4HA 000000014001dd60 f   processply.obj
 0001:0001cd6c       ?dtor$4@?0???1?$inherit2@U?$inherit2@U?$inherit2@U?$inherit2@U?$inherit2@U?$inherit2@U?$inherit2@U?$inherit2@U?$inherit2@U?$inherit2@U?$inherit2@U?$callbacks_element@U?$pair@EC@mpl@boost@@@list_property_definition_callbacks_type@ply_parser@ply@io@pcl@@U?$callbacks_element@U?$pair@EF@mpl@boost@@@23456@@mpl@boost@@U?$callbacks_element@U?$pair@EH@mpl@boost@@@list_property_definition_callbacks_type@ply_parser@ply@io@pcl@@@mpl@boost@@U?$callbacks_element@U?$pair@EE@mpl@boost@@@list_property_definition_callbacks_type@ply_parser@ply@io@pcl@@@mpl@boost@@U?$callbacks_element@U?$pair@EG@mpl@boost@@@list_property_definition_callbacks_type@ply_parser@ply@io@pcl@@@mpl@boost@@U?$callbacks_element@U?$pair@EI@mpl@boost@@@list_property_definition_callbacks_type@ply_parser@ply@io@pcl@@@mpl@boost@@U?$callbacks_element@U?$pair@EM@mpl@boost@@@list_property_definition_callbacks_type@ply_parser@ply@io@pcl@@@mpl@boost@@U?$callbacks_element@U?$pair@EN@mpl@boost@@@list_property_definition_callbacks_type@ply_parser@ply@io@pcl@@@mpl@boost@@U?$callbacks_element@U?$pair@GC@mpl@boost@@@list_property_definition_callbacks_type@ply_parser@ply@io@pcl@@@mpl@boost@@U?$callbacks_element@U?$pair@GF@mpl@boost@@@list_property_definition_callbacks_type@ply_parser@ply@io@pcl@@@mpl@boost@@U?$callbacks_element@U?$pair@GH@mpl@boost@@@list_property_definition_callbacks_type@ply_parser@ply@io@pcl@@@mpl@boost@@U?$callbacks_element@U?$pair@GE@mpl@boost@@@list_property_definition_callbacks_type@ply_parser@ply@io@pcl@@@mpl@boost@@QEAA@XZ@4HA 000000014001dd6c f   processply.obj
 0001:0001cd80       ?dtor$0@?0???1?$inherit2@U?$inherit2@U?$inherit2@U?$inherit2@U?$inherit2@U?$inherit2@U?$inherit2@U?$inherit2@U?$inherit2@U?$inherit2@U?$inherit2@U?$inherit2@U?$callbacks_element@U?$pair@EC@mpl@boost@@@list_property_definition_callbacks_type@ply_parser@ply@io@pcl@@U?$callbacks_element@U?$pair@EF@mpl@boost@@@23456@@mpl@boost@@U?$callbacks_element@U?$pair@EH@mpl@boost@@@list_property_definition_callbacks_type@ply_parser@ply@io@pcl@@@mpl@boost@@U?$callbacks_element@U?$pair@EE@mpl@boost@@@list_property_definition_callbacks_type@ply_parser@ply@io@pcl@@@mpl@boost@@U?$callbacks_element@U?$pair@EG@mpl@boost@@@list_property_definition_callbacks_type@ply_parser@ply@io@pcl@@@mpl@boost@@U?$callbacks_element@U?$pair@EI@mpl@boost@@@list_property_definition_callbacks_type@ply_parser@ply@io@pcl@@@mpl@boost@@U?$callbacks_element@U?$pair@EM@mpl@boost@@@list_property_definition_callbacks_type@ply_parser@ply@io@pcl@@@mpl@boost@@U?$callbacks_element@U?$pair@EN@mpl@boost@@@list_property_definition_callbacks_type@ply_parser@ply@io@pcl@@@mpl@boost@@U?$callbacks_element@U?$pair@GC@mpl@boost@@@list_property_definition_callbacks_type@ply_parser@ply@io@pcl@@@mpl@boost@@U?$callbacks_element@U?$pair@GF@mpl@boost@@@list_property_definition_callbacks_type@ply_parser@ply@io@pcl@@@mpl@boost@@U?$callbacks_element@U?$pair@GH@mpl@boost@@@list_property_definition_callbacks_type@ply_parser@ply@io@pcl@@@mpl@boost@@U?$callbacks_element@U?$pair@GE@mpl@boost@@@list_property_definition_callbacks_type@ply_parser@ply@io@pcl@@@mpl@boost@@U?$callbacks_element@U?$pair@GG@mpl@boost@@@list_property_definition_callbacks_type@ply_parser@ply@io@pcl@@@mpl@boost@@QEAA@XZ@4HA 000000014001dd80 f   processply.obj
 0001:0001cd90       ?dtor$0@?0???1?$inherit2@U?$inherit2@U?$inherit2@U?$inherit2@U?$inherit2@U?$inherit2@U?$inherit2@U?$inherit2@U?$inherit2@U?$inherit2@U?$inherit2@U?$inherit2@U?$inherit2@U?$callbacks_element@U?$pair@EC@mpl@boost@@@list_property_definition_callbacks_type@ply_parser@ply@io@pcl@@U?$callbacks_element@U?$pair@EF@mpl@boost@@@23456@@mpl@boost@@U?$callbacks_element@U?$pair@EH@mpl@boost@@@list_property_definition_callbacks_type@ply_parser@ply@io@pcl@@@mpl@boost@@U?$callbacks_element@U?$pair@EE@mpl@boost@@@list_property_definition_callbacks_type@ply_parser@ply@io@pcl@@@mpl@boost@@U?$callbacks_element@U?$pair@EG@mpl@boost@@@list_property_definition_callbacks_type@ply_parser@ply@io@pcl@@@mpl@boost@@U?$callbacks_element@U?$pair@EI@mpl@boost@@@list_property_definition_callbacks_type@ply_parser@ply@io@pcl@@@mpl@boost@@U?$callbacks_element@U?$pair@EM@mpl@boost@@@list_property_definition_callbacks_type@ply_parser@ply@io@pcl@@@mpl@boost@@U?$callbacks_element@U?$pair@EN@mpl@boost@@@list_property_definition_callbacks_type@ply_parser@ply@io@pcl@@@mpl@boost@@U?$callbacks_element@U?$pair@GC@mpl@boost@@@list_property_definition_callbacks_type@ply_parser@ply@io@pcl@@@mpl@boost@@U?$callbacks_element@U?$pair@GF@mpl@boost@@@list_property_definition_callbacks_type@ply_parser@ply@io@pcl@@@mpl@boost@@U?$callbacks_element@U?$pair@GH@mpl@boost@@@list_property_definition_callbacks_type@ply_parser@ply@io@pcl@@@mpl@boost@@U?$callbacks_element@U?$pair@GE@mpl@boost@@@list_property_definition_callbacks_type@ply_parser@ply@io@pcl@@@mpl@boost@@U?$callbacks_element@U?$pair@GG@mpl@boost@@@list_property_definition_callbacks_type@ply_parser@ply@io@pcl@@@mpl@boost@@U?$callbacks_element@U?$pair@GI@mpl@boost@@@list_property_definition_callbacks_type@ply_parser@ply@io@pcl@@@mpl@boost@@QEAA@XZ@4HA 000000014001dd90 f   processply.obj
 0001:0001cd9c       ?dtor$4@?0???1?$inherit2@U?$inherit2@U?$inherit2@U?$inherit2@U?$inherit2@U?$inherit2@U?$inherit2@U?$inherit2@U?$inherit2@U?$inherit2@U?$inherit2@U?$inherit2@U?$inherit2@U?$callbacks_element@U?$pair@EC@mpl@boost@@@list_property_definition_callbacks_type@ply_parser@ply@io@pcl@@U?$callbacks_element@U?$pair@EF@mpl@boost@@@23456@@mpl@boost@@U?$callbacks_element@U?$pair@EH@mpl@boost@@@list_property_definition_callbacks_type@ply_parser@ply@io@pcl@@@mpl@boost@@U?$callbacks_element@U?$pair@EE@mpl@boost@@@list_property_definition_callbacks_type@ply_parser@ply@io@pcl@@@mpl@boost@@U?$callbacks_element@U?$pair@EG@mpl@boost@@@list_property_definition_callbacks_type@ply_parser@ply@io@pcl@@@mpl@boost@@U?$callbacks_element@U?$pair@EI@mpl@boost@@@list_property_definition_callbacks_type@ply_parser@ply@io@pcl@@@mpl@boost@@U?$callbacks_element@U?$pair@EM@mpl@boost@@@list_property_definition_callbacks_type@ply_parser@ply@io@pcl@@@mpl@boost@@U?$callbacks_element@U?$pair@EN@mpl@boost@@@list_property_definition_callbacks_type@ply_parser@ply@io@pcl@@@mpl@boost@@U?$callbacks_element@U?$pair@GC@mpl@boost@@@list_property_definition_callbacks_type@ply_parser@ply@io@pcl@@@mpl@boost@@U?$callbacks_element@U?$pair@GF@mpl@boost@@@list_property_definition_callbacks_type@ply_parser@ply@io@pcl@@@mpl@boost@@U?$callbacks_element@U?$pair@GH@mpl@boost@@@list_property_definition_callbacks_type@ply_parser@ply@io@pcl@@@mpl@boost@@U?$callbacks_element@U?$pair@GE@mpl@boost@@@list_property_definition_callbacks_type@ply_parser@ply@io@pcl@@@mpl@boost@@U?$callbacks_element@U?$pair@GG@mpl@boost@@@list_property_definition_callbacks_type@ply_parser@ply@io@pcl@@@mpl@boost@@U?$callbacks_element@U?$pair@GI@mpl@boost@@@list_property_definition_callbacks_type@ply_parser@ply@io@pcl@@@mpl@boost@@QEAA@XZ@4HA 000000014001dd9c f   processply.obj
 0001:0001cdb0       ?dtor$0@?0???1?$inherit2@U?$inherit2@U?$inherit2@U?$inherit2@U?$inherit2@U?$inherit2@U?$inherit2@U?$inherit2@U?$inherit2@U?$inherit2@U?$inherit2@U?$inherit2@U?$inherit2@U?$inherit2@U?$callbacks_element@U?$pair@EC@mpl@boost@@@list_property_definition_callbacks_type@ply_parser@ply@io@pcl@@U?$callbacks_element@U?$pair@EF@mpl@boost@@@23456@@mpl@boost@@U?$callbacks_element@U?$pair@EH@mpl@boost@@@list_property_definition_callbacks_type@ply_parser@ply@io@pcl@@@mpl@boost@@U?$callbacks_element@U?$pair@EE@mpl@boost@@@list_property_definition_callbacks_type@ply_parser@ply@io@pcl@@@mpl@boost@@U?$callbacks_element@U?$pair@EG@mpl@boost@@@list_property_definition_callbacks_type@ply_parser@ply@io@pcl@@@mpl@boost@@U?$callbacks_element@U?$pair@EI@mpl@boost@@@list_property_definition_callbacks_type@ply_parser@ply@io@pcl@@@mpl@boost@@U?$callbacks_element@U?$pair@EM@mpl@boost@@@list_property_definition_callbacks_type@ply_parser@ply@io@pcl@@@mpl@boost@@U?$callbacks_element@U?$pair@EN@mpl@boost@@@list_property_definition_callbacks_type@ply_parser@ply@io@pcl@@@mpl@boost@@U?$callbacks_element@U?$pair@GC@mpl@boost@@@list_property_definition_callbacks_type@ply_parser@ply@io@pcl@@@mpl@boost@@U?$callbacks_element@U?$pair@GF@mpl@boost@@@list_property_definition_callbacks_type@ply_parser@ply@io@pcl@@@mpl@boost@@U?$callbacks_element@U?$pair@GH@mpl@boost@@@list_property_definition_callbacks_type@ply_parser@ply@io@pcl@@@mpl@boost@@U?$callbacks_element@U?$pair@GE@mpl@boost@@@list_property_definition_callbacks_type@ply_parser@ply@io@pcl@@@mpl@boost@@U?$callbacks_element@U?$pair@GG@mpl@boost@@@list_property_definition_callbacks_type@ply_parser@ply@io@pcl@@@mpl@boost@@U?$callbacks_element@U?$pair@GI@mpl@boost@@@list_property_definition_callbacks_type@ply_parser@ply@io@pcl@@@mpl@boost@@U?$callbacks_element@U?$pair@GM@mpl@boost@@@list_property_definition_callbacks_type@ply_parser@ply@io@pcl@@@mpl@boost@@QEAA@XZ@4HA 000000014001ddb0 f   processply.obj
 0001:0001cdc0       ?dtor$0@?0???1?$inherit2@U?$inherit2@U?$inherit2@U?$inherit2@U?$inherit2@U?$inherit2@U?$inherit2@U?$inherit2@U?$inherit2@U?$inherit2@U?$inherit2@U?$inherit2@U?$inherit2@U?$inherit2@U?$inherit2@U?$callbacks_element@U?$pair@EC@mpl@boost@@@list_property_definition_callbacks_type@ply_parser@ply@io@pcl@@U?$callbacks_element@U?$pair@EF@mpl@boost@@@23456@@mpl@boost@@U?$callbacks_element@U?$pair@EH@mpl@boost@@@list_property_definition_callbacks_type@ply_parser@ply@io@pcl@@@mpl@boost@@U?$callbacks_element@U?$pair@EE@mpl@boost@@@list_property_definition_callbacks_type@ply_parser@ply@io@pcl@@@mpl@boost@@U?$callbacks_element@U?$pair@EG@mpl@boost@@@list_property_definition_callbacks_type@ply_parser@ply@io@pcl@@@mpl@boost@@U?$callbacks_element@U?$pair@EI@mpl@boost@@@list_property_definition_callbacks_type@ply_parser@ply@io@pcl@@@mpl@boost@@U?$callbacks_element@U?$pair@EM@mpl@boost@@@list_property_definition_callbacks_type@ply_parser@ply@io@pcl@@@mpl@boost@@U?$callbacks_element@U?$pair@EN@mpl@boost@@@list_property_definition_callbacks_type@ply_parser@ply@io@pcl@@@mpl@boost@@U?$callbacks_element@U?$pair@GC@mpl@boost@@@list_property_definition_callbacks_type@ply_parser@ply@io@pcl@@@mpl@boost@@U?$callbacks_element@U?$pair@GF@mpl@boost@@@list_property_definition_callbacks_type@ply_parser@ply@io@pcl@@@mpl@boost@@U?$callbacks_element@U?$pair@GH@mpl@boost@@@list_property_definition_callbacks_type@ply_parser@ply@io@pcl@@@mpl@boost@@U?$callbacks_element@U?$pair@GE@mpl@boost@@@list_property_definition_callbacks_type@ply_parser@ply@io@pcl@@@mpl@boost@@U?$callbacks_element@U?$pair@GG@mpl@boost@@@list_property_definition_callbacks_type@ply_parser@ply@io@pcl@@@mpl@boost@@U?$callbacks_element@U?$pair@GI@mpl@boost@@@list_property_definition_callbacks_type@ply_parser@ply@io@pcl@@@mpl@boost@@U?$callbacks_element@U?$pair@GM@mpl@boost@@@list_property_definition_callbacks_type@ply_parser@ply@io@pcl@@@mpl@boost@@U?$callbacks_element@U?$pair@GN@mpl@boost@@@list_property_definition_callbacks_type@ply_parser@ply@io@pcl@@@mpl@boost@@QEAA@XZ@4HA 000000014001ddc0 f   processply.obj
 0001:0001cdcc       ?dtor$4@?0???1?$inherit2@U?$inherit2@U?$inherit2@U?$inherit2@U?$inherit2@U?$inherit2@U?$inherit2@U?$inherit2@U?$inherit2@U?$inherit2@U?$inherit2@U?$inherit2@U?$inherit2@U?$inherit2@U?$inherit2@U?$callbacks_element@U?$pair@EC@mpl@boost@@@list_property_definition_callbacks_type@ply_parser@ply@io@pcl@@U?$callbacks_element@U?$pair@EF@mpl@boost@@@23456@@mpl@boost@@U?$callbacks_element@U?$pair@EH@mpl@boost@@@list_property_definition_callbacks_type@ply_parser@ply@io@pcl@@@mpl@boost@@U?$callbacks_element@U?$pair@EE@mpl@boost@@@list_property_definition_callbacks_type@ply_parser@ply@io@pcl@@@mpl@boost@@U?$callbacks_element@U?$pair@EG@mpl@boost@@@list_property_definition_callbacks_type@ply_parser@ply@io@pcl@@@mpl@boost@@U?$callbacks_element@U?$pair@EI@mpl@boost@@@list_property_definition_callbacks_type@ply_parser@ply@io@pcl@@@mpl@boost@@U?$callbacks_element@U?$pair@EM@mpl@boost@@@list_property_definition_callbacks_type@ply_parser@ply@io@pcl@@@mpl@boost@@U?$callbacks_element@U?$pair@EN@mpl@boost@@@list_property_definition_callbacks_type@ply_parser@ply@io@pcl@@@mpl@boost@@U?$callbacks_element@U?$pair@GC@mpl@boost@@@list_property_definition_callbacks_type@ply_parser@ply@io@pcl@@@mpl@boost@@U?$callbacks_element@U?$pair@GF@mpl@boost@@@list_property_definition_callbacks_type@ply_parser@ply@io@pcl@@@mpl@boost@@U?$callbacks_element@U?$pair@GH@mpl@boost@@@list_property_definition_callbacks_type@ply_parser@ply@io@pcl@@@mpl@boost@@U?$callbacks_element@U?$pair@GE@mpl@boost@@@list_property_definition_callbacks_type@ply_parser@ply@io@pcl@@@mpl@boost@@U?$callbacks_element@U?$pair@GG@mpl@boost@@@list_property_definition_callbacks_type@ply_parser@ply@io@pcl@@@mpl@boost@@U?$callbacks_element@U?$pair@GI@mpl@boost@@@list_property_definition_callbacks_type@ply_parser@ply@io@pcl@@@mpl@boost@@U?$callbacks_element@U?$pair@GM@mpl@boost@@@list_property_definition_callbacks_type@ply_parser@ply@io@pcl@@@mpl@boost@@U?$callbacks_element@U?$pair@GN@mpl@boost@@@list_property_definition_callbacks_type@ply_parser@ply@io@pcl@@@mpl@boost@@QEAA@XZ@4HA 000000014001ddcc f   processply.obj
 0001:0001cde0       ?dtor$0@?0???1?$inherit2@U?$inherit2@U?$inherit2@U?$inherit2@U?$inherit2@U?$inherit2@U?$inherit2@U?$inherit2@U?$inherit2@U?$inherit2@U?$inherit2@U?$inherit2@U?$inherit2@U?$inherit2@U?$inherit2@U?$inherit2@U?$callbacks_element@U?$pair@EC@mpl@boost@@@list_property_definition_callbacks_type@ply_parser@ply@io@pcl@@U?$callbacks_element@U?$pair@EF@mpl@boost@@@23456@@mpl@boost@@U?$callbacks_element@U?$pair@EH@mpl@boost@@@list_property_definition_callbacks_type@ply_parser@ply@io@pcl@@@mpl@boost@@U?$callbacks_element@U?$pair@EE@mpl@boost@@@list_property_definition_callbacks_type@ply_parser@ply@io@pcl@@@mpl@boost@@U?$callbacks_element@U?$pair@EG@mpl@boost@@@list_property_definition_callbacks_type@ply_parser@ply@io@pcl@@@mpl@boost@@U?$callbacks_element@U?$pair@EI@mpl@boost@@@list_property_definition_callbacks_type@ply_parser@ply@io@pcl@@@mpl@boost@@U?$callbacks_element@U?$pair@EM@mpl@boost@@@list_property_definition_callbacks_type@ply_parser@ply@io@pcl@@@mpl@boost@@U?$callbacks_element@U?$pair@EN@mpl@boost@@@list_property_definition_callbacks_type@ply_parser@ply@io@pcl@@@mpl@boost@@U?$callbacks_element@U?$pair@GC@mpl@boost@@@list_property_definition_callbacks_type@ply_parser@ply@io@pcl@@@mpl@boost@@U?$callbacks_element@U?$pair@GF@mpl@boost@@@list_property_definition_callbacks_type@ply_parser@ply@io@pcl@@@mpl@boost@@U?$callbacks_element@U?$pair@GH@mpl@boost@@@list_property_definition_callbacks_type@ply_parser@ply@io@pcl@@@mpl@boost@@U?$callbacks_element@U?$pair@GE@mpl@boost@@@list_property_definition_callbacks_type@ply_parser@ply@io@pcl@@@mpl@boost@@U?$callbacks_element@U?$pair@GG@mpl@boost@@@list_property_definition_callbacks_type@ply_parser@ply@io@pcl@@@mpl@boost@@U?$callbacks_element@U?$pair@GI@mpl@boost@@@list_property_definition_callbacks_type@ply_parser@ply@io@pcl@@@mpl@boost@@U?$callbacks_element@U?$pair@GM@mpl@boost@@@list_property_definition_callbacks_type@ply_parser@ply@io@pcl@@@mpl@boost@@U?$callbacks_element@U?$pair@GN@mpl@boost@@@list_property_definition_callbacks_type@ply_parser@ply@io@pcl@@@mpl@boost@@U?$callbacks_element@U?$pair@IC@mpl@boost@@@list_property_definition_callbacks_type@ply_parser@ply@io@pcl@@@mpl@boost@@QEAA@XZ@4HA 000000014001dde0 f   processply.obj
 0001:0001cdf0       ?dtor$0@?0???1?$inherit2@U?$inherit2@U?$inherit2@U?$inherit2@U?$inherit2@U?$inherit2@U?$inherit2@U?$inherit2@U?$inherit2@U?$inherit2@U?$inherit2@U?$inherit2@U?$inherit2@U?$inherit2@U?$inherit2@U?$inherit2@U?$inherit2@U?$callbacks_element@U?$pair@EC@mpl@boost@@@list_property_definition_callbacks_type@ply_parser@ply@io@pcl@@U?$callbacks_element@U?$pair@EF@mpl@boost@@@23456@@mpl@boost@@U?$callbacks_element@U?$pair@EH@mpl@boost@@@list_property_definition_callbacks_type@ply_parser@ply@io@pcl@@@mpl@boost@@U?$callbacks_element@U?$pair@EE@mpl@boost@@@list_property_definition_callbacks_type@ply_parser@ply@io@pcl@@@mpl@boost@@U?$callbacks_element@U?$pair@EG@mpl@boost@@@list_property_definition_callbacks_type@ply_parser@ply@io@pcl@@@mpl@boost@@U?$callbacks_element@U?$pair@EI@mpl@boost@@@list_property_definition_callbacks_type@ply_parser@ply@io@pcl@@@mpl@boost@@U?$callbacks_element@U?$pair@EM@mpl@boost@@@list_property_definition_callbacks_type@ply_parser@ply@io@pcl@@@mpl@boost@@U?$callbacks_element@U?$pair@EN@mpl@boost@@@list_property_definition_callbacks_type@ply_parser@ply@io@pcl@@@mpl@boost@@U?$callbacks_element@U?$pair@GC@mpl@boost@@@list_property_definition_callbacks_type@ply_parser@ply@io@pcl@@@mpl@boost@@U?$callbacks_element@U?$pair@GF@mpl@boost@@@list_property_definition_callbacks_type@ply_parser@ply@io@pcl@@@mpl@boost@@U?$callbacks_element@U?$pair@GH@mpl@boost@@@list_property_definition_callbacks_type@ply_parser@ply@io@pcl@@@mpl@boost@@U?$callbacks_element@U?$pair@GE@mpl@boost@@@list_property_definition_callbacks_type@ply_parser@ply@io@pcl@@@mpl@boost@@U?$callbacks_element@U?$pair@GG@mpl@boost@@@list_property_definition_callbacks_type@ply_parser@ply@io@pcl@@@mpl@boost@@U?$callbacks_element@U?$pair@GI@mpl@boost@@@list_property_definition_callbacks_type@ply_parser@ply@io@pcl@@@mpl@boost@@U?$callbacks_element@U?$pair@GM@mpl@boost@@@list_property_definition_callbacks_type@ply_parser@ply@io@pcl@@@mpl@boost@@U?$callbacks_element@U?$pair@GN@mpl@boost@@@list_property_definition_callbacks_type@ply_parser@ply@io@pcl@@@mpl@boost@@U?$callbacks_element@U?$pair@IC@mpl@boost@@@list_property_definition_callbacks_type@ply_parser@ply@io@pcl@@@mpl@boost@@U?$callbacks_element@U?$pair@IF@mpl@boost@@@list_property_definition_callbacks_type@ply_parser@ply@io@pcl@@@mpl@boost@@QEAA@XZ@4HA 000000014001ddf0 f   processply.obj
 0001:0001cdfc       ?dtor$4@?0???1?$inherit2@U?$inherit2@U?$inherit2@U?$inherit2@U?$inherit2@U?$inherit2@U?$inherit2@U?$inherit2@U?$inherit2@U?$inherit2@U?$inherit2@U?$inherit2@U?$inherit2@U?$inherit2@U?$inherit2@U?$inherit2@U?$inherit2@U?$callbacks_element@U?$pair@EC@mpl@boost@@@list_property_definition_callbacks_type@ply_parser@ply@io@pcl@@U?$callbacks_element@U?$pair@EF@mpl@boost@@@23456@@mpl@boost@@U?$callbacks_element@U?$pair@EH@mpl@boost@@@list_property_definition_callbacks_type@ply_parser@ply@io@pcl@@@mpl@boost@@U?$callbacks_element@U?$pair@EE@mpl@boost@@@list_property_definition_callbacks_type@ply_parser@ply@io@pcl@@@mpl@boost@@U?$callbacks_element@U?$pair@EG@mpl@boost@@@list_property_definition_callbacks_type@ply_parser@ply@io@pcl@@@mpl@boost@@U?$callbacks_element@U?$pair@EI@mpl@boost@@@list_property_definition_callbacks_type@ply_parser@ply@io@pcl@@@mpl@boost@@U?$callbacks_element@U?$pair@EM@mpl@boost@@@list_property_definition_callbacks_type@ply_parser@ply@io@pcl@@@mpl@boost@@U?$callbacks_element@U?$pair@EN@mpl@boost@@@list_property_definition_callbacks_type@ply_parser@ply@io@pcl@@@mpl@boost@@U?$callbacks_element@U?$pair@GC@mpl@boost@@@list_property_definition_callbacks_type@ply_parser@ply@io@pcl@@@mpl@boost@@U?$callbacks_element@U?$pair@GF@mpl@boost@@@list_property_definition_callbacks_type@ply_parser@ply@io@pcl@@@mpl@boost@@U?$callbacks_element@U?$pair@GH@mpl@boost@@@list_property_definition_callbacks_type@ply_parser@ply@io@pcl@@@mpl@boost@@U?$callbacks_element@U?$pair@GE@mpl@boost@@@list_property_definition_callbacks_type@ply_parser@ply@io@pcl@@@mpl@boost@@U?$callbacks_element@U?$pair@GG@mpl@boost@@@list_property_definition_callbacks_type@ply_parser@ply@io@pcl@@@mpl@boost@@U?$callbacks_element@U?$pair@GI@mpl@boost@@@list_property_definition_callbacks_type@ply_parser@ply@io@pcl@@@mpl@boost@@U?$callbacks_element@U?$pair@GM@mpl@boost@@@list_property_definition_callbacks_type@ply_parser@ply@io@pcl@@@mpl@boost@@U?$callbacks_element@U?$pair@GN@mpl@boost@@@list_property_definition_callbacks_type@ply_parser@ply@io@pcl@@@mpl@boost@@U?$callbacks_element@U?$pair@IC@mpl@boost@@@list_property_definition_callbacks_type@ply_parser@ply@io@pcl@@@mpl@boost@@U?$callbacks_element@U?$pair@IF@mpl@boost@@@list_property_definition_callbacks_type@ply_parser@ply@io@pcl@@@mpl@boost@@QEAA@XZ@4HA 000000014001ddfc f   processply.obj
 0001:0001ce10       ?dtor$0@?0???1?$inherit2@U?$inherit2@U?$inherit2@U?$inherit2@U?$inherit2@U?$inherit2@U?$inherit2@U?$inherit2@U?$inherit2@U?$inherit2@U?$inherit2@U?$inherit2@U?$inherit2@U?$inherit2@U?$inherit2@U?$inherit2@U?$inherit2@U?$inherit2@U?$callbacks_element@U?$pair@EC@mpl@boost@@@list_property_definition_callbacks_type@ply_parser@ply@io@pcl@@U?$callbacks_element@U?$pair@EF@mpl@boost@@@23456@@mpl@boost@@U?$callbacks_element@U?$pair@EH@mpl@boost@@@list_property_definition_callbacks_type@ply_parser@ply@io@pcl@@@mpl@boost@@U?$callbacks_element@U?$pair@EE@mpl@boost@@@list_property_definition_callbacks_type@ply_parser@ply@io@pcl@@@mpl@boost@@U?$callbacks_element@U?$pair@EG@mpl@boost@@@list_property_definition_callbacks_type@ply_parser@ply@io@pcl@@@mpl@boost@@U?$callbacks_element@U?$pair@EI@mpl@boost@@@list_property_definition_callbacks_type@ply_parser@ply@io@pcl@@@mpl@boost@@U?$callbacks_element@U?$pair@EM@mpl@boost@@@list_property_definition_callbacks_type@ply_parser@ply@io@pcl@@@mpl@boost@@U?$callbacks_element@U?$pair@EN@mpl@boost@@@list_property_definition_callbacks_type@ply_parser@ply@io@pcl@@@mpl@boost@@U?$callbacks_element@U?$pair@GC@mpl@boost@@@list_property_definition_callbacks_type@ply_parser@ply@io@pcl@@@mpl@boost@@U?$callbacks_element@U?$pair@GF@mpl@boost@@@list_property_definition_callbacks_type@ply_parser@ply@io@pcl@@@mpl@boost@@U?$callbacks_element@U?$pair@GH@mpl@boost@@@list_property_definition_callbacks_type@ply_parser@ply@io@pcl@@@mpl@boost@@U?$callbacks_element@U?$pair@GE@mpl@boost@@@list_property_definition_callbacks_type@ply_parser@ply@io@pcl@@@mpl@boost@@U?$callbacks_element@U?$pair@GG@mpl@boost@@@list_property_definition_callbacks_type@ply_parser@ply@io@pcl@@@mpl@boost@@U?$callbacks_element@U?$pair@GI@mpl@boost@@@list_property_definition_callbacks_type@ply_parser@ply@io@pcl@@@mpl@boost@@U?$callbacks_element@U?$pair@GM@mpl@boost@@@list_property_definition_callbacks_type@ply_parser@ply@io@pcl@@@mpl@boost@@U?$callbacks_element@U?$pair@GN@mpl@boost@@@list_property_definition_callbacks_type@ply_parser@ply@io@pcl@@@mpl@boost@@U?$callbacks_element@U?$pair@IC@mpl@boost@@@list_property_definition_callbacks_type@ply_parser@ply@io@pcl@@@mpl@boost@@U?$callbacks_element@U?$pair@IF@mpl@boost@@@list_property_definition_callbacks_type@ply_parser@ply@io@pcl@@@mpl@boost@@U?$callbacks_element@U?$pair@IH@mpl@boost@@@list_property_definition_callbacks_type@ply_parser@ply@io@pcl@@@mpl@boost@@QEAA@XZ@4HA 000000014001de10 f   processply.obj
 0001:0001ce20       ?dtor$0@?0???1?$inherit2@U?$inherit2@U?$inherit2@U?$inherit2@U?$inherit2@U?$inherit2@U?$inherit2@U?$inherit2@U?$inherit2@U?$inherit2@U?$inherit2@U?$inherit2@U?$inherit2@U?$inherit2@U?$inherit2@U?$inherit2@U?$inherit2@U?$inherit2@U?$inherit2@U?$callbacks_element@U?$pair@EC@mpl@boost@@@list_property_definition_callbacks_type@ply_parser@ply@io@pcl@@U?$callbacks_element@U?$pair@EF@mpl@boost@@@23456@@mpl@boost@@U?$callbacks_element@U?$pair@EH@mpl@boost@@@list_property_definition_callbacks_type@ply_parser@ply@io@pcl@@@mpl@boost@@U?$callbacks_element@U?$pair@EE@mpl@boost@@@list_property_definition_callbacks_type@ply_parser@ply@io@pcl@@@mpl@boost@@U?$callbacks_element@U?$pair@EG@mpl@boost@@@list_property_definition_callbacks_type@ply_parser@ply@io@pcl@@@mpl@boost@@U?$callbacks_element@U?$pair@EI@mpl@boost@@@list_property_definition_callbacks_type@ply_parser@ply@io@pcl@@@mpl@boost@@U?$callbacks_element@U?$pair@EM@mpl@boost@@@list_property_definition_callbacks_type@ply_parser@ply@io@pcl@@@mpl@boost@@U?$callbacks_element@U?$pair@EN@mpl@boost@@@list_property_definition_callbacks_type@ply_parser@ply@io@pcl@@@mpl@boost@@U?$callbacks_element@U?$pair@GC@mpl@boost@@@list_property_definition_callbacks_type@ply_parser@ply@io@pcl@@@mpl@boost@@U?$callbacks_element@U?$pair@GF@mpl@boost@@@list_property_definition_callbacks_type@ply_parser@ply@io@pcl@@@mpl@boost@@U?$callbacks_element@U?$pair@GH@mpl@boost@@@list_property_definition_callbacks_type@ply_parser@ply@io@pcl@@@mpl@boost@@U?$callbacks_element@U?$pair@GE@mpl@boost@@@list_property_definition_callbacks_type@ply_parser@ply@io@pcl@@@mpl@boost@@U?$callbacks_element@U?$pair@GG@mpl@boost@@@list_property_definition_callbacks_type@ply_parser@ply@io@pcl@@@mpl@boost@@U?$callbacks_element@U?$pair@GI@mpl@boost@@@list_property_definition_callbacks_type@ply_parser@ply@io@pcl@@@mpl@boost@@U?$callbacks_element@U?$pair@GM@mpl@boost@@@list_property_definition_callbacks_type@ply_parser@ply@io@pcl@@@mpl@boost@@U?$callbacks_element@U?$pair@GN@mpl@boost@@@list_property_definition_callbacks_type@ply_parser@ply@io@pcl@@@mpl@boost@@U?$callbacks_element@U?$pair@IC@mpl@boost@@@list_property_definition_callbacks_type@ply_parser@ply@io@pcl@@@mpl@boost@@U?$callbacks_element@U?$pair@IF@mpl@boost@@@list_property_definition_callbacks_type@ply_parser@ply@io@pcl@@@mpl@boost@@U?$callbacks_element@U?$pair@IH@mpl@boost@@@list_property_definition_callbacks_type@ply_parser@ply@io@pcl@@@mpl@boost@@U?$callbacks_element@U?$pair@IE@mpl@boost@@@list_property_definition_callbacks_type@ply_parser@ply@io@pcl@@@mpl@boost@@QEAA@XZ@4HA 000000014001de20 f   processply.obj
 0001:0001ce2c       ?dtor$4@?0???1?$inherit2@U?$inherit2@U?$inherit2@U?$inherit2@U?$inherit2@U?$inherit2@U?$inherit2@U?$inherit2@U?$inherit2@U?$inherit2@U?$inherit2@U?$inherit2@U?$inherit2@U?$inherit2@U?$inherit2@U?$inherit2@U?$inherit2@U?$inherit2@U?$inherit2@U?$callbacks_element@U?$pair@EC@mpl@boost@@@list_property_definition_callbacks_type@ply_parser@ply@io@pcl@@U?$callbacks_element@U?$pair@EF@mpl@boost@@@23456@@mpl@boost@@U?$callbacks_element@U?$pair@EH@mpl@boost@@@list_property_definition_callbacks_type@ply_parser@ply@io@pcl@@@mpl@boost@@U?$callbacks_element@U?$pair@EE@mpl@boost@@@list_property_definition_callbacks_type@ply_parser@ply@io@pcl@@@mpl@boost@@U?$callbacks_element@U?$pair@EG@mpl@boost@@@list_property_definition_callbacks_type@ply_parser@ply@io@pcl@@@mpl@boost@@U?$callbacks_element@U?$pair@EI@mpl@boost@@@list_property_definition_callbacks_type@ply_parser@ply@io@pcl@@@mpl@boost@@U?$callbacks_element@U?$pair@EM@mpl@boost@@@list_property_definition_callbacks_type@ply_parser@ply@io@pcl@@@mpl@boost@@U?$callbacks_element@U?$pair@EN@mpl@boost@@@list_property_definition_callbacks_type@ply_parser@ply@io@pcl@@@mpl@boost@@U?$callbacks_element@U?$pair@GC@mpl@boost@@@list_property_definition_callbacks_type@ply_parser@ply@io@pcl@@@mpl@boost@@U?$callbacks_element@U?$pair@GF@mpl@boost@@@list_property_definition_callbacks_type@ply_parser@ply@io@pcl@@@mpl@boost@@U?$callbacks_element@U?$pair@GH@mpl@boost@@@list_property_definition_callbacks_type@ply_parser@ply@io@pcl@@@mpl@boost@@U?$callbacks_element@U?$pair@GE@mpl@boost@@@list_property_definition_callbacks_type@ply_parser@ply@io@pcl@@@mpl@boost@@U?$callbacks_element@U?$pair@GG@mpl@boost@@@list_property_definition_callbacks_type@ply_parser@ply@io@pcl@@@mpl@boost@@U?$callbacks_element@U?$pair@GI@mpl@boost@@@list_property_definition_callbacks_type@ply_parser@ply@io@pcl@@@mpl@boost@@U?$callbacks_element@U?$pair@GM@mpl@boost@@@list_property_definition_callbacks_type@ply_parser@ply@io@pcl@@@mpl@boost@@U?$callbacks_element@U?$pair@GN@mpl@boost@@@list_property_definition_callbacks_type@ply_parser@ply@io@pcl@@@mpl@boost@@U?$callbacks_element@U?$pair@IC@mpl@boost@@@list_property_definition_callbacks_type@ply_parser@ply@io@pcl@@@mpl@boost@@U?$callbacks_element@U?$pair@IF@mpl@boost@@@list_property_definition_callbacks_type@ply_parser@ply@io@pcl@@@mpl@boost@@U?$callbacks_element@U?$pair@IH@mpl@boost@@@list_property_definition_callbacks_type@ply_parser@ply@io@pcl@@@mpl@boost@@U?$callbacks_element@U?$pair@IE@mpl@boost@@@list_property_definition_callbacks_type@ply_parser@ply@io@pcl@@@mpl@boost@@QEAA@XZ@4HA 000000014001de2c f   processply.obj
 0001:0001ce40       ?dtor$0@?0???1?$inherit2@U?$inherit2@U?$inherit2@U?$inherit2@U?$inherit2@U?$inherit2@U?$inherit2@U?$inherit2@U?$inherit2@U?$inherit2@U?$inherit2@U?$inherit2@U?$inherit2@U?$inherit2@U?$inherit2@U?$inherit2@U?$inherit2@U?$inherit2@U?$inherit2@U?$inherit2@U?$callbacks_element@U?$pair@EC@mpl@boost@@@list_property_definition_callbacks_type@ply_parser@ply@io@pcl@@U?$callbacks_element@U?$pair@EF@mpl@boost@@@23456@@mpl@boost@@U?$callbacks_element@U?$pair@EH@mpl@boost@@@list_property_definition_callbacks_type@ply_parser@ply@io@pcl@@@mpl@boost@@U?$callbacks_element@U?$pair@EE@mpl@boost@@@list_property_definition_callbacks_type@ply_parser@ply@io@pcl@@@mpl@boost@@U?$callbacks_element@U?$pair@EG@mpl@boost@@@list_property_definition_callbacks_type@ply_parser@ply@io@pcl@@@mpl@boost@@U?$callbacks_element@U?$pair@EI@mpl@boost@@@list_property_definition_callbacks_type@ply_parser@ply@io@pcl@@@mpl@boost@@U?$callbacks_element@U?$pair@EM@mpl@boost@@@list_property_definition_callbacks_type@ply_parser@ply@io@pcl@@@mpl@boost@@U?$callbacks_element@U?$pair@EN@mpl@boost@@@list_property_definition_callbacks_type@ply_parser@ply@io@pcl@@@mpl@boost@@U?$callbacks_element@U?$pair@GC@mpl@boost@@@list_property_definition_callbacks_type@ply_parser@ply@io@pcl@@@mpl@boost@@U?$callbacks_element@U?$pair@GF@mpl@boost@@@list_property_definition_callbacks_type@ply_parser@ply@io@pcl@@@mpl@boost@@U?$callbacks_element@U?$pair@GH@mpl@boost@@@list_property_definition_callbacks_type@ply_parser@ply@io@pcl@@@mpl@boost@@U?$callbacks_element@U?$pair@GE@mpl@boost@@@list_property_definition_callbacks_type@ply_parser@ply@io@pcl@@@mpl@boost@@U?$callbacks_element@U?$pair@GG@mpl@boost@@@list_property_definition_callbacks_type@ply_parser@ply@io@pcl@@@mpl@boost@@U?$callbacks_element@U?$pair@GI@mpl@boost@@@list_property_definition_callbacks_type@ply_parser@ply@io@pcl@@@mpl@boost@@U?$callbacks_element@U?$pair@GM@mpl@boost@@@list_property_definition_callbacks_type@ply_parser@ply@io@pcl@@@mpl@boost@@U?$callbacks_element@U?$pair@GN@mpl@boost@@@list_property_definition_callbacks_type@ply_parser@ply@io@pcl@@@mpl@boost@@U?$callbacks_element@U?$pair@IC@mpl@boost@@@list_property_definition_callbacks_type@ply_parser@ply@io@pcl@@@mpl@boost@@U?$callbacks_element@U?$pair@IF@mpl@boost@@@list_property_definition_callbacks_type@ply_parser@ply@io@pcl@@@mpl@boost@@U?$callbacks_element@U?$pair@IH@mpl@boost@@@list_property_definition_callbacks_type@ply_parser@ply@io@pcl@@@mpl@boost@@U?$callbacks_element@U?$pair@IE@mpl@boost@@@list_property_definition_callbacks_type@ply_parser@ply@io@pcl@@@mpl@boost@@U?$callbacks_element@U?$pair@IG@mpl@boost@@@list_property_definition_callbacks_type@ply_parser@ply@io@pcl@@@mpl@boost@@QEAA@XZ@4HA 000000014001de40 f   processply.obj
 0001:0001ce50       ?dtor$0@?0???1?$inherit2@U?$inherit2@U?$inherit2@U?$inherit2@U?$inherit2@U?$inherit2@U?$inherit2@U?$inherit2@U?$inherit2@U?$inherit2@U?$inherit2@U?$inherit2@U?$inherit2@U?$inherit2@U?$inherit2@U?$inherit2@U?$inherit2@U?$inherit2@U?$inherit2@U?$inherit2@U?$inherit2@U?$callbacks_element@U?$pair@EC@mpl@boost@@@list_property_definition_callbacks_type@ply_parser@ply@io@pcl@@U?$callbacks_element@U?$pair@EF@mpl@boost@@@23456@@mpl@boost@@U?$callbacks_element@U?$pair@EH@mpl@boost@@@list_property_definition_callbacks_type@ply_parser@ply@io@pcl@@@mpl@boost@@U?$callbacks_element@U?$pair@EE@mpl@boost@@@list_property_definition_callbacks_type@ply_parser@ply@io@pcl@@@mpl@boost@@U?$callbacks_element@U?$pair@EG@mpl@boost@@@list_property_definition_callbacks_type@ply_parser@ply@io@pcl@@@mpl@boost@@U?$callbacks_element@U?$pair@EI@mpl@boost@@@list_property_definition_callbacks_type@ply_parser@ply@io@pcl@@@mpl@boost@@U?$callbacks_element@U?$pair@EM@mpl@boost@@@list_property_definition_callbacks_type@ply_parser@ply@io@pcl@@@mpl@boost@@U?$callbacks_element@U?$pair@EN@mpl@boost@@@list_property_definition_callbacks_type@ply_parser@ply@io@pcl@@@mpl@boost@@U?$callbacks_element@U?$pair@GC@mpl@boost@@@list_property_definition_callbacks_type@ply_parser@ply@io@pcl@@@mpl@boost@@U?$callbacks_element@U?$pair@GF@mpl@boost@@@list_property_definition_callbacks_type@ply_parser@ply@io@pcl@@@mpl@boost@@U?$callbacks_element@U?$pair@GH@mpl@boost@@@list_property_definition_callbacks_type@ply_parser@ply@io@pcl@@@mpl@boost@@U?$callbacks_element@U?$pair@GE@mpl@boost@@@list_property_definition_callbacks_type@ply_parser@ply@io@pcl@@@mpl@boost@@U?$callbacks_element@U?$pair@GG@mpl@boost@@@list_property_definition_callbacks_type@ply_parser@ply@io@pcl@@@mpl@boost@@U?$callbacks_element@U?$pair@GI@mpl@boost@@@list_property_definition_callbacks_type@ply_parser@ply@io@pcl@@@mpl@boost@@U?$callbacks_element@U?$pair@GM@mpl@boost@@@list_property_definition_callbacks_type@ply_parser@ply@io@pcl@@@mpl@boost@@U?$callbacks_element@U?$pair@GN@mpl@boost@@@list_property_definition_callbacks_type@ply_parser@ply@io@pcl@@@mpl@boost@@U?$callbacks_element@U?$pair@IC@mpl@boost@@@list_property_definition_callbacks_type@ply_parser@ply@io@pcl@@@mpl@boost@@U?$callbacks_element@U?$pair@IF@mpl@boost@@@list_property_definition_callbacks_type@ply_parser@ply@io@pcl@@@mpl@boost@@U?$callbacks_element@U?$pair@IH@mpl@boost@@@list_property_definition_callbacks_type@ply_parser@ply@io@pcl@@@mpl@boost@@U?$callbacks_element@U?$pair@IE@mpl@boost@@@list_property_definition_callbacks_type@ply_parser@ply@io@pcl@@@mpl@boost@@U?$callbacks_element@U?$pair@IG@mpl@boost@@@list_property_definition_callbacks_type@ply_parser@ply@io@pcl@@@mpl@boost@@U?$callbacks_element@U?$pair@II@mpl@boost@@@list_property_definition_callbacks_type@ply_parser@ply@io@pcl@@@mpl@boost@@QEAA@XZ@4HA 000000014001de50 f   processply.obj
 0001:0001ce5c       ?dtor$4@?0???1?$inherit2@U?$inherit2@U?$inherit2@U?$inherit2@U?$inherit2@U?$inherit2@U?$inherit2@U?$inherit2@U?$inherit2@U?$inherit2@U?$inherit2@U?$inherit2@U?$inherit2@U?$inherit2@U?$inherit2@U?$inherit2@U?$inherit2@U?$inherit2@U?$inherit2@U?$inherit2@U?$inherit2@U?$callbacks_element@U?$pair@EC@mpl@boost@@@list_property_definition_callbacks_type@ply_parser@ply@io@pcl@@U?$callbacks_element@U?$pair@EF@mpl@boost@@@23456@@mpl@boost@@U?$callbacks_element@U?$pair@EH@mpl@boost@@@list_property_definition_callbacks_type@ply_parser@ply@io@pcl@@@mpl@boost@@U?$callbacks_element@U?$pair@EE@mpl@boost@@@list_property_definition_callbacks_type@ply_parser@ply@io@pcl@@@mpl@boost@@U?$callbacks_element@U?$pair@EG@mpl@boost@@@list_property_definition_callbacks_type@ply_parser@ply@io@pcl@@@mpl@boost@@U?$callbacks_element@U?$pair@EI@mpl@boost@@@list_property_definition_callbacks_type@ply_parser@ply@io@pcl@@@mpl@boost@@U?$callbacks_element@U?$pair@EM@mpl@boost@@@list_property_definition_callbacks_type@ply_parser@ply@io@pcl@@@mpl@boost@@U?$callbacks_element@U?$pair@EN@mpl@boost@@@list_property_definition_callbacks_type@ply_parser@ply@io@pcl@@@mpl@boost@@U?$callbacks_element@U?$pair@GC@mpl@boost@@@list_property_definition_callbacks_type@ply_parser@ply@io@pcl@@@mpl@boost@@U?$callbacks_element@U?$pair@GF@mpl@boost@@@list_property_definition_callbacks_type@ply_parser@ply@io@pcl@@@mpl@boost@@U?$callbacks_element@U?$pair@GH@mpl@boost@@@list_property_definition_callbacks_type@ply_parser@ply@io@pcl@@@mpl@boost@@U?$callbacks_element@U?$pair@GE@mpl@boost@@@list_property_definition_callbacks_type@ply_parser@ply@io@pcl@@@mpl@boost@@U?$callbacks_element@U?$pair@GG@mpl@boost@@@list_property_definition_callbacks_type@ply_parser@ply@io@pcl@@@mpl@boost@@U?$callbacks_element@U?$pair@GI@mpl@boost@@@list_property_definition_callbacks_type@ply_parser@ply@io@pcl@@@mpl@boost@@U?$callbacks_element@U?$pair@GM@mpl@boost@@@list_property_definition_callbacks_type@ply_parser@ply@io@pcl@@@mpl@boost@@U?$callbacks_element@U?$pair@GN@mpl@boost@@@list_property_definition_callbacks_type@ply_parser@ply@io@pcl@@@mpl@boost@@U?$callbacks_element@U?$pair@IC@mpl@boost@@@list_property_definition_callbacks_type@ply_parser@ply@io@pcl@@@mpl@boost@@U?$callbacks_element@U?$pair@IF@mpl@boost@@@list_property_definition_callbacks_type@ply_parser@ply@io@pcl@@@mpl@boost@@U?$callbacks_element@U?$pair@IH@mpl@boost@@@list_property_definition_callbacks_type@ply_parser@ply@io@pcl@@@mpl@boost@@U?$callbacks_element@U?$pair@IE@mpl@boost@@@list_property_definition_callbacks_type@ply_parser@ply@io@pcl@@@mpl@boost@@U?$callbacks_element@U?$pair@IG@mpl@boost@@@list_property_definition_callbacks_type@ply_parser@ply@io@pcl@@@mpl@boost@@U?$callbacks_element@U?$pair@II@mpl@boost@@@list_property_definition_callbacks_type@ply_parser@ply@io@pcl@@@mpl@boost@@QEAA@XZ@4HA 000000014001de5c f   processply.obj
 0001:0001ce70       ?dtor$0@?0???1?$inherit2@U?$inherit2@U?$inherit2@U?$inherit2@U?$inherit2@U?$inherit2@U?$inherit2@U?$inherit2@U?$inherit2@U?$inherit2@U?$inherit2@U?$inherit2@U?$inherit2@U?$inherit2@U?$inherit2@U?$inherit2@U?$inherit2@U?$inherit2@U?$inherit2@U?$inherit2@U?$inherit2@U?$inherit2@U?$callbacks_element@U?$pair@EC@mpl@boost@@@list_property_definition_callbacks_type@ply_parser@ply@io@pcl@@U?$callbacks_element@U?$pair@EF@mpl@boost@@@23456@@mpl@boost@@U?$callbacks_element@U?$pair@EH@mpl@boost@@@list_property_definition_callbacks_type@ply_parser@ply@io@pcl@@@mpl@boost@@U?$callbacks_element@U?$pair@EE@mpl@boost@@@list_property_definition_callbacks_type@ply_parser@ply@io@pcl@@@mpl@boost@@U?$callbacks_element@U?$pair@EG@mpl@boost@@@list_property_definition_callbacks_type@ply_parser@ply@io@pcl@@@mpl@boost@@U?$callbacks_element@U?$pair@EI@mpl@boost@@@list_property_definition_callbacks_type@ply_parser@ply@io@pcl@@@mpl@boost@@U?$callbacks_element@U?$pair@EM@mpl@boost@@@list_property_definition_callbacks_type@ply_parser@ply@io@pcl@@@mpl@boost@@U?$callbacks_element@U?$pair@EN@mpl@boost@@@list_property_definition_callbacks_type@ply_parser@ply@io@pcl@@@mpl@boost@@U?$callbacks_element@U?$pair@GC@mpl@boost@@@list_property_definition_callbacks_type@ply_parser@ply@io@pcl@@@mpl@boost@@U?$callbacks_element@U?$pair@GF@mpl@boost@@@list_property_definition_callbacks_type@ply_parser@ply@io@pcl@@@mpl@boost@@U?$callbacks_element@U?$pair@GH@mpl@boost@@@list_property_definition_callbacks_type@ply_parser@ply@io@pcl@@@mpl@boost@@U?$callbacks_element@U?$pair@GE@mpl@boost@@@list_property_definition_callbacks_type@ply_parser@ply@io@pcl@@@mpl@boost@@U?$callbacks_element@U?$pair@GG@mpl@boost@@@list_property_definition_callbacks_type@ply_parser@ply@io@pcl@@@mpl@boost@@U?$callbacks_element@U?$pair@GI@mpl@boost@@@list_property_definition_callbacks_type@ply_parser@ply@io@pcl@@@mpl@boost@@U?$callbacks_element@U?$pair@GM@mpl@boost@@@list_property_definition_callbacks_type@ply_parser@ply@io@pcl@@@mpl@boost@@U?$callbacks_element@U?$pair@GN@mpl@boost@@@list_property_definition_callbacks_type@ply_parser@ply@io@pcl@@@mpl@boost@@U?$callbacks_element@U?$pair@IC@mpl@boost@@@list_property_definition_callbacks_type@ply_parser@ply@io@pcl@@@mpl@boost@@U?$callbacks_element@U?$pair@IF@mpl@boost@@@list_property_definition_callbacks_type@ply_parser@ply@io@pcl@@@mpl@boost@@U?$callbacks_element@U?$pair@IH@mpl@boost@@@list_property_definition_callbacks_type@ply_parser@ply@io@pcl@@@mpl@boost@@U?$callbacks_element@U?$pair@IE@mpl@boost@@@list_property_definition_callbacks_type@ply_parser@ply@io@pcl@@@mpl@boost@@U?$callbacks_element@U?$pair@IG@mpl@boost@@@list_property_definition_callbacks_type@ply_parser@ply@io@pcl@@@mpl@boost@@U?$callbacks_element@U?$pair@II@mpl@boost@@@list_property_definition_callbacks_type@ply_parser@ply@io@pcl@@@mpl@boost@@U?$callbacks_element@U?$pair@IM@mpl@boost@@@list_property_definition_callbacks_type@ply_parser@ply@io@pcl@@@mpl@boost@@QEAA@XZ@4HA 000000014001de70 f   processply.obj
 0001:0001ce80       ?dtor$0@?0???1?$inherit2@U?$inherit2@U?$inherit2@U?$inherit2@U?$inherit2@U?$inherit2@U?$inherit2@U?$inherit2@U?$inherit2@U?$inherit2@U?$inherit2@U?$inherit2@U?$inherit2@U?$inherit2@U?$inherit2@U?$inherit2@U?$inherit2@U?$inherit2@U?$inherit2@U?$inherit2@U?$inherit2@U?$inherit2@U?$inherit2@U?$callbacks_element@U?$pair@EC@mpl@boost@@@list_property_definition_callbacks_type@ply_parser@ply@io@pcl@@U?$callbacks_element@U?$pair@EF@mpl@boost@@@23456@@mpl@boost@@U?$callbacks_element@U?$pair@EH@mpl@boost@@@list_property_definition_callbacks_type@ply_parser@ply@io@pcl@@@mpl@boost@@U?$callbacks_element@U?$pair@EE@mpl@boost@@@list_property_definition_callbacks_type@ply_parser@ply@io@pcl@@@mpl@boost@@U?$callbacks_element@U?$pair@EG@mpl@boost@@@list_property_definition_callbacks_type@ply_parser@ply@io@pcl@@@mpl@boost@@U?$callbacks_element@U?$pair@EI@mpl@boost@@@list_property_definition_callbacks_type@ply_parser@ply@io@pcl@@@mpl@boost@@U?$callbacks_element@U?$pair@EM@mpl@boost@@@list_property_definition_callbacks_type@ply_parser@ply@io@pcl@@@mpl@boost@@U?$callbacks_element@U?$pair@EN@mpl@boost@@@list_property_definition_callbacks_type@ply_parser@ply@io@pcl@@@mpl@boost@@U?$callbacks_element@U?$pair@GC@mpl@boost@@@list_property_definition_callbacks_type@ply_parser@ply@io@pcl@@@mpl@boost@@U?$callbacks_element@U?$pair@GF@mpl@boost@@@list_property_definition_callbacks_type@ply_parser@ply@io@pcl@@@mpl@boost@@U?$callbacks_element@U?$pair@GH@mpl@boost@@@list_property_definition_callbacks_type@ply_parser@ply@io@pcl@@@mpl@boost@@U?$callbacks_element@U?$pair@GE@mpl@boost@@@list_property_definition_callbacks_type@ply_parser@ply@io@pcl@@@mpl@boost@@U?$callbacks_element@U?$pair@GG@mpl@boost@@@list_property_definition_callbacks_type@ply_parser@ply@io@pcl@@@mpl@boost@@U?$callbacks_element@U?$pair@GI@mpl@boost@@@list_property_definition_callbacks_type@ply_parser@ply@io@pcl@@@mpl@boost@@U?$callbacks_element@U?$pair@GM@mpl@boost@@@list_property_definition_callbacks_type@ply_parser@ply@io@pcl@@@mpl@boost@@U?$callbacks_element@U?$pair@GN@mpl@boost@@@list_property_definition_callbacks_type@ply_parser@ply@io@pcl@@@mpl@boost@@U?$callbacks_element@U?$pair@IC@mpl@boost@@@list_property_definition_callbacks_type@ply_parser@ply@io@pcl@@@mpl@boost@@U?$callbacks_element@U?$pair@IF@mpl@boost@@@list_property_definition_callbacks_type@ply_parser@ply@io@pcl@@@mpl@boost@@U?$callbacks_element@U?$pair@IH@mpl@boost@@@list_property_definition_callbacks_type@ply_parser@ply@io@pcl@@@mpl@boost@@U?$callbacks_element@U?$pair@IE@mpl@boost@@@list_property_definition_callbacks_type@ply_parser@ply@io@pcl@@@mpl@boost@@U?$callbacks_element@U?$pair@IG@mpl@boost@@@list_property_definition_callbacks_type@ply_parser@ply@io@pcl@@@mpl@boost@@U?$callbacks_element@U?$pair@II@mpl@boost@@@list_property_definition_callbacks_type@ply_parser@ply@io@pcl@@@mpl@boost@@U?$callbacks_element@U?$pair@IM@mpl@boost@@@list_property_definition_callbacks_type@ply_parser@ply@io@pcl@@@mpl@boost@@U?$callbacks_element@U?$pair@IN@mpl@boost@@@list_property_definition_callbacks_type@ply_parser@ply@io@pcl@@@mpl@boost@@QEAA@XZ@4HA 000000014001de80 f   processply.obj
 0001:0001ce8c       ?dtor$4@?0???1?$inherit2@U?$inherit2@U?$inherit2@U?$inherit2@U?$inherit2@U?$inherit2@U?$inherit2@U?$inherit2@U?$inherit2@U?$inherit2@U?$inherit2@U?$inherit2@U?$inherit2@U?$inherit2@U?$inherit2@U?$inherit2@U?$inherit2@U?$inherit2@U?$inherit2@U?$inherit2@U?$inherit2@U?$inherit2@U?$inherit2@U?$callbacks_element@U?$pair@EC@mpl@boost@@@list_property_definition_callbacks_type@ply_parser@ply@io@pcl@@U?$callbacks_element@U?$pair@EF@mpl@boost@@@23456@@mpl@boost@@U?$callbacks_element@U?$pair@EH@mpl@boost@@@list_property_definition_callbacks_type@ply_parser@ply@io@pcl@@@mpl@boost@@U?$callbacks_element@U?$pair@EE@mpl@boost@@@list_property_definition_callbacks_type@ply_parser@ply@io@pcl@@@mpl@boost@@U?$callbacks_element@U?$pair@EG@mpl@boost@@@list_property_definition_callbacks_type@ply_parser@ply@io@pcl@@@mpl@boost@@U?$callbacks_element@U?$pair@EI@mpl@boost@@@list_property_definition_callbacks_type@ply_parser@ply@io@pcl@@@mpl@boost@@U?$callbacks_element@U?$pair@EM@mpl@boost@@@list_property_definition_callbacks_type@ply_parser@ply@io@pcl@@@mpl@boost@@U?$callbacks_element@U?$pair@EN@mpl@boost@@@list_property_definition_callbacks_type@ply_parser@ply@io@pcl@@@mpl@boost@@U?$callbacks_element@U?$pair@GC@mpl@boost@@@list_property_definition_callbacks_type@ply_parser@ply@io@pcl@@@mpl@boost@@U?$callbacks_element@U?$pair@GF@mpl@boost@@@list_property_definition_callbacks_type@ply_parser@ply@io@pcl@@@mpl@boost@@U?$callbacks_element@U?$pair@GH@mpl@boost@@@list_property_definition_callbacks_type@ply_parser@ply@io@pcl@@@mpl@boost@@U?$callbacks_element@U?$pair@GE@mpl@boost@@@list_property_definition_callbacks_type@ply_parser@ply@io@pcl@@@mpl@boost@@U?$callbacks_element@U?$pair@GG@mpl@boost@@@list_property_definition_callbacks_type@ply_parser@ply@io@pcl@@@mpl@boost@@U?$callbacks_element@U?$pair@GI@mpl@boost@@@list_property_definition_callbacks_type@ply_parser@ply@io@pcl@@@mpl@boost@@U?$callbacks_element@U?$pair@GM@mpl@boost@@@list_property_definition_callbacks_type@ply_parser@ply@io@pcl@@@mpl@boost@@U?$callbacks_element@U?$pair@GN@mpl@boost@@@list_property_definition_callbacks_type@ply_parser@ply@io@pcl@@@mpl@boost@@U?$callbacks_element@U?$pair@IC@mpl@boost@@@list_property_definition_callbacks_type@ply_parser@ply@io@pcl@@@mpl@boost@@U?$callbacks_element@U?$pair@IF@mpl@boost@@@list_property_definition_callbacks_type@ply_parser@ply@io@pcl@@@mpl@boost@@U?$callbacks_element@U?$pair@IH@mpl@boost@@@list_property_definition_callbacks_type@ply_parser@ply@io@pcl@@@mpl@boost@@U?$callbacks_element@U?$pair@IE@mpl@boost@@@list_property_definition_callbacks_type@ply_parser@ply@io@pcl@@@mpl@boost@@U?$callbacks_element@U?$pair@IG@mpl@boost@@@list_property_definition_callbacks_type@ply_parser@ply@io@pcl@@@mpl@boost@@U?$callbacks_element@U?$pair@II@mpl@boost@@@list_property_definition_callbacks_type@ply_parser@ply@io@pcl@@@mpl@boost@@U?$callbacks_element@U?$pair@IM@mpl@boost@@@list_property_definition_callbacks_type@ply_parser@ply@io@pcl@@@mpl@boost@@U?$callbacks_element@U?$pair@IN@mpl@boost@@@list_property_definition_callbacks_type@ply_parser@ply@io@pcl@@@mpl@boost@@QEAA@XZ@4HA 000000014001de8c f   processply.obj
 0001:0001cea0       ?dtor$0@?0???1?$iterator_range_base@Vdirectory_iterator@filesystem@boost@@Uincrementable_traversal_tag@iterators@3@@iterator_range_detail@boost@@QEAA@XZ@4HA 000000014001dea0 f   processply.obj
 0001:0001ceb0       ?dtor$0@?0???1ply_parser@ply@io@pcl@@QEAA@XZ@4HA 000000014001deb0 f   processply.obj
 0001:0001cebc       ?dtor$1@?0???1ply_parser@ply@io@pcl@@QEAA@XZ@4HA 000000014001debc f   processply.obj
 0001:0001cecc       ?dtor$2@?0???1ply_parser@ply@io@pcl@@QEAA@XZ@4HA 000000014001decc f   processply.obj
 0001:0001cedc       ?dtor$3@?0???1ply_parser@ply@io@pcl@@QEAA@XZ@4HA 000000014001dedc f   processply.obj
 0001:0001ceec       ?dtor$4@?0???1ply_parser@ply@io@pcl@@QEAA@XZ@4HA 000000014001deec f   processply.obj
 0001:0001ceff       ?dtor$5@?0???1ply_parser@ply@io@pcl@@QEAA@XZ@4HA 000000014001deff f   processply.obj
 0001:0001cf12       ?dtor$6@?0???1ply_parser@ply@io@pcl@@QEAA@XZ@4HA 000000014001df12 f   processply.obj
 0001:0001cf25       ?dtor$7@?0???1ply_parser@ply@io@pcl@@QEAA@XZ@4HA 000000014001df25 f   processply.obj
 0001:0001cf38       ?dtor$8@?0???1ply_parser@ply@io@pcl@@QEAA@XZ@4HA 000000014001df38 f   processply.obj
 0001:0001cf4b       ?dtor$9@?0???1ply_parser@ply@io@pcl@@QEAA@XZ@4HA 000000014001df4b f   processply.obj
 0001:0001cf60       ?catch$0@?0???4?$vector@UPointXYZRGB@pcl@@V?$aligned_allocator@UPointXYZRGB@pcl@@@Eigen@@@std@@QEAAAEAV01@AEBV01@@Z@4HA 000000014001df60 f   processply.obj
 0001:0001cf6d       __catch$??4?$vector@UPointXYZRGB@pcl@@V?$aligned_allocator@UPointXYZRGB@pcl@@@Eigen@@@std@@QEAAAEAV01@AEBV01@@Z$0 000000014001df6d f   processply.obj
 0001:0001cf80       ?dtor$0@?0???Kfilesystem@boost@@YA?AVpath@01@AEBV201@0@Z@4HA 000000014001df80 f   processply.obj
 0001:0001cf90       ?dtor$0@?0???_GPLYReader@pcl@@UEAAPEAXI@Z@4HA 000000014001df90 f   processply.obj
 0001:0001cf90       ?dtor$0@?0???1PLYReader@pcl@@UEAA@XZ@4HA 000000014001df90 f   processply.obj
 0001:0001cfa0       ?catch$1@?0??_Copy@?$basic_string@_WU?$char_traits@_W@std@@V?$allocator@_W@2@@std@@QEAAX_K0@Z@4HA 000000014001dfa0 f   processply.obj
 0001:0001cfad       __catch$?_Copy@?$basic_string@_WU?$char_traits@_W@std@@V?$allocator@_W@2@@std@@QEAAX_K0@Z$0 000000014001dfad f   processply.obj
 0001:0001cff0       ?catch$0@?0??_Copy@?$basic_string@_WU?$char_traits@_W@std@@V?$allocator@_W@2@@std@@QEAAX_K0@Z@4HA 000000014001dff0 f   processply.obj
 0001:0001cffe       __catch$?_Copy@?$basic_string@_WU?$char_traits@_W@std@@V?$allocator@_W@2@@std@@QEAAX_K0@Z$1 000000014001dffe f   processply.obj
 0001:0001d030       ?catch$0@?0??_Reallocate@?$vector@EV?$allocator@E@std@@@std@@IEAAX_K@Z@4HA 000000014001e030 f   processply.obj
 0001:0001d03d       __catch$?_Reallocate@?$vector@EV?$allocator@E@std@@@std@@IEAAX_K@Z$0 000000014001e03d f   processply.obj
 0001:0001d050       ?catch$0@?0??_Reallocate@?$vector@UFieldMapping@detail@pcl@@V?$allocator@UFieldMapping@detail@pcl@@@std@@@std@@IEAAX_K@Z@4HA 000000014001e050 f   processply.obj
 0001:0001d05d       __catch$?_Reallocate@?$vector@UFieldMapping@detail@pcl@@V?$allocator@UFieldMapping@detail@pcl@@@std@@@std@@IEAAX_K@Z$0 000000014001e05d f   processply.obj
 0001:0001d070       ?catch$0@?0??_Reallocate@?$vector@UPCLPointField@pcl@@V?$allocator@UPCLPointField@pcl@@@std@@@std@@IEAAX_K@Z@4HA 000000014001e070 f   processply.obj
 0001:0001d07d       __catch$?_Reallocate@?$vector@UPCLPointField@pcl@@V?$allocator@UPCLPointField@pcl@@@std@@@std@@IEAAX_K@Z$0 000000014001e07d f   processply.obj
 0001:0001d0a0       ?catch$0@?0??_Reallocate@?$vector@UPointXYZRGB@pcl@@V?$aligned_allocator@UPointXYZRGB@pcl@@@Eigen@@@std@@IEAAX_K@Z@4HA 000000014001e0a0 f   processply.obj
 0001:0001d0ad       __catch$?_Reallocate@?$vector@UPointXYZRGB@pcl@@V?$aligned_allocator@UPointXYZRGB@pcl@@@Eigen@@@std@@IEAAX_K@Z$0 000000014001e0ad f   processply.obj
 0001:0001d0d0       ?dtor$0@?0??clearDirectory@@YAXVpath@filesystem@boost@@@Z@4HA 000000014001e0d0 f   processply.obj
 0001:0001d0dc       ?dtor$1@?0??clearDirectory@@YAXVpath@filesystem@boost@@@Z@4HA 000000014001e0dc f   processply.obj
 0001:0001d0e8       ?dtor$6@?0??clearDirectory@@YAXVpath@filesystem@boost@@@Z@4HA 000000014001e0e8 f   processply.obj
 0001:0001d0f8       ?dtor$5@?0??clearDirectory@@YAXVpath@filesystem@boost@@@Z@4HA 000000014001e0f8 f   processply.obj
 0001:0001d104       ?dtor$2@?0??clearDirectory@@YAXVpath@filesystem@boost@@@Z@4HA 000000014001e104 f   processply.obj
 0001:0001d110       ?dtor$3@?0??clearDirectory@@YAXVpath@filesystem@boost@@@Z@4HA 000000014001e110 f   processply.obj
 0001:0001d120       ?dtor$0@?0??clone@?$clone_impl@Ubad_alloc_@exception_detail@boost@@@exception_detail@boost@@EEBAPEBVclone_base@23@XZ@4HA 000000014001e120 f   processply.obj
 0001:0001d12c       ?dtor$1@?0??clone@?$clone_impl@Ubad_alloc_@exception_detail@boost@@@exception_detail@boost@@EEBAPEBVclone_base@23@XZ@4HA 000000014001e12c f   processply.obj
 0001:0001d156       ?dtor$2@?0??clone@?$clone_impl@Ubad_alloc_@exception_detail@boost@@@exception_detail@boost@@EEBAPEBVclone_base@23@XZ@4HA 000000014001e156 f   processply.obj
 0001:0001d170       ?dtor$0@?0??clone@?$clone_impl@Ubad_exception_@exception_detail@boost@@@exception_detail@boost@@EEBAPEBVclone_base@23@XZ@4HA 000000014001e170 f   processply.obj
 0001:0001d17c       ?dtor$1@?0??clone@?$clone_impl@Ubad_exception_@exception_detail@boost@@@exception_detail@boost@@EEBAPEBVclone_base@23@XZ@4HA 000000014001e17c f   processply.obj
 0001:0001d1a6       ?dtor$2@?0??clone@?$clone_impl@Ubad_exception_@exception_detail@boost@@@exception_detail@boost@@EEBAPEBVclone_base@23@XZ@4HA 000000014001e1a6 f   processply.obj
 0001:0001d1c0       ?dtor$0@?0??filter@?$Filter@UPointXYZRGB@pcl@@@pcl@@QEAAXAEAV?$PointCloud@UPointXYZRGB@pcl@@@2@@Z@4HA 000000014001e1c0 f   processply.obj
 0001:0001d1d0       ?dtor$0@?0??findLatestFile@@YA?AVpath@filesystem@boost@@V123@@Z@4HA 000000014001e1d0 f   processply.obj
 0001:0001d1dc       ?dtor$1@?0??findLatestFile@@YA?AVpath@filesystem@boost@@V123@@Z@4HA 000000014001e1dc f   processply.obj
 0001:0001d205       ?dtor$12@?0??findLatestFile@@YA?AVpath@filesystem@boost@@V123@@Z@4HA 000000014001e205 f   processply.obj
 0001:0001d215       ?dtor$11@?0??findLatestFile@@YA?AVpath@filesystem@boost@@V123@@Z@4HA 000000014001e215 f   processply.obj
 0001:0001d221       ?dtor$2@?0??findLatestFile@@YA?AVpath@filesystem@boost@@V123@@Z@4HA 000000014001e221 f   processply.obj
 0001:0001d22d       ?dtor$3@?0??findLatestFile@@YA?AVpath@filesystem@boost@@V123@@Z@4HA 000000014001e22d f   processply.obj
 0001:0001d239       ?dtor$4@?0??findLatestFile@@YA?AVpath@filesystem@boost@@V123@@Z@4HA 000000014001e239 f   processply.obj
 0001:0001d245       ?dtor$5@?0??findLatestFile@@YA?AVpath@filesystem@boost@@V123@@Z@4HA 000000014001e245 f   processply.obj
 0001:0001d251       ?dtor$6@?0??findLatestFile@@YA?AVpath@filesystem@boost@@V123@@Z@4HA 000000014001e251 f   processply.obj
 0001:0001d25d       ?dtor$16@?0??findLatestFile@@YA?AVpath@filesystem@boost@@V123@@Z@4HA 000000014001e25d f   processply.obj
 0001:0001d269       ?dtor$17@?0??findLatestFile@@YA?AVpath@filesystem@boost@@V123@@Z@4HA 000000014001e269 f   processply.obj
 0001:0001d275       ?dtor$7@?0??findLatestFile@@YA?AVpath@filesystem@boost@@V123@@Z@4HA 000000014001e275 f   processply.obj
 0001:0001d29e       ?dtor$8@?0??findLatestFile@@YA?AVpath@filesystem@boost@@V123@@Z@4HA 000000014001e29e f   processply.obj
 0001:0001d2c7       ?dtor$23@?0??findLatestFile@@YA?AVpath@filesystem@boost@@V123@@Z@4HA 000000014001e2c7 f   processply.obj
 0001:0001d2d3       ?dtor$9@?0??findLatestFile@@YA?AVpath@filesystem@boost@@V123@@Z@4HA 000000014001e2d3 f   processply.obj
 0001:0001d2e0       ?dtor$0@?0??processply@Pointcloud@@QEAAXXZ@4HA 000000014001e2e0 f   processply.obj
 0001:0001d2ec       ?dtor$1@?0??processply@Pointcloud@@QEAAXXZ@4HA 000000014001e2ec f   processply.obj
 0001:0001d2f8       ?dtor$3@?0??processply@Pointcloud@@QEAAXXZ@4HA 000000014001e2f8 f   processply.obj
 0001:0001d310       ?dtor$0@?0??push_back@?$vector@UPCLPointField@pcl@@V?$allocator@UPCLPointField@pcl@@@std@@@std@@QEAAXAEBUPCLPointField@pcl@@@Z@4HA 000000014001e310 f   processply.obj
 0001:0001d310       ?dtor$0@?0??push_back@?$vector@V?$basic_resolver_entry@Vudp@ip@asio@boost@@@ip@asio@boost@@V?$allocator@V?$basic_resolver_entry@Vudp@ip@asio@boost@@@ip@asio@boost@@@std@@@std@@QEAAX$$QEAV?$basic_resolver_entry@Vudp@ip@asio@boost@@@ip@asio@boost@@@Z@4HA 000000014001e310 f   processply.obj
 0001:0001d32c       ?dtor$2@?0??push_back@?$vector@UPCLPointField@pcl@@V?$allocator@UPCLPointField@pcl@@@std@@@std@@QEAAXAEBUPCLPointField@pcl@@@Z@4HA 000000014001e32c f   processply.obj
 0001:0001d32c       ?dtor$1@?0??push_back@?$vector@V?$basic_resolver_entry@Vudp@ip@asio@boost@@@ip@asio@boost@@V?$allocator@V?$basic_resolver_entry@Vudp@ip@asio@boost@@@ip@asio@boost@@@std@@@std@@QEAAX$$QEAV?$basic_resolver_entry@Vudp@ip@asio@boost@@@ip@asio@boost@@@Z@4HA 000000014001e32c f   processply.obj
 0001:0001d350       ?dtor$1@?0??readply@Pointcloud@@QEAAXXZ@4HA 000000014001e350 f   processply.obj
 0001:0001d35c       ?dtor$2@?0??readply@Pointcloud@@QEAAXXZ@4HA 000000014001e35c f   processply.obj
 0001:0001d368       ?dtor$4@?0??readply@Pointcloud@@QEAAXXZ@4HA 000000014001e368 f   processply.obj
 0001:0001d374       ?dtor$5@?0??readply@Pointcloud@@QEAAXXZ@4HA 000000014001e374 f   processply.obj
 0001:0001d380       ?dtor$4@?0??removeOutlyers@Pointcloud@@QEAAXXZ@4HA 000000014001e380 f   processply.obj
 0001:0001d390       ?dtor$1@?0??removeOutlyers@Pointcloud@@QEAAXXZ@4HA 000000014001e390 f   processply.obj
 0001:0001d39c       ?dtor$9@?0??removeOutlyers@Pointcloud@@QEAAXXZ@4HA 000000014001e39c f   processply.obj
 0001:0001d3a8       ?dtor$13@?0??removeOutlyers@Pointcloud@@QEAAXXZ@4HA 000000014001e3a8 f   processply.obj
 0001:0001d3b8       ?dtor$6@?0??removeOutlyers@Pointcloud@@QEAAXXZ@4HA 000000014001e3b8 f   processply.obj
 0001:0001d3c4       ?dtor$7@?0??removeOutlyers@Pointcloud@@QEAAXXZ@4HA 000000014001e3c4 f   processply.obj
 0001:0001d3d4       ?dtor$2@?0??removeOutlyers@Pointcloud@@QEAAXXZ@4HA 000000014001e3d4 f   processply.obj
 0001:0001d3e0       ?dtor$3@?0??removeOutlyers@Pointcloud@@QEAAXXZ@4HA 000000014001e3e0 f   processply.obj
 0001:0001d3ec       ?dtor$15@?0??removeOutlyers@Pointcloud@@QEAAXXZ@4HA 000000014001e3ec f   processply.obj
 0001:0001d3f8       ?dtor$19@?0??removeOutlyers@Pointcloud@@QEAAXXZ@4HA 000000014001e3f8 f   processply.obj
 0001:0001d410       ?catch$0@?0??resize@?$vector@EV?$allocator@E@std@@@std@@QEAAX_K@Z@4HA 000000014001e410 f   processply.obj
 0001:0001d41d       __catch$?resize@?$vector@EV?$allocator@E@std@@@std@@QEAAX_K@Z$0 000000014001e41d f   processply.obj
 0001:0001d430       ?catch$0@?0??resize@?$vector@UPointXYZRGB@pcl@@V?$aligned_allocator@UPointXYZRGB@pcl@@@Eigen@@@std@@QEAAX_K@Z@4HA 000000014001e430 f   processply.obj
 0001:0001d43d       __catch$?resize@?$vector@UPointXYZRGB@pcl@@V?$aligned_allocator@UPointXYZRGB@pcl@@@Eigen@@@std@@QEAAX_K@Z$0 000000014001e43d f   processply.obj
 0001:0001d450       ?dtor$0@?0??rethrow@?$clone_impl@Ubad_alloc_@exception_detail@boost@@@exception_detail@boost@@EEBAXXZ@4HA 000000014001e450 f   processply.obj
 0001:0001d450       ?dtor$0@?0??rethrow@?$clone_impl@Ubad_exception_@exception_detail@boost@@@exception_detail@boost@@EEBAXXZ@4HA 000000014001e450 f   processply.obj
 0001:0001d480       ?dtor$2@?0??rethrow@?$clone_impl@Ubad_exception_@exception_detail@boost@@@exception_detail@boost@@EEBAXXZ@4HA 000000014001e480 f   processply.obj
 0001:0001d480       ?dtor$2@?0??rethrow@?$clone_impl@Ubad_alloc_@exception_detail@boost@@@exception_detail@boost@@EEBAXXZ@4HA 000000014001e480 f   processply.obj
 0001:0001d490       ?dtor$0@?0??setLuxorCloudsDirectory@Pointcloud@@QEAAXXZ@4HA 000000014001e490 f   processply.obj
 0001:0001d49c       ?dtor$1@?0??setLuxorCloudsDirectory@Pointcloud@@QEAAXXZ@4HA 000000014001e49c f   processply.obj
 0001:0001d4a8       ?dtor$2@?0??setLuxorCloudsDirectory@Pointcloud@@QEAAXXZ@4HA 000000014001e4a8 f   processply.obj
 0001:0001d4c0       ?dtor$0@?0??string@path@filesystem@boost@@QEBA?BV?$basic_string@DU?$char_traits@D@std@@V?$allocator@D@2@@std@@XZ@4HA 000000014001e4c0 f   processply.obj
 0001:0001d4c0       ?dtor$0@?0??message@codecvt_error_cat@?A0x07dec8fe@@UEBA?AV?$basic_string@DU?$char_traits@D@std@@V?$allocator@D@2@@std@@H@Z@4HA 000000014001e4c0 f   processply.obj
 0001:0001d4f0       ?dtor$0@?0???0?$basic_ostringstream@DU?$char_traits@D@std@@V?$allocator@D@2@@std@@QEAA@H@Z@4HA 000000014001e4f0 f   processcontrol.obj
 0001:0001d51e       ?dtor$1@?0???0?$basic_ostringstream@DU?$char_traits@D@std@@V?$allocator@D@2@@std@@QEAA@H@Z@4HA 000000014001e51e f   processcontrol.obj
 0001:0001d530       ?dtor$0@?0???0?$basic_stringbuf@DU?$char_traits@D@std@@V?$allocator@D@2@@std@@QEAA@H@Z@4HA 000000014001e530 f   processcontrol.obj
 0001:0001d540       ?dtor$0@?0???0ProcessControl@@QEAA@XZ@4HA 000000014001e540 f   processcontrol.obj
 0001:0001d54c       ?dtor$1@?0???0ProcessControl@@QEAA@XZ@4HA 000000014001e54c f   processcontrol.obj
 0001:0001d55f       ?dtor$2@?0???0ProcessControl@@QEAA@XZ@4HA 000000014001e55f f   processcontrol.obj
 0001:0001d572       ?dtor$3@?0???0ProcessControl@@QEAA@XZ@4HA 000000014001e572 f   processcontrol.obj
 0001:0001d585       ?dtor$4@?0???0ProcessControl@@QEAA@XZ@4HA 000000014001e585 f   processcontrol.obj
 0001:0001d598       ?dtor$5@?0???0ProcessControl@@QEAA@XZ@4HA 000000014001e598 f   processcontrol.obj
 0001:0001d5ab       ?dtor$6@?0???0ProcessControl@@QEAA@XZ@4HA 000000014001e5ab f   processcontrol.obj
 0001:0001d5c0       ?dtor$0@?0???1Pointcloud@@QEAA@XZ@4HA 000000014001e5c0 f   processcontrol.obj
 0001:0001d5cc       ?dtor$1@?0???1Pointcloud@@QEAA@XZ@4HA 000000014001e5cc f   processcontrol.obj
 0001:0001d5e0       ?dtor$1@?0??DetectObject@ProcessControl@@QEAAXXZ@4HA 000000014001e5e0 f   processcontrol.obj
 0001:0001d5ec       ?catch$0@?0??DetectObject@ProcessControl@@QEAAXXZ@4HA 000000014001e5ec f   processcontrol.obj
 0001:0001d5f9       __catch$?DetectObject@ProcessControl@@QEAAXXZ$0 000000014001e5f9 f   processcontrol.obj
 0001:0001d620       ?dtor$1@?0??ScanObject@ProcessControl@@QEAAXXZ@4HA 000000014001e620 f   processcontrol.obj
 0001:0001d62c       ?dtor$3@?0??ScanObject@ProcessControl@@QEAAXXZ@4HA 000000014001e62c f   processcontrol.obj
 0001:0001d638       ?dtor$6@?0??ScanObject@ProcessControl@@QEAAXXZ@4HA 000000014001e638 f   processcontrol.obj
 0001:0001d644       ?dtor$7@?0??ScanObject@ProcessControl@@QEAAXXZ@4HA 000000014001e644 f   processcontrol.obj
 0001:0001d650       ?dtor$8@?0??ScanObject@ProcessControl@@QEAAXXZ@4HA 000000014001e650 f   processcontrol.obj
 0001:0001d660       ?catch$0@?0??ScanObject@ProcessControl@@QEAAXXZ@4HA 000000014001e660 f   processcontrol.obj
 0001:0001d66d       __catch$?ScanObject@ProcessControl@@QEAAXXZ$0 000000014001e66d f   processcontrol.obj
 0001:0001d690       ?dtor$0@?0??Trigger@ProcessControl@@QEAAXXZ@4HA 000000014001e690 f   processcontrol.obj
 0001:0001d69c       ?dtor$3@?0??Trigger@ProcessControl@@QEAAXXZ@4HA 000000014001e69c f   processcontrol.obj
 0001:0001d6b0       ?dtor$0@?0??setAquisitionModes@ProcessControl@@QEAAXV?$basic_string@DU?$char_traits@D@std@@V?$allocator@D@2@@std@@0@Z@4HA 000000014001e6b0 f   processcontrol.obj
 0001:0001d6bc       ?dtor$1@?0??setAquisitionModes@ProcessControl@@QEAAXV?$basic_string@DU?$char_traits@D@std@@V?$allocator@D@2@@std@@0@Z@4HA 000000014001e6bc f   processcontrol.obj
 0001:0001d6d0       ?dtor$0@?0??setModelPath@ProcessControl@@QEAAXV?$basic_string@DU?$char_traits@D@std@@V?$allocator@D@2@@std@@@Z@4HA 000000014001e6d0 f   processcontrol.obj
 0001:0001d6dc       ?dtor$2@?0??setModelPath@ProcessControl@@QEAAXV?$basic_string@DU?$char_traits@D@std@@V?$allocator@D@2@@std@@@Z@4HA 000000014001e6dc f   processcontrol.obj
 0001:0001d6e8       ?dtor$1@?0??setModelPath@ProcessControl@@QEAAXV?$basic_string@DU?$char_traits@D@std@@V?$allocator@D@2@@std@@@Z@4HA 000000014001e6e8 f   processcontrol.obj
 0001:0001d700       ?dtor$0@?0??setPort@ProcessControl@@QEAAXV?$basic_string@DU?$char_traits@D@std@@V?$allocator@D@2@@std@@@Z@4HA 000000014001e700 f   processcontrol.obj
 0001:0001d700       ?dtor$0@?0??setIp@ProcessControl@@QEAAXV?$basic_string@DU?$char_traits@D@std@@V?$allocator@D@2@@std@@@Z@4HA 000000014001e700 f   processcontrol.obj
 0001:0001d710       ?dtor$2@?0??startprocess@ProcessControl@@QEAAXXZ@4HA 000000014001e710 f   processcontrol.obj
 0001:0001d720       ?dtor$0@?0??switchAquisitionMode@ProcessControl@@QEAAXV?$basic_string@DU?$char_traits@D@std@@V?$allocator@D@2@@std@@@Z@4HA 000000014001e720 f   processcontrol.obj
 0001:0001d72c       ?dtor$1@?0??switchAquisitionMode@ProcessControl@@QEAAXV?$basic_string@DU?$char_traits@D@std@@V?$allocator@D@2@@std@@@Z@4HA 000000014001e72c f   processcontrol.obj
 0001:0001d738       ?dtor$2@?0??switchAquisitionMode@ProcessControl@@QEAAXV?$basic_string@DU?$char_traits@D@std@@V?$allocator@D@2@@std@@@Z@4HA 000000014001e738 f   processcontrol.obj
 0001:0001d744       ?catch$0@?0??switchAquisitionMode@ProcessControl@@QEAAXV?$basic_string@DU?$char_traits@D@std@@V?$allocator@D@2@@std@@@Z@4HA 000000014001e744 f   processcontrol.obj
 0001:0001d751       __catch$?switchAquisitionMode@ProcessControl@@QEAAXV?$basic_string@DU?$char_traits@D@std@@V?$allocator@D@2@@std@@@Z$0 000000014001e751 f   processcontrol.obj
 0001:0001d770       ?catch$0@?0???$?0V?$vector@EV?$allocator@E@std@@@std@@@shared_count@detail@boost@@QEAA@PEAV?$vector@EV?$allocator@E@std@@@std@@@Z@4HA 000000014001e770 f   festo_udp_func.obj
 0001:0001d77d       __catch$??$?0V?$vector@EV?$allocator@E@std@@@std@@@shared_count@detail@boost@@QEAA@PEAV?$vector@EV?$allocator@E@std@@@std@@@Z$0 000000014001e77d f   festo_udp_func.obj
 0001:0001d790       ?catch$0@?0???$_Buynode@AEBUpiecewise_construct_t@std@@V?$tuple@AEBG@2@V?$tuple@$$$V@2@@?$_Tree_buy@U?$pair@$$CBGG@std@@V?$allocator@U?$pair@$$CBGG@std@@@2@@std@@QEAAPEAU?$_Tree_node@U?$pair@$$CBGG@std@@PEAX@1@AEBUpiecewise_construct_t@1@$$QEAV?$tuple@AEBG@1@$$QEAV?$tuple@$$$V@1@@Z@4HA 000000014001e790 f   festo_udp_func.obj
 0001:0001d79d       __catch$??$_Buynode@AEBUpiecewise_construct_t@std@@V?$tuple@AEBG@2@V?$tuple@$$$V@2@@?$_Tree_buy@U?$pair@$$CBGG@std@@V?$allocator@U?$pair@$$CBGG@std@@@2@@std@@QEAAPEAU?$_Tree_node@U?$pair@$$CBGG@std@@PEAX@1@AEBUpiecewise_construct_t@1@$$QEAV?$tuple@AEBG@1@$$QEAV?$tuple@$$$V@1@@Z$0 000000014001e79d f   festo_udp_func.obj
 0001:0001d7b0       ?catch$0@?0???$_Insert_hint@AEAU?$pair@$$CBGG@std@@PEAU?$_Tree_node@U?$pair@$$CBGG@std@@PEAX@2@@?$_Tree@V?$_Tmap_traits@GGU?$less@G@std@@V?$allocator@U?$pair@$$CBGG@std@@@2@$0A@@std@@@std@@IEAA?AV?$_Tree_iterator@V?$_Tree_val@U?$_Tree_simple_types@U?$pair@$$CBGG@std@@@std@@@std@@@1@V?$_Tree_const_iterator@V?$_Tree_val@U?$_Tree_simple_types@U?$pair@$$CBGG@std@@@std@@@std@@@1@AEAU?$pair@$$CBGG@1@PEAU?$_Tree_node@U?$pair@$$CBGG@std@@PEAX@1@@Z@4HA 000000014001e7b0 f   festo_udp_func.obj
 0001:0001d7bd       __catch$??$_Insert_hint@AEAU?$pair@$$CBGG@std@@PEAU?$_Tree_node@U?$pair@$$CBGG@std@@PEAX@2@@?$_Tree@V?$_Tmap_traits@GGU?$less@G@std@@V?$allocator@U?$pair@$$CBGG@std@@@2@$0A@@std@@@std@@IEAA?AV?$_Tree_iterator@V?$_Tree_val@U?$_Tree_simple_types@U?$pair@$$CBGG@std@@@std@@@std@@@1@V?$_Tree_const_iterator@V?$_Tree_val@U?$_Tree_simple_types@U?$pair@$$CBGG@std@@@std@@@std@@@1@AEAU?$pair@$$CBGG@1@PEAU?$_Tree_node@U?$pair@$$CBGG@std@@PEAX@1@@Z$0 000000014001e7bd f   festo_udp_func.obj
 0001:0001d7e0       ?catch$0@?0???$_Insert_nohint@AEAU?$pair@$$CBGG@std@@PEAU?$_Tree_node@U?$pair@$$CBGG@std@@PEAX@2@@?$_Tree@V?$_Tmap_traits@GGU?$less@G@std@@V?$allocator@U?$pair@$$CBGG@std@@@2@$0A@@std@@@std@@IEAA?AU?$pair@V?$_Tree_iterator@V?$_Tree_val@U?$_Tree_simple_types@U?$pair@$$CBGG@std@@@std@@@std@@@std@@_N@1@_NAEAU?$pair@$$CBGG@1@PEAU?$_Tree_node@U?$pair@$$CBGG@std@@PEAX@1@@Z@4HA 000000014001e7e0 f   festo_udp_func.obj
 0001:0001d7ed       __catch$??$_Insert_nohint@AEAU?$pair@$$CBGG@std@@PEAU?$_Tree_node@U?$pair@$$CBGG@std@@PEAX@2@@?$_Tree@V?$_Tmap_traits@GGU?$less@G@std@@V?$allocator@U?$pair@$$CBGG@std@@@2@$0A@@std@@@std@@IEAA?AU?$pair@V?$_Tree_iterator@V?$_Tree_val@U?$_Tree_simple_types@U?$pair@$$CBGG@std@@@std@@@std@@@std@@_N@1@_NAEAU?$pair@$$CBGG@1@PEAU?$_Tree_node@U?$pair@$$CBGG@std@@PEAX@1@@Z$0 000000014001e7ed f   festo_udp_func.obj
 0001:0001d800       ?dtor$0@?0??LuxorSwitchAquisitionMode@@YA?AW4eUdpStatus@@V?$basic_string@DU?$char_traits@D@std@@V?$allocator@D@2@@std@@00@Z@4HA 000000014001e800 f   festo_udp_func.obj
 0001:0001d80c       ?dtor$1@?0??LuxorSwitchAquisitionMode@@YA?AW4eUdpStatus@@V?$basic_string@DU?$char_traits@D@std@@V?$allocator@D@2@@std@@00@Z@4HA 000000014001e80c f   festo_udp_func.obj
 0001:0001d818       ?dtor$2@?0??LuxorSwitchAquisitionMode@@YA?AW4eUdpStatus@@V?$basic_string@DU?$char_traits@D@std@@V?$allocator@D@2@@std@@00@Z@4HA 000000014001e818 f   festo_udp_func.obj
 0001:0001d824       ?dtor$3@?0??LuxorSwitchAquisitionMode@@YA?AW4eUdpStatus@@V?$basic_string@DU?$char_traits@D@std@@V?$allocator@D@2@@std@@00@Z@4HA 000000014001e824 f   festo_udp_func.obj
 0001:0001d830       ?dtor$9@?0??LuxorSwitchAquisitionMode@@YA?AW4eUdpStatus@@V?$basic_string@DU?$char_traits@D@std@@V?$allocator@D@2@@std@@00@Z@4HA 000000014001e830 f   festo_udp_func.obj
 0001:0001d840       ?dtor$4@?0??LuxorSwitchAquisitionMode@@YA?AW4eUdpStatus@@V?$basic_string@DU?$char_traits@D@std@@V?$allocator@D@2@@std@@00@Z@4HA 000000014001e840 f   festo_udp_func.obj
 0001:0001d84c       ?dtor$10@?0??LuxorSwitchAquisitionMode@@YA?AW4eUdpStatus@@V?$basic_string@DU?$char_traits@D@std@@V?$allocator@D@2@@std@@00@Z@4HA 000000014001e84c f   festo_udp_func.obj
 0001:0001d85c       ?dtor$5@?0??LuxorSwitchAquisitionMode@@YA?AW4eUdpStatus@@V?$basic_string@DU?$char_traits@D@std@@V?$allocator@D@2@@std@@00@Z@4HA 000000014001e85c f   festo_udp_func.obj
 0001:0001d868       ?dtor$14@?0??LuxorSwitchAquisitionMode@@YA?AW4eUdpStatus@@V?$basic_string@DU?$char_traits@D@std@@V?$allocator@D@2@@std@@00@Z@4HA 000000014001e868 f   festo_udp_func.obj
 0001:0001d874       ?dtor$7@?0??LuxorSwitchAquisitionMode@@YA?AW4eUdpStatus@@V?$basic_string@DU?$char_traits@D@std@@V?$allocator@D@2@@std@@00@Z@4HA 000000014001e874 f   festo_udp_func.obj
 0001:0001d880       ?dtor$19@?0??LuxorSwitchAquisitionMode@@YA?AW4eUdpStatus@@V?$basic_string@DU?$char_traits@D@std@@V?$allocator@D@2@@std@@00@Z@4HA 000000014001e880 f   festo_udp_func.obj
 0001:0001d88c       ?dtor$21@?0??LuxorSwitchAquisitionMode@@YA?AW4eUdpStatus@@V?$basic_string@DU?$char_traits@D@std@@V?$allocator@D@2@@std@@00@Z@4HA 000000014001e88c f   festo_udp_func.obj
 0001:0001d89c       ?dtor$22@?0??LuxorSwitchAquisitionMode@@YA?AW4eUdpStatus@@V?$basic_string@DU?$char_traits@D@std@@V?$allocator@D@2@@std@@00@Z@4HA 000000014001e89c f   festo_udp_func.obj
 0001:0001d8a8       ?catch$0@?0??LuxorSwitchAquisitionMode@@YA?AW4eUdpStatus@@V?$basic_string@DU?$char_traits@D@std@@V?$allocator@D@2@@std@@00@Z@4HA 000000014001e8a8 f   festo_udp_func.obj
 0001:0001d8b5       __catch$?LuxorSwitchAquisitionMode@@YA?AW4eUdpStatus@@V?$basic_string@DU?$char_traits@D@std@@V?$allocator@D@2@@std@@00@Z$0 000000014001e8b5 f   festo_udp_func.obj
 0001:0001d8bf       ?catch$1@?0??LuxorSwitchAquisitionMode@@YA?AW4eUdpStatus@@V?$basic_string@DU?$char_traits@D@std@@V?$allocator@D@2@@std@@00@Z@4HA 000000014001e8bf f   festo_udp_func.obj
 0001:0001d8cc       __catch$?LuxorSwitchAquisitionMode@@YA?AW4eUdpStatus@@V?$basic_string@DU?$char_traits@D@std@@V?$allocator@D@2@@std@@00@Z$1 000000014001e8cc f   festo_udp_func.obj
 0001:0001d910       ?catch$0@?0??_Buyheadnode@?$_Tree_alloc@$0A@U?$_Tree_base_types@U?$pair@$$CBGG@std@@V?$allocator@U?$pair@$$CBGG@std@@@2@@std@@@std@@QEAAPEAU?$_Tree_node@U?$pair@$$CBGG@std@@PEAX@2@XZ@4HA 000000014001e910 f   festo_udp_func.obj
 0001:0001d91d       __catch$?_Buyheadnode@?$_Tree_alloc@$0A@U?$_Tree_base_types@U?$pair@$$CBGG@std@@V?$allocator@U?$pair@$$CBGG@std@@@2@@std@@@std@@QEAAPEAU?$_Tree_node@U?$pair@$$CBGG@std@@PEAX@2@XZ$0 000000014001e91d f   festo_udp_func.obj
 0001:0001d930       ?catch$0@?0??_Buynode0@?$_Tree_buy@U?$pair@$$CBGG@std@@V?$allocator@U?$pair@$$CBGG@std@@@2@@std@@QEAAPEAU?$_Tree_node@U?$pair@$$CBGG@std@@PEAX@2@XZ@4HA 000000014001e930 f   festo_udp_func.obj
 0001:0001d93d       __catch$?_Buynode0@?$_Tree_buy@U?$pair@$$CBGG@std@@V?$allocator@U?$pair@$$CBGG@std@@@2@@std@@QEAAPEAU?$_Tree_node@U?$pair@$$CBGG@std@@PEAX@2@XZ$0 000000014001e93d f   festo_udp_func.obj
 0001:0001d950       ?dtor$0@?0??data_size@udp@@YAHUudp_message@@@Z@4HA 000000014001e950 f   festo_udp_func.obj
 0001:0001d95c       ?dtor$1@?0??data_size@udp@@YAHUudp_message@@@Z@4HA 000000014001e95c f   festo_udp_func.obj
 0001:0001d970       ?catch$0@?0??resize@?$vector@EV?$allocator@E@std@@@std@@QEAAX_KAEBE@Z@4HA 000000014001e970 f   festo_udp_func.obj
 0001:0001d97d       __catch$?resize@?$vector@EV?$allocator@E@std@@@std@@QEAAX_KAEBE@Z$0 000000014001e97d f   festo_udp_func.obj
 0001:0001d990       ?dtor$2@?0??send_message@udp@@YAXAEAV?$basic_datagram_socket@Vudp@ip@asio@boost@@V?$datagram_socket_service@Vudp@ip@asio@boost@@@34@@asio@boost@@AEAV?$basic_endpoint@Vudp@ip@asio@boost@@@ip@34@Uudp_message@@@Z@4HA 000000014001e990 f   festo_udp_func.obj
 0001:0001d9a0       ?dtor$1@?0??send_message@udp@@YAXAEAV?$basic_datagram_socket@Vudp@ip@asio@boost@@V?$datagram_socket_service@Vudp@ip@asio@boost@@@34@@asio@boost@@AEAV?$basic_endpoint@Vudp@ip@asio@boost@@@ip@34@Uudp_message@@@Z@4HA 000000014001e9a0 f   festo_udp_func.obj
 0001:0001d9b0       ?dtor$0@?0???0MainWindow@@QEAA@PEAVQWidget@@@Z@4HA 000000014001e9b0 f   mainwindow.obj
 0001:0001d9be       ?dtor$1@?0???0MainWindow@@QEAA@PEAVQWidget@@@Z@4HA 000000014001e9be f   mainwindow.obj
 0001:0001d9ce       ?dtor$2@?0???0MainWindow@@QEAA@PEAVQWidget@@@Z@4HA 000000014001e9ce f   mainwindow.obj
 0001:0001d9da       ?dtor$3@?0???0MainWindow@@QEAA@PEAVQWidget@@@Z@4HA 000000014001e9da f   mainwindow.obj
 0001:0001d9e6       ?dtor$4@?0???0MainWindow@@QEAA@PEAVQWidget@@@Z@4HA 000000014001e9e6 f   mainwindow.obj
 0001:0001d9f2       ?dtor$5@?0???0MainWindow@@QEAA@PEAVQWidget@@@Z@4HA 000000014001e9f2 f   mainwindow.obj
 0001:0001da22       ?dtor$6@?0???0MainWindow@@QEAA@PEAVQWidget@@@Z@4HA 000000014001ea22 f   mainwindow.obj
 0001:0001da2e       ?dtor$7@?0???0MainWindow@@QEAA@PEAVQWidget@@@Z@4HA 000000014001ea2e f   mainwindow.obj
 0001:0001da5e       ?dtor$8@?0???0MainWindow@@QEAA@PEAVQWidget@@@Z@4HA 000000014001ea5e f   mainwindow.obj
 0001:0001da6a       ?dtor$9@?0???0MainWindow@@QEAA@PEAVQWidget@@@Z@4HA 000000014001ea6a f   mainwindow.obj
 0001:0001da9a       ?dtor$10@?0???0MainWindow@@QEAA@PEAVQWidget@@@Z@4HA 000000014001ea9a f   mainwindow.obj
 0001:0001daa6       ?dtor$11@?0???0MainWindow@@QEAA@PEAVQWidget@@@Z@4HA 000000014001eaa6 f   mainwindow.obj
 0001:0001dac0       ?dtor$0@?0??btn3_clicked@MainWindow@@AEAAXXZ@4HA 000000014001eac0 f   mainwindow.obj
 0001:0001dace       ?dtor$1@?0??btn3_clicked@MainWindow@@AEAAXXZ@4HA 000000014001eace f   mainwindow.obj
 0001:0001dae0       ?dtor$0@?0??printStatus@MainWindow@@QEAAXXZ@4HA 000000014001eae0 f   mainwindow.obj
 0001:0001daec       ?dtor$1@?0??printStatus@MainWindow@@QEAAXXZ@4HA 000000014001eaec f   mainwindow.obj
 0001:0001db00       ?dtor$0@?0???__Eerrno_ecat@system@boost@@YAXXZ@4HA 000000014001eb00 f   libboost_system-vc120-mt-1_63:error_code.obj
 0001:0001db00       ?dtor$0@?0???__Eposix_category@system@boost@@YAXXZ@4HA 000000014001eb00 f   libboost_system-vc120-mt-1_63:error_code.obj
 0001:0001db00       ?dtor$0@?0??generic_category@system@boost@@YAAEBVerror_category@12@XZ@4HA 000000014001eb00 f   libboost_system-vc120-mt-1_63:error_code.obj
 0001:0001db00       ?dtor$0@?0??make_error_condition@errc@system@boost@@YA?AVerror_condition@23@W4errc_t@123@@Z@4HA 000000014001eb00 f   libboost_system-vc120-mt-1_63:error_code.obj
 0001:0001db20       ?dtor$0@?0??default_error_condition@system_error_category@?A0x268fe48c@system@boost@@UEBA?AVerror_condition@34@H@Z@4HA 000000014001eb20 f   libboost_system-vc120-mt-1_63:error_code.obj
 0001:0001db20       ?dtor$0@?0???__Ethrows@system@boost@@YAXXZ@4HA 000000014001eb20 f   libboost_system-vc120-mt-1_63:error_code.obj
 0001:0001db20       ?dtor$0@?0??system_category@system@boost@@YAAEBVerror_category@12@XZ@4HA 000000014001eb20 f   libboost_system-vc120-mt-1_63:error_code.obj
 0001:0001db20       ?dtor$0@?0???__Enative_ecat@system@boost@@YAXXZ@4HA 000000014001eb20 f   libboost_system-vc120-mt-1_63:error_code.obj
 0001:0001db40       ?dtor$0@?0??message@generic_error_category@?A0x268fe48c@system@boost@@UEBA?AV?$basic_string@DU?$char_traits@D@std@@V?$allocator@D@2@@std@@H@Z@4HA 000000014001eb40 f   libboost_system-vc120-mt-1_63:error_code.obj
 0001:0001db56       ?dtor$1@?0??message@generic_error_category@?A0x268fe48c@system@boost@@UEBA?AV?$basic_string@DU?$char_traits@D@std@@V?$allocator@D@2@@std@@H@Z@4HA 000000014001eb56 f   libboost_system-vc120-mt-1_63:error_code.obj
 0001:0001db80       ?dtor$0@?0??message@system_error_category@?A0x268fe48c@system@boost@@UEBA?AV?$basic_string@DU?$char_traits@D@std@@V?$allocator@D@2@@std@@H@Z@4HA 000000014001eb80 f   libboost_system-vc120-mt-1_63:error_code.obj
 0001:0001db8c       ?dtor$1@?0??message@system_error_category@?A0x268fe48c@system@boost@@UEBA?AV?$basic_string@DU?$char_traits@D@std@@V?$allocator@D@2@@std@@H@Z@4HA 000000014001eb8c f   libboost_system-vc120-mt-1_63:error_code.obj
 0001:0001dbb2       ?dtor$2@?0??message@system_error_category@?A0x268fe48c@system@boost@@UEBA?AV?$basic_string@DU?$char_traits@D@std@@V?$allocator@D@2@@std@@H@Z@4HA 000000014001ebb2 f   libboost_system-vc120-mt-1_63:error_code.obj
 0001:0001dbc0       ?dtor$0@?0??convert@path_traits@filesystem@boost@@YAXPEBD0AEAV?$basic_string@_WU?$char_traits@_W@std@@V?$allocator@_W@2@@std@@AEBV?$codecvt@_WDH@5@@Z@4HA 000000014001ebc0 f   libboost_filesystem-vc120-mt-1_63:path_traits.obj
 0001:0001dbc0       ?dtor$0@?0??convert@path_traits@filesystem@boost@@YAXPEB_W0AEAV?$basic_string@DU?$char_traits@D@std@@V?$allocator@D@2@@std@@AEBV?$codecvt@_WDH@5@@Z@4HA 000000014001ebc0 f   libboost_filesystem-vc120-mt-1_63:path_traits.obj
 0001:0001dbd0       ?dtor$0@?0???$?0PEB_W@path@filesystem@boost@@QEAA@PEB_W0@Z@4HA 000000014001ebd0 f   libboost_filesystem-vc120-mt-1_63:path.obj
 0001:0001dbdc       ?dtor$1@?0???$?0PEB_W@path@filesystem@boost@@QEAA@PEB_W0@Z@4HA 000000014001ebdc f   libboost_filesystem-vc120-mt-1_63:path.obj
 0001:0001dbf0       ?dtor$0@?0???$use_facet@V?$codecvt@_WDH@std@@@std@@YAAEBV?$codecvt@_WDH@0@AEBVlocale@0@@Z@4HA 000000014001ebf0 f   libboost_filesystem-vc120-mt-1_63:path.obj
 0001:0001dc00       ?dtor$0@?0??m_path_iterator_increment@path@filesystem@boost@@CAXAEAViterator@123@@Z@4HA 000000014001ec00 f   libboost_filesystem-vc120-mt-1_63:path.obj
 0001:0001dc00       ?dtor$0@?0??dir_itr_increment@?A0x22c0dbb4@@YA?AVerror_code@system@boost@@AEAPEAXAEAV?$basic_string@_WU?$char_traits@_W@std@@V?$allocator@_W@2@@std@@AEAVfile_status@filesystem@4@2@Z@4HA 000000014001ec00 f   libboost_filesystem-vc120-mt-1_63:path.obj
 0001:0001dc00       ?dtor$0@?0???_0path@filesystem@boost@@QEAAAEAV012@AEBV012@@Z@4HA 000000014001ec00 f   libboost_filesystem-vc120-mt-1_63:path.obj
 0001:0001dc10       ?dtor$0@?0??begin@path@filesystem@boost@@QEBA?AViterator@123@XZ@4HA 000000014001ec10 f   libboost_filesystem-vc120-mt-1_63:path.obj
 0001:0001dc36       ?dtor$1@?0??begin@path@filesystem@boost@@QEBA?AViterator@123@XZ@4HA 000000014001ec36 f   libboost_filesystem-vc120-mt-1_63:path.obj
 0001:0001dc50       ?dtor$0@?0??codecvt@path@filesystem@boost@@SAAEBV?$codecvt@_WDH@std@@XZ@4HA 000000014001ec50 f   libboost_filesystem-vc120-mt-1_63:path.obj
 0001:0001dc70       ?dtor$0@?0??compare@path@filesystem@boost@@QEBAHAEBV123@@Z@4HA 000000014001ec70 f   libboost_filesystem-vc120-mt-1_63:path.obj
 0001:0001dc7c       ?dtor$1@?0??compare@path@filesystem@boost@@QEBAHAEBV123@@Z@4HA 000000014001ec7c f   libboost_filesystem-vc120-mt-1_63:path.obj
 0001:0001dc88       ?dtor$2@?0??compare@path@filesystem@boost@@QEBAHAEBV123@@Z@4HA 000000014001ec88 f   libboost_filesystem-vc120-mt-1_63:path.obj
 0001:0001dca0       ?dtor$0@?0??default_locale@?A0x2a37e08c@@YA?AVlocale@std@@XZ@4HA 000000014001eca0 f   libboost_filesystem-vc120-mt-1_63:path.obj
 0001:0001dcac       ?dtor$1@?0??default_locale@?A0x2a37e08c@@YA?AVlocale@std@@XZ@4HA 000000014001ecac f   libboost_filesystem-vc120-mt-1_63:path.obj
 0001:0001dcc0       ?dtor$0@?0??dot_dot_path@detail@filesystem@boost@@YAAEBVpath@23@XZ@4HA 000000014001ecc0 f   libboost_filesystem-vc120-mt-1_63:path.obj
 0001:0001dce0       ?dtor$0@?0??dot_path@detail@filesystem@boost@@YAAEBVpath@23@XZ@4HA 000000014001ece0 f   libboost_filesystem-vc120-mt-1_63:path.obj
 0001:0001dd00       ?dtor$0@?0??extension@path@filesystem@boost@@QEBA?AV123@XZ@4HA 000000014001ed00 f   libboost_filesystem-vc120-mt-1_63:path.obj
 0001:0001dd0c       ?dtor$4@?0??extension@path@filesystem@boost@@QEBA?AV123@XZ@4HA 000000014001ed0c f   libboost_filesystem-vc120-mt-1_63:path.obj
 0001:0001dd18       ?dtor$5@?0??extension@path@filesystem@boost@@QEBA?AV123@XZ@4HA 000000014001ed18 f   libboost_filesystem-vc120-mt-1_63:path.obj
 0001:0001dd24       ?dtor$6@?0??extension@path@filesystem@boost@@QEBA?AV123@XZ@4HA 000000014001ed24 f   libboost_filesystem-vc120-mt-1_63:path.obj
 0001:0001dd30       ?dtor$8@?0??extension@path@filesystem@boost@@QEBA?AV123@XZ@4HA 000000014001ed30 f   libboost_filesystem-vc120-mt-1_63:path.obj
 0001:0001dd3c       ?dtor$9@?0??extension@path@filesystem@boost@@QEBA?AV123@XZ@4HA 000000014001ed3c f   libboost_filesystem-vc120-mt-1_63:path.obj
 0001:0001dd48       ?dtor$10@?0??extension@path@filesystem@boost@@QEBA?AV123@XZ@4HA 000000014001ed48 f   libboost_filesystem-vc120-mt-1_63:path.obj
 0001:0001dd54       ?dtor$2@?0??extension@path@filesystem@boost@@QEBA?AV123@XZ@4HA 000000014001ed54 f   libboost_filesystem-vc120-mt-1_63:path.obj
 0001:0001dd7d       ?dtor$3@?0??extension@path@filesystem@boost@@QEBA?AV123@XZ@4HA 000000014001ed7d f   libboost_filesystem-vc120-mt-1_63:path.obj
 0001:0001ddb0       ?dtor$0@?0??lex_compare@detail@filesystem@boost@@YAHViterator@path@23@000@Z@4HA 000000014001edb0 f   libboost_filesystem-vc120-mt-1_63:path.obj
 0001:0001ddbc       ?dtor$1@?0??lex_compare@detail@filesystem@boost@@YAHViterator@path@23@000@Z@4HA 000000014001edbc f   libboost_filesystem-vc120-mt-1_63:path.obj
 0001:0001ddc8       ?dtor$2@?0??lex_compare@detail@filesystem@boost@@YAHViterator@path@23@000@Z@4HA 000000014001edc8 f   libboost_filesystem-vc120-mt-1_63:path.obj
 0001:0001ddd4       ?dtor$3@?0??lex_compare@detail@filesystem@boost@@YAHViterator@path@23@000@Z@4HA 000000014001edd4 f   libboost_filesystem-vc120-mt-1_63:path.obj
 0001:0001dde0       ?dtor$0@?0??parent_path@path@filesystem@boost@@QEBA?AV123@XZ@4HA 000000014001ede0 f   libboost_filesystem-vc120-mt-1_63:path.obj
 0001:0001dde0       ?dtor$0@?0??filename@path@filesystem@boost@@QEBA?AV123@XZ@4HA 000000014001ede0 f   libboost_filesystem-vc120-mt-1_63:path.obj
 0001:0001de06       ?dtor$1@?0??parent_path@path@filesystem@boost@@QEBA?AV123@XZ@4HA 000000014001ee06 f   libboost_filesystem-vc120-mt-1_63:path.obj
 0001:0001de06       ?dtor$1@?0??filename@path@filesystem@boost@@QEBA?AV123@XZ@4HA 000000014001ee06 f   libboost_filesystem-vc120-mt-1_63:path.obj
 0001:0001de2c       ?dtor$3@?0??parent_path@path@filesystem@boost@@QEBA?AV123@XZ@4HA 000000014001ee2c f   libboost_filesystem-vc120-mt-1_63:path.obj
 0001:0001de2c       ?dtor$5@?0??filename@path@filesystem@boost@@QEBA?AV123@XZ@4HA 000000014001ee2c f   libboost_filesystem-vc120-mt-1_63:path.obj
 0001:0001de40       ?catch$0@?0???$?0Um_imp@filesystem_error@filesystem@boost@@@shared_count@detail@boost@@QEAA@PEAUm_imp@filesystem_error@filesystem@2@@Z@4HA 000000014001ee40 f   libboost_filesystem-vc120-mt-1_63:operations.obj
 0001:0001de4e       __catch$??$?0Um_imp@filesystem_error@filesystem@boost@@@shared_count@detail@boost@@QEAA@PEAUm_imp@filesystem_error@filesystem@2@@Z$0 000000014001ee4e f   libboost_filesystem-vc120-mt-1_63:operations.obj
 0001:0001de80       ?dtor$1@?0???$reset@Um_imp@filesystem_error@filesystem@boost@@@?$shared_ptr@Um_imp@filesystem_error@filesystem@boost@@@boost@@QEAAXPEAUm_imp@filesystem_error@filesystem@1@@Z@4HA 000000014001ee80 f   libboost_filesystem-vc120-mt-1_63:operations.obj
 0001:0001de90       ?dtor$2@?0???0directory_iterator@filesystem@boost@@QEAA@AEBVpath@12@AEAVerror_code@system@2@@Z@4HA 000000014001ee90 f   libboost_filesystem-vc120-mt-1_63:operations.obj
 0001:0001dea0       ?dtor$1@?0???0directory_iterator@filesystem@boost@@QEAA@AEBVpath@12@AEAVerror_code@system@2@@Z@4HA 000000014001eea0 f   libboost_filesystem-vc120-mt-1_63:operations.obj
 0001:0001deb0       ?dtor$0@?0???0filesystem_error@filesystem@boost@@QEAA@AEBV?$basic_string@DU?$char_traits@D@std@@V?$allocator@D@2@@std@@AEBVpath@12@Verror_code@system@2@@Z@4HA 000000014001eeb0 f   libboost_filesystem-vc120-mt-1_63:operations.obj
